 serverToArduino

 Timestamp is 5b78906b (Sat Aug 18 23:32:27 2018)

 Preferred load address is 0000000140000000

 Start         Length     Name                   Class
 0001:00000000 000001e0H .text$di                CODE
 0001:000001e0 000226f0H .text$mn                CODE
 0001:000228d0 00000020H .text$mn$00             CODE
 0001:000228f0 000004b0H .text$x                 CODE
 0001:00022da0 000001a4H .text$yd                CODE
 0002:00000000 000002a0H .idata$5                DATA
 0002:000002a0 00000010H .00cfg                  DATA
 0002:000002b0 00000008H .CRT$XCA                DATA
 0002:000002b8 00000008H .CRT$XCAA               DATA
 0002:000002c0 00000058H .CRT$XCC                DATA
 0002:00000318 00000010H .CRT$XCL                DATA
 0002:00000328 00000008H .CRT$XCZ                DATA
 0002:00000330 00000008H .CRT$XIA                DATA
 0002:00000338 00000008H .CRT$XIAA               DATA
 0002:00000340 00000008H .CRT$XIAC               DATA
 0002:00000348 00000028H .CRT$XIC                DATA
 0002:00000370 00000008H .CRT$XIZ                DATA
 0002:00000378 00000008H .CRT$XPA                DATA
 0002:00000380 00000010H .CRT$XPX                DATA
 0002:00000390 00000008H .CRT$XPXA               DATA
 0002:00000398 00000008H .CRT$XPZ                DATA
 0002:000003a0 00000008H .CRT$XTA                DATA
 0002:000003a8 00000008H .CRT$XTZ                DATA
 0002:000003b0 00000000H .gfids$y                DATA
 0002:000003b0 0000fb90H .rdata                  DATA
 0002:0000ff40 00000f24H .rdata$r                DATA
 0002:00010e64 000003a4H .rdata$zzzdbg           DATA
 0002:00011208 00000008H .rtc$IAA                DATA
 0002:00011210 00000008H .rtc$IZZ                DATA
 0002:00011218 00000008H .rtc$TAA                DATA
 0002:00011220 00000010H .rtc$TZZ                DATA
 0002:00011230 00001ce8H .xdata                  DATA
 0002:00012f18 0000023cH .xdata$x                DATA
 0002:00013154 00000000H .edata                  DATA
 0002:00013154 00000014H .idata$2                DATA
 0002:00013168 00000018H .idata$3                DATA
 0002:00013180 000002a0H .idata$4                DATA
 0002:00013420 000005faH .idata$6                DATA
 0003:00000000 00000b70H .data                   DATA
 0003:00000b70 000005b0H .data$r                 DATA
 0003:00001120 00001a30H .bss                    DATA
 0004:00000000 00001eccH .pdata                  DATA
 0005:00000000 00000060H .rsrc$01                DATA
 0005:00000060 00000180H .rsrc$02                DATA

  Address         Publics by Value              Rva+Base               Lib:Object

 0000:00000000       __guard_iat_count          0000000000000000     <absolute>
 0000:00000000       __dynamic_value_reloc_table 0000000000000000     <absolute>
 0000:00000000       __hybrid_code_map          0000000000000000     <absolute>
 0000:00000000       __hybrid_code_map_count    0000000000000000     <absolute>
 0000:00000000       __guard_iat_table          0000000000000000     <absolute>
 0000:00000000       __guard_longjmp_table      0000000000000000     <absolute>
 0000:00000000       __hybrid_auxiliary_iat     0000000000000000     <absolute>
 0000:00000000       __guard_longjmp_count      0000000000000000     <absolute>
 0000:00000000       __guard_fids_count         0000000000000000     <absolute>
 0000:00000000       __enclave_config           0000000000000000     <absolute>
 0000:00000000       ___safe_se_handler_table   0000000000000000     <absolute>
 0000:00000000       ___safe_se_handler_count   0000000000000000     <absolute>
 0000:00000000       __guard_fids_table         0000000000000000     <absolute>
 0000:00000100       __guard_flags              0000000000000100     <absolute>
 0000:00000000       __ImageBase                0000000140000000     <linker-defined>
 0001:000001e0       __local_stdio_printf_options 00000001400011e0 f i main.obj
 0001:000001f0       printf                     00000001400011f0 f i main.obj
 0001:00000250       ?what@exception@stdext@@UEBAPEBDXZ 0000000140001250 f i main.obj
 0001:00000270       ?_Raise@exception@stdext@@QEBAXXZ 0000000140001270 f i main.obj
 0001:000002b0       _initialize_denormal_control 00000001400012b0 f i LIBCMT:denormal_control.obj
 0001:000002b0       _guard_check_icall_nop     00000001400012b0 f i LIBCMT:guard_support.obj
 0001:000002b0       ?_Doraise@exception@stdext@@MEBAXXZ 00000001400012b0 f i main.obj
 0001:000002b0       ?imbue@?$basic_streambuf@DU?$char_traits@D@std@@@std@@MEAAXAEBVlocale@2@@Z 00000001400012b0 f i libcpmt:cout.obj
 0001:000002b0       ?_Lock@?$basic_streambuf@DU?$char_traits@D@std@@@std@@UEAAXXZ 00000001400012b0 f i libcpmt:cout.obj
 0001:000002b0       _initialize_invalid_parameter_handler 00000001400012b0 f i LIBCMT:invalid_parameter_handler.obj
 0001:000002b0       ?_Unlock@?$basic_streambuf@DU?$char_traits@D@std@@@std@@UEAAXXZ 00000001400012b0 f i libcpmt:cout.obj
 0001:000002c0       ??_Eexception@stdext@@UEAAPEAXI@Z 00000001400012c0 f i * CIL library *:* CIL module *
 0001:000002c0       ??_Gexception@stdext@@UEAAPEAXI@Z 00000001400012c0 f i main.obj
 0001:000002c0       ??_Eruntime_error@std@@UEAAPEAXI@Z 00000001400012c0 f i * CIL library *:* CIL module *
 0001:000002c0       ??_Gruntime_error@std@@UEAAPEAXI@Z 00000001400012c0 f i main.obj
 0001:000002f0       ??0runtime_error@std@@QEAA@PEBD@Z 00000001400012f0 f i main.obj
 0001:00000310       ??0_Locinfo@std@@QEAA@PEBD@Z 0000000140001310 f i main.obj
 0001:00000390       ??1_Locinfo@std@@QEAA@XZ   0000000140001390 f i main.obj
 0001:00000430       ??_G_Facet_base@std@@UEAAPEAXI@Z 0000000140001430 f i main.obj
 0001:00000430       ??_E_Facet_base@std@@UEAAPEAXI@Z 0000000140001430 f i * CIL library *:* CIL module *
 0001:00000460       ?_Incref@facet@locale@std@@UEAAXXZ 0000000140001460 f i main.obj
 0001:00000470       ?_Decref@facet@locale@std@@UEAAPEAV_Facet_base@3@XZ 0000000140001470 f i main.obj
 0001:00000480       ?do_tolower@?$ctype@D@std@@MEBADD@Z 0000000140001480 f i main.obj
 0001:00000490       ?do_tolower@?$ctype@D@std@@MEBAPEBDPEADPEBD@Z 0000000140001490 f i main.obj
 0001:000004f0       ?do_toupper@?$ctype@D@std@@MEBADD@Z 00000001400014f0 f i main.obj
 0001:00000500       ?do_toupper@?$ctype@D@std@@MEBAPEBDPEADPEBD@Z 0000000140001500 f i main.obj
 0001:00000560       ?do_widen@?$ctype@D@std@@MEBADD@Z 0000000140001560 f i main.obj
 0001:00000560       ?do_narrow@?$ctype@D@std@@MEBADDD@Z 0000000140001560 f i main.obj
 0001:00000570       ?do_widen@?$ctype@D@std@@MEBAPEBDPEBD0PEAD@Z 0000000140001570 f i main.obj
 0001:00000590       ?do_narrow@?$ctype@D@std@@MEBAPEBDPEBD0DPEAD@Z 0000000140001590 f i main.obj
 0001:000005b0       ??_E?$ctype@D@std@@MEAAPEAXI@Z 00000001400015b0 f i * CIL library *:* CIL module *
 0001:000005b0       ??_G?$ctype@D@std@@MEAAPEAXI@Z 00000001400015b0 f i main.obj
 0001:00000620       ?default_error_condition@error_category@std@@UEBA?AVerror_condition@2@H@Z 0000000140001620 f i main.obj
 0001:00000630       ?equivalent@error_category@std@@UEBA_NHAEBVerror_condition@2@@Z 0000000140001630 f i main.obj
 0001:00000690       ?equivalent@error_category@std@@UEBA_NAEBVerror_code@2@H@Z 0000000140001690 f i main.obj
 0001:000006b0       ?make_error_code@std@@YA?AVerror_code@1@W4io_errc@1@@Z 00000001400016b0 f i main.obj
 0001:00000700       ?_Makestr@_System_error@std@@CA?AV?$basic_string@DU?$char_traits@D@std@@V?$allocator@D@2@@2@Verror_code@2@V32@@Z 0000000140001700 f i main.obj
 0001:000008a0       ??_E_System_error@std@@UEAAPEAXI@Z 00000001400018a0 f i * CIL library *:* CIL module *
 0001:000008a0       ??_Efailure@ios_base@std@@UEAAPEAXI@Z 00000001400018a0 f i * CIL library *:* CIL module *
 0001:000008a0       ??_Gfailure@ios_base@std@@UEAAPEAXI@Z 00000001400018a0 f i main.obj
 0001:000008a0       ??_G_System_error@std@@UEAAPEAXI@Z 00000001400018a0 f i main.obj
 0001:000008d0       ?name@_Iostream_error_category@std@@UEBAPEBDXZ 00000001400018d0 f i main.obj
 0001:000008e0       ?message@_Iostream_error_category@std@@UEBA?AV?$basic_string@DU?$char_traits@D@std@@V?$allocator@D@2@@2@H@Z 00000001400018e0 f i main.obj
 0001:00000930       ??_E_Iostream_error_category@std@@UEAAPEAXI@Z 0000000140001930 f i * CIL library *:* CIL module *
 0001:00000930       ??_G_Iostream_error_category@std@@UEAAPEAXI@Z 0000000140001930 f i main.obj
 0001:00000960       ??0failure@ios_base@std@@QEAA@PEBDAEBVerror_code@2@@Z 0000000140001960 f i main.obj
 0001:00000aa0       ?clear@ios_base@std@@QEAAXH_N@Z 0000000140001aa0 f i main.obj
 0001:00000b40       main                       0000000140001b40 f   main.obj
 0001:00000fd0       ??1?$basic_string@DU?$char_traits@D@std@@V?$allocator@D@2@@std@@QEAA@XZ 0000000140001fd0 f i main.obj
 0001:00001030       ??0?$basic_string@DU?$char_traits@D@std@@V?$allocator@D@2@@std@@QEAA@QEBD@Z 0000000140002030 f i main.obj
 0001:000011a0       ??0?$basic_string@DU?$char_traits@D@std@@V?$allocator@D@2@@std@@QEAA@AEBV01@@Z 00000001400021a0 f i main.obj
 0001:00001280       ?append@?$basic_string@DU?$char_traits@D@std@@V?$allocator@D@2@@std@@QEAAAEAV12@QEBD_K@Z 0000000140002280 f i main.obj
 0001:00001300       ??$use_facet@V?$ctype@D@std@@@std@@YAAEBV?$ctype@D@0@AEBVlocale@0@@Z 0000000140002300 f i main.obj
 0001:00001560       ??$?6U?$char_traits@D@std@@@std@@YAAEAV?$basic_ostream@DU?$char_traits@D@std@@@0@AEAV10@PEBD@Z 0000000140002560 f i main.obj
 0001:00001a90       ??1?$unique_ptr@V_Facet_base@std@@U?$default_delete@V_Facet_base@std@@@2@@std@@QEAA@XZ 0000000140002a90 f i main.obj
 0001:00001ab0       ??0sentry@?$basic_ostream@DU?$char_traits@D@std@@@std@@QEAA@AEAV12@@Z 0000000140002ab0 f i main.obj
 0001:00001b20       ?_Xlen@?$basic_string@DU?$char_traits@D@std@@V?$allocator@D@2@@std@@SAXXZ 0000000140002b20 f i main.obj
 0001:00001b40       ?flush@?$basic_ostream@DU?$char_traits@D@std@@@std@@QEAAAEAV12@XZ 0000000140002b40 f i main.obj
 0001:00001d30       ?put@?$basic_ostream@DU?$char_traits@D@std@@@std@@QEAAAEAV12@D@Z 0000000140002d30 f i main.obj
 0001:00001f70       ?widen@?$basic_ios@DU?$char_traits@D@std@@@std@@QEBADD@Z 0000000140002f70 f i main.obj
 0001:00001ff0       ??$_Immortalize_impl@V_Iostream_error_category@std@@@std@@YAHPEAX0PEAPEAX@Z 0000000140002ff0 f i main.obj
 0001:00002010       ??$getline@DU?$char_traits@D@std@@V?$allocator@D@2@@std@@YAAEAV?$basic_istream@DU?$char_traits@D@std@@@0@$$QEAV10@AEAV?$basic_string@DU?$char_traits@D@std@@V?$allocator@D@2@@0@D@Z 0000000140003010 f i main.obj
 0001:00002300       ?snextc@?$basic_streambuf@DU?$char_traits@D@std@@@std@@QEAAHXZ 0000000140003300 f i main.obj
 0001:00002390       ?push_back@?$basic_string@DU?$char_traits@D@std@@V?$allocator@D@2@@std@@QEAAXD@Z 0000000140003390 f i main.obj
 0001:00002518       ??0_Init_locks@std@@QEAA@XZ 0000000140003518 f   libcpmt:xlock.obj
 0001:00002564       ??0_Lockit@std@@QEAA@H@Z   0000000140003564 f   libcpmt:xlock.obj
 0001:000025a0       ??1_Init_locks@std@@QEAA@XZ 00000001400035a0 f   libcpmt:xlock.obj
 0001:000025e4       ??1_Lockit@std@@QEAA@XZ    00000001400035e4 f   libcpmt:xlock.obj
 0001:000028b4       ??0?$basic_string@DU?$char_traits@D@std@@V?$allocator@D@2@@std@@QEAA@_KD@Z 00000001400038b4 f i libcpmt:xonce.obj
 0001:00002928       ??0exception@std@@QEAA@AEBV01@@Z 0000000140003928 f i libcpmt:xonce.obj
 0001:00002960       ??_Elogic_error@std@@UEAAPEAXI@Z 0000000140003960 f i libcpmt:xthrow.obj
 0001:00002960       ??_Ebad_alloc@std@@UEAAPEAXI@Z 0000000140003960 f i libcpmt:xthrow.obj
 0001:00002960       ??_Ebad_array_new_length@std@@UEAAPEAXI@Z 0000000140003960 f i LIBCMT:throw_bad_alloc.obj
 0001:00002960       ??_Gbad_alloc@std@@UEAAPEAXI@Z 0000000140003960 f i libcpmt:xthrow.obj
 0001:00002960       ??_Elength_error@std@@UEAAPEAXI@Z 0000000140003960 f i libcpmt:xthrow.obj
 0001:00002960       ??_Eexception@std@@UEAAPEAXI@Z 0000000140003960 f i libcpmt:xonce.obj
 0001:00002960       ??_Gbad_cast@std@@UEAAPEAXI@Z 0000000140003960 f i libcpmt:cout.obj
 0001:00002960       ??_Gbad_exception@std@@UEAAPEAXI@Z 0000000140003960 f i libvcruntime:frame.obj
 0001:00002960       ??_Glength_error@std@@UEAAPEAXI@Z 0000000140003960 f i libcpmt:xthrow.obj
 0001:00002960       ??_Glogic_error@std@@UEAAPEAXI@Z 0000000140003960 f i libcpmt:xthrow.obj
 0001:00002960       ??_Ebad_cast@std@@UEAAPEAXI@Z 0000000140003960 f i libcpmt:cout.obj
 0001:00002960       ??_Ebad_exception@std@@UEAAPEAXI@Z 0000000140003960 f i libvcruntime:frame.obj
 0001:00002960       ??_Gexception@std@@UEAAPEAXI@Z 0000000140003960 f i libcpmt:xonce.obj
 0001:00002960       ??_Gbad_array_new_length@std@@UEAAPEAXI@Z 0000000140003960 f i LIBCMT:throw_bad_alloc.obj
 0001:000029a4       ?_Execute_once@std@@YAHAEAUonce_flag@1@P6AHPEAX1PEAPEAX@Z1@Z 00000001400039a4 f   libcpmt:xonce.obj
 0001:000029ac       ?append@?$basic_string@DU?$char_traits@D@std@@V?$allocator@D@2@@std@@QEAAAEAV12@_KD@Z 00000001400039ac f i libcpmt:xonce.obj
 0001:00002a28       ?what@exception@std@@UEBAPEBDXZ 0000000140003a28 f i libcpmt:xonce.obj
 0001:00002a3c       ??$use_facet@V?$codecvt@DDU_Mbstatet@@@std@@@std@@YAAEBV?$codecvt@DDU_Mbstatet@@@0@AEBVlocale@0@@Z 0000000140003a3c f i libcpmt:cout.obj
 0001:00002b70       ??0?$basic_ostream@DU?$char_traits@D@std@@@std@@QEAA@PEAV?$basic_streambuf@DU?$char_traits@D@std@@@1@_N@Z 0000000140003b70 f i libcpmt:cout.obj
 0001:00002c38       ??0?$basic_streambuf@DU?$char_traits@D@std@@@std@@IEAA@XZ 0000000140003c38 f i libcpmt:cout.obj
 0001:00002ce8       ??0_Init_cout@std@@QEAA@XZ 0000000140003ce8 f i libcpmt:cout.obj
 0001:00002d54       ??0bad_cast@std@@QEAA@AEBV01@@Z 0000000140003d54 f i libcpmt:cout.obj
 0001:00002d94       ??0bad_cast@std@@QEAA@XZ   0000000140003d94 f i libcpmt:cout.obj
 0001:00002db4       ??1?$basic_filebuf@DU?$char_traits@D@std@@@std@@UEAA@XZ 0000000140003db4 f i libcpmt:cout.obj
 0001:00002e4c       ??1?$basic_ios@DU?$char_traits@D@std@@@std@@UEAA@XZ 0000000140003e4c f i libcpmt:cout.obj
 0001:00002e70       ??1?$basic_streambuf@DU?$char_traits@D@std@@@std@@UEAA@XZ 0000000140003e70 f i libcpmt:cout.obj
 0001:00002ed8       ??1bad_alloc@std@@UEAA@XZ  0000000140003ed8 f i libcpmt:xthrow.obj
 0001:00002ed8       ??1bad_array_new_length@std@@UEAA@XZ 0000000140003ed8 f i LIBCMT:throw_bad_alloc.obj
 0001:00002ed8       ??1bad_cast@std@@UEAA@XZ   0000000140003ed8 f i libcpmt:cout.obj
 0001:00002ed8       ??1bad_exception@std@@UEAA@XZ 0000000140003ed8 f i libvcruntime:frame.obj
 0001:00002ed8       ??1length_error@std@@UEAA@XZ 0000000140003ed8 f i libcpmt:xthrow.obj
 0001:00002eec       ??_E?$basic_ostream@DU?$char_traits@D@std@@@std@@$4PPPPPPPM@A@EAAPEAXI@Z 0000000140003eec f i libcpmt:cout.obj
 0001:00002ef8       ??_E?$basic_filebuf@DU?$char_traits@D@std@@@std@@UEAAPEAXI@Z 0000000140003ef8 f i libcpmt:cout.obj
 0001:00002ef8       ??_G?$basic_filebuf@DU?$char_traits@D@std@@@std@@UEAAPEAXI@Z 0000000140003ef8 f i libcpmt:cout.obj
 0001:00002f2c       ??_E?$basic_ios@DU?$char_traits@D@std@@@std@@UEAAPEAXI@Z 0000000140003f2c f i libcpmt:cout.obj
 0001:00002f2c       ??_G?$basic_ios@DU?$char_traits@D@std@@@std@@UEAAPEAXI@Z 0000000140003f2c f i libcpmt:cout.obj
 0001:00002f78       ??_G?$basic_ostream@DU?$char_traits@D@std@@@std@@UEAAPEAXI@Z 0000000140003f78 f i libcpmt:cout.obj
 0001:00002f78       ??_E?$basic_ostream@DU?$char_traits@D@std@@@std@@UEAAPEAXI@Z 0000000140003f78 f i libcpmt:cout.obj
 0001:00002fe8       ??_G?$basic_streambuf@DU?$char_traits@D@std@@@std@@UEAAPEAXI@Z 0000000140003fe8 f i libcpmt:cout.obj
 0001:00002fe8       ??_E?$basic_streambuf@DU?$char_traits@D@std@@@std@@UEAAPEAXI@Z 0000000140003fe8 f i libcpmt:cout.obj
 0001:0000301c       ??_G?$codecvt@DDU_Mbstatet@@@std@@MEAAPEAXI@Z 000000014000401c f i libcpmt:cout.obj
 0001:0000301c       ??_E?$codecvt@DDU_Mbstatet@@@std@@MEAAPEAXI@Z 000000014000401c f i libcpmt:cout.obj
 0001:00003048       ??_Gios_base@std@@UEAAPEAXI@Z 0000000140004048 f i libcpmt:cout.obj
 0001:00003048       ??_Eios_base@std@@UEAAPEAXI@Z 0000000140004048 f i libcpmt:cout.obj
 0001:00003094       ?_Endwrite@?$basic_filebuf@DU?$char_traits@D@std@@@std@@IEAA_NXZ 0000000140004094 f i libcpmt:cout.obj
 0001:00003238       ?_Getcat@?$codecvt@DDU_Mbstatet@@@std@@SA_KPEAPEBVfacet@locale@2@PEBV42@@Z 0000000140004238 f i libcpmt:cout.obj
 0001:000032fc       ?_Init@?$basic_filebuf@DU?$char_traits@D@std@@@std@@IEAAXPEAU_iobuf@@W4_Initfl@12@@Z 00000001400042fc f i libcpmt:cout.obj
 0001:000033e8       ?_Init@ios_base@std@@IEAAXXZ 00000001400043e8 f i libcpmt:cout.obj
 0001:00003468       ?_Initcvt@?$basic_filebuf@DU?$char_traits@D@std@@@std@@IEAAXAEBV?$codecvt@DDU_Mbstatet@@@2@@Z 0000000140004468 f i libcpmt:cout.obj
 0001:000034f8       ?_Lock@?$basic_filebuf@DU?$char_traits@D@std@@@std@@UEAAXXZ 00000001400044f8 f i libcpmt:cout.obj
 0001:00003514       ?_Unlock@?$basic_filebuf@DU?$char_traits@D@std@@@std@@UEAAXXZ 0000000140004514 f i libcpmt:cout.obj
 0001:00003530       __acrt_uninitialize_command_line 0000000140004530 f i libucrt:argv_data.obj
 0001:00003530       _should_initialize_environment 0000000140004530 f i LIBCMT:env_mode.obj
 0001:00003530       ?do_always_noconv@?$codecvt@DDU_Mbstatet@@@std@@MEBA_NXZ 0000000140004530 f i libcpmt:cout.obj
 0001:00003534       ?do_max_length@codecvt_base@std@@MEBAHXZ 0000000140004534 f i libcpmt:cout.obj
 0001:00003534       _get_startup_argv_mode     0000000140004534 f i LIBCMT:argv_mode.obj
 0001:00003534       ?do_encoding@codecvt_base@std@@MEBAHXZ 0000000140004534 f i libcpmt:cout.obj
 0001:0000353c       ?do_out@?$codecvt@DDU_Mbstatet@@@std@@MEBAHAEAU_Mbstatet@@PEBD1AEAPEBDPEAD3AEAPEAD@Z 000000014000453c f i libcpmt:cout.obj
 0001:0000353c       ?do_in@?$codecvt@DDU_Mbstatet@@@std@@MEBAHAEAU_Mbstatet@@PEBD1AEAPEBDPEAD3AEAPEAD@Z 000000014000453c f i libcpmt:cout.obj
 0001:00003558       ?do_length@?$codecvt@DDU_Mbstatet@@@std@@MEBAHAEAU_Mbstatet@@PEBD1_K@Z 0000000140004558 f i libcpmt:cout.obj
 0001:0000356c       ?do_unshift@?$codecvt@DDU_Mbstatet@@@std@@MEBAHAEAU_Mbstatet@@PEAD1AEAPEAD@Z 000000014000456c f i libcpmt:cout.obj
 0001:00003578       ?imbue@?$basic_filebuf@DU?$char_traits@D@std@@@std@@MEAAXAEBVlocale@2@@Z 0000000140004578 f i libcpmt:cout.obj
 0001:0000359c       ?overflow@?$basic_filebuf@DU?$char_traits@D@std@@@std@@MEAAHH@Z 000000014000459c f i libcpmt:cout.obj
 0001:000037f0       ?overflow@?$basic_streambuf@DU?$char_traits@D@std@@@std@@MEAAHH@Z 00000001400047f0 f i libcpmt:cout.obj
 0001:000037f0       ?underflow@?$basic_streambuf@DU?$char_traits@D@std@@@std@@MEAAHXZ 00000001400047f0 f i libcpmt:cout.obj
 0001:000037f0       ?pbackfail@?$basic_streambuf@DU?$char_traits@D@std@@@std@@MEAAHH@Z 00000001400047f0 f i libcpmt:cout.obj
 0001:000037f4       ?pbackfail@?$basic_filebuf@DU?$char_traits@D@std@@@std@@MEAAHH@Z 00000001400047f4 f i libcpmt:cout.obj
 0001:000038c0       ?seekoff@?$basic_filebuf@DU?$char_traits@D@std@@@std@@MEAA?AV?$fpos@U_Mbstatet@@@2@_JHH@Z 00000001400048c0 f i libcpmt:cout.obj
 0001:000039ac       ?seekpos@?$basic_streambuf@DU?$char_traits@D@std@@@std@@MEAA?AV?$fpos@U_Mbstatet@@@2@V32@H@Z 00000001400049ac f i libcpmt:cout.obj
 0001:000039ac       ?seekoff@?$basic_streambuf@DU?$char_traits@D@std@@@std@@MEAA?AV?$fpos@U_Mbstatet@@@2@_JHH@Z 00000001400049ac f i libcpmt:cout.obj
 0001:000039c8       ?seekpos@?$basic_filebuf@DU?$char_traits@D@std@@@std@@MEAA?AV?$fpos@U_Mbstatet@@@2@V32@H@Z 00000001400049c8 f i libcpmt:cout.obj
 0001:00003acc       ?setbuf@?$basic_filebuf@DU?$char_traits@D@std@@@std@@MEAAPEAV?$basic_streambuf@DU?$char_traits@D@std@@@2@PEAD_J@Z 0000000140004acc f i libcpmt:cout.obj
 0001:00003b20       ?setbuf@?$basic_streambuf@DU?$char_traits@D@std@@@std@@MEAAPEAV12@PEAD_J@Z 0000000140004b20 f i libcpmt:cout.obj
 0001:00003b24       ?showmanyc@?$basic_streambuf@DU?$char_traits@D@std@@@std@@MEAA_JXZ 0000000140004b24 f i libcpmt:cout.obj
 0001:00003b24       ?sync@?$basic_streambuf@DU?$char_traits@D@std@@@std@@MEAAHXZ 0000000140004b24 f i libcpmt:cout.obj
 0001:00003b24       __scrt_initialize_winrt    0000000140004b24 f i LIBCMT:utility_desktop.obj
 0001:00003b24       _get_startup_commit_mode   0000000140004b24 f i LIBCMT:commit_mode.obj
 0001:00003b24       _matherr                   0000000140004b24 f i LIBCMT:matherr.obj
 0001:00003b24       _get_startup_thread_locale_mode 0000000140004b24 f i LIBCMT:thread_locale.obj
 0001:00003b24       _get_startup_new_mode      0000000140004b24 f i LIBCMT:new_mode.obj
 0001:00003b28       ?sync@?$basic_filebuf@DU?$char_traits@D@std@@@std@@MEAAHXZ 0000000140004b28 f i libcpmt:cout.obj
 0001:00003b74       ?uflow@?$basic_filebuf@DU?$char_traits@D@std@@@std@@MEAAHXZ 0000000140004b74 f i libcpmt:cout.obj
 0001:00003e18       ?uflow@?$basic_streambuf@DU?$char_traits@D@std@@@std@@MEAAHXZ 0000000140004e18 f i libcpmt:cout.obj
 0001:00003e54       ?underflow@?$basic_filebuf@DU?$char_traits@D@std@@@std@@MEAAHXZ 0000000140004e54 f i libcpmt:cout.obj
 0001:00003eb8       ?xsgetn@?$basic_streambuf@DU?$char_traits@D@std@@@std@@MEAA_JPEAD_J@Z 0000000140004eb8 f i libcpmt:cout.obj
 0001:00003f74       ?xsputn@?$basic_streambuf@DU?$char_traits@D@std@@@std@@MEAA_JPEBD_J@Z 0000000140004f74 f i libcpmt:cout.obj
 0001:00004034       ??1_Fac_tidy_reg_t@std@@QEAA@XZ 0000000140005034 f i libcpmt:locale0.obj
 0001:0000409c       ??4?$_Yarn@D@std@@QEAAAEAV01@PEBD@Z 000000014000509c f i libcpmt:locale0.obj
 0001:00004114       ??_E_Locimp@locale@std@@MEAAPEAXI@Z 0000000140005114 f i libcpmt:locale0.obj
 0001:00004114       ??_G_Locimp@locale@std@@MEAAPEAXI@Z 0000000140005114 f i libcpmt:locale0.obj
 0001:00004180       ?_Facet_Register@std@@YAXPEAV_Facet_base@1@@Z 0000000140005180 f   libcpmt:locale0.obj
 0001:000041b8       ?_Getgloballocale@locale@std@@CAPEAV_Locimp@12@XZ 00000001400051b8 f   libcpmt:locale0.obj
 0001:000041c0       ?_Init@locale@std@@CAPEAV_Locimp@12@_N@Z 00000001400051c0 f   libcpmt:locale0.obj
 0001:00004288       ?_Locimp_dtor@_Locimp@locale@std@@CAXPEAV123@@Z 0000000140005288 f   libcpmt:locale0.obj
 0001:00004310       ?_Locinfo_ctor@_Locinfo@std@@SAXPEAV12@PEBD@Z 0000000140005310 f   libcpmt:locale0.obj
 0001:0000437c       ?_Locinfo_dtor@_Locinfo@std@@SAXPEAV12@@Z 000000014000537c f   libcpmt:locale0.obj
 0001:00004398       ?_New_Locimp@_Locimp@locale@std@@CAPEAV123@_N@Z 0000000140005398 f   libcpmt:locale0.obj
 0001:00004408       _Deletegloballocale        0000000140005408 f   libcpmt:locale0.obj
 0001:00004478       ??0?$basic_istream@DU?$char_traits@D@std@@@std@@QEAA@PEAV?$basic_streambuf@DU?$char_traits@D@std@@@1@_N@Z 0000000140005478 f i libcpmt:cin.obj
 0001:00004544       ??_E?$basic_istream@DU?$char_traits@D@std@@@std@@$4PPPPPPPM@A@EAAPEAXI@Z 0000000140005544 f i libcpmt:cin.obj
 0001:00004550       ??_E?$basic_istream@DU?$char_traits@D@std@@@std@@UEAAPEAXI@Z 0000000140005550 f i libcpmt:cin.obj
 0001:00004550       ??_G?$basic_istream@DU?$char_traits@D@std@@@std@@UEAAPEAXI@Z 0000000140005550 f i libcpmt:cin.obj
 0001:000045c0       ??0bad_alloc@std@@QEAA@AEBV01@@Z 00000001400055c0 f i libcpmt:xthrow.obj
 0001:00004600       ??0bad_alloc@std@@QEAA@XZ  0000000140005600 f i libcpmt:xthrow.obj
 0001:00004620       ??0length_error@std@@QEAA@AEBV01@@Z 0000000140005620 f i libcpmt:xthrow.obj
 0001:00004660       ??0length_error@std@@QEAA@PEBD@Z 0000000140005660 f i libcpmt:xthrow.obj
 0001:000046ac       ??0logic_error@std@@QEAA@AEBV01@@Z 00000001400056ac f i libcpmt:xthrow.obj
 0001:000046ec       ?_Xlength_error@std@@YAXPEBD@Z 00000001400056ec f   libcpmt:xthrow.obj
 0001:00004710       ?_Syserror_map@std@@YAPEBDH@Z 0000000140005710 f   libcpmt:syserror.obj
 0001:00004738       _Getctype                  0000000140005738 f   libcpmt:_tolower.obj
 0001:00004800       _Tolower                   0000000140005800 f   libcpmt:_tolower.obj
 0001:00004930       _Toupper                   0000000140005930 f   libcpmt:_toupper.obj
 0001:00004a70       _Mtxdst                    0000000140005a70 f   libcpmt:xmtx.obj
 0001:00004a78       _Mtxinit                   0000000140005a78 f   libcpmt:xmtx.obj
 0001:00004a88       _Mtxlock                   0000000140005a88 f   libcpmt:xmtx.obj
 0001:00004a90       _Mtxunlock                 0000000140005a90 f   libcpmt:xmtx.obj
 0001:00004f68       __crtInitOnceExecuteOnce   0000000140005f68 f   libcpmt:winapisupp.obj
 0001:00005034       __crtInitializeCriticalSectionEx 0000000140006034 f   libcpmt:winapisupp.obj
 0001:00005064       ?_Addstd@ios_base@std@@SAXPEAV12@@Z 0000000140006064 f   libcpmt:ios.obj
 0001:000050dc       ?_Ios_base_dtor@ios_base@std@@CAXPEAV12@@Z 00000001400060dc f   libcpmt:ios.obj
 0001:0000515c       ?_Tidy@ios_base@std@@AEAAXXZ 000000014000615c f i libcpmt:ios.obj
 0001:000051dc       ?_Atexit@@YAXP6AXXZ@Z      00000001400061dc f   libcpmt:iosptrs.obj
 0001:0000521c       __crtLCMapStringA          000000014000621c f   libcpmt:StlLCMapStringA.obj
 0001:000054d0       GetTableIndexFromLocaleName 00000001400064d0 f   libcpmt:winapinls.obj
 0001:00005560       __crtDownlevelLocaleNameToLCID 0000000140006560 f   libcpmt:winapinls.obj
 0001:00005594       __crtLCMapStringEx         0000000140006594 f   libcpmt:winapinls.obj
 0001:00005630       __wcsnicmp_ascii           0000000140006630 f   libcpmt:winapinls.obj
 0001:000056b0       __security_check_cookie    00000001400066b0 f   LIBCMT:_amdsecgs_.obj
 0001:000056d4       ??_V@YAXPEAX@Z             00000001400066d4 f   LIBCMT:delete_array.obj
 0001:000056d4       ??3@YAXPEAX_K@Z            00000001400066d4 f   LIBCMT:delete_scalar_size.obj
 0001:000056dc       ??2@YAPEAX_K@Z             00000001400066dc f   LIBCMT:new_scalar.obj
 0001:00005718       ??_U@YAPEAX_K@Z            0000000140006718 f   LIBCMT:new_array.obj
 0001:00005978       mainCRTStartup             0000000140006978 f   LIBCMT:exe_main.obj
 0001:0000598c       __scrt_acquire_startup_lock 000000014000698c f   LIBCMT:utility.obj
 0001:000059c8       __scrt_initialize_crt      00000001400069c8 f   LIBCMT:utility.obj
 0001:00005a14       __scrt_initialize_onexit_tables 0000000140006a14 f   LIBCMT:utility.obj
 0001:00005af0       __scrt_is_nonwritable_in_current_image 0000000140006af0 f   LIBCMT:utility.obj
 0001:00005b8c       __scrt_release_startup_lock 0000000140006b8c f   LIBCMT:utility.obj
 0001:00005bb0       __scrt_uninitialize_crt    0000000140006bb0 f   LIBCMT:utility.obj
 0001:00005bdc       _onexit                    0000000140006bdc f   LIBCMT:utility.obj
 0001:00005c2c       atexit                     0000000140006c2c f   LIBCMT:utility.obj
 0001:00005c44       __GSHandlerCheck           0000000140006c44 f   LIBCMT:_gshandler_.obj
 0001:00005c64       __GSHandlerCheckCommon     0000000140006c64 f   LIBCMT:_gshandler_.obj
 0001:00005cc0       __GSHandlerCheck_EH        0000000140006cc0 f   LIBCMT:gshandlereh.obj
 0001:00005d40       ??_Gtype_info@@UEAAPEAXI@Z 0000000140006d40 f i LIBCMT:std_type_info_static.obj
 0001:00005d40       ??_Etype_info@@UEAAPEAXI@Z 0000000140006d40 f i LIBCMT:std_type_info_static.obj
 0001:00005d80       __chkstk                   0000000140006d80 f   LIBCMT:_chkstk_.obj
 0001:00005d80       _alloca_probe              0000000140006d80 f   LIBCMT:_chkstk_.obj
 0001:00005dd4       __raise_securityfailure    0000000140006dd4 f   LIBCMT:gs_report.obj
 0001:00005e08       __report_gsfailure         0000000140006e08 f   LIBCMT:gs_report.obj
 0001:00005edc       __report_rangecheckfailure 0000000140006edc f   LIBCMT:gs_report.obj
 0001:00005ef0       __report_securityfailure   0000000140006ef0 f   LIBCMT:gs_report.obj
 0001:00006070       ??3@YAXPEAX@Z              0000000140007070 f   LIBCMT:delete_scalar.obj
 0001:00006078       ??0bad_array_new_length@std@@QEAA@AEBV01@@Z 0000000140007078 f i LIBCMT:throw_bad_alloc.obj
 0001:000060b8       ??0bad_array_new_length@std@@QEAA@XZ 00000001400070b8 f i LIBCMT:throw_bad_alloc.obj
 0001:000060d8       ?__scrt_throw_std_bad_alloc@@YAXXZ 00000001400070d8 f   LIBCMT:throw_bad_alloc.obj
 0001:000060f8       ?__scrt_throw_std_bad_array_new_length@@YAXXZ 00000001400070f8 f   LIBCMT:throw_bad_alloc.obj
 0001:00006118       __security_init_cookie     0000000140007118 f   LIBCMT:gs_support.obj
 0001:000061c8       _get_startup_file_mode     00000001400071c8 f   LIBCMT:file_mode.obj
 0001:000061d0       ?__scrt_initialize_type_info@@YAXXZ 00000001400071d0 f   LIBCMT:tncleanup.obj
 0001:000061e0       __local_stdio_scanf_options 00000001400071e0 f i LIBCMT:default_local_stdio_options.obj
 0001:000061e8       __scrt_initialize_default_local_stdio_options 00000001400071e8 f   LIBCMT:default_local_stdio_options.obj
 0001:00006204       __scrt_is_user_matherr_present 0000000140007204 f   LIBCMT:matherr_detection.obj
 0001:00006210       __scrt_get_dyn_tls_init_callback 0000000140007210 f   LIBCMT:dyn_tls_init.obj
 0001:00006218       __scrt_get_dyn_tls_dtor_callback 0000000140007218 f   LIBCMT:dyn_tls_dtor.obj
 0001:00006220       __crt_debugger_hook        0000000140007220 f   LIBCMT:utility_desktop.obj
 0001:00006228       __scrt_fastfail            0000000140007228 f   LIBCMT:utility_desktop.obj
 0001:00006374       __scrt_is_managed_app      0000000140007374 f   LIBCMT:utility_desktop.obj
 0001:000063c8       __scrt_set_unhandled_exception_filter 00000001400073c8 f   LIBCMT:utility_desktop.obj
 0001:000063d8       __scrt_unhandled_exception_filter 00000001400073d8 f   LIBCMT:utility_desktop.obj
 0001:00006410       _RTC_Initialize            0000000140007410 f   LIBCMT:_initsect_.obj
 0001:0000644c       _RTC_Terminate             000000014000744c f   LIBCMT:_initsect_.obj
 0001:00006488       __isa_available_init       0000000140007488 f   LIBCMT:_cpu_disp_.obj
 0001:00006644       __scrt_is_ucrt_dll_in_use  0000000140007644 f   LIBCMT:ucrt_detection.obj
 0001:00006650       _purecall                  0000000140007650 f   libvcruntime:purevirt.obj
 0001:00006680       __std_exception_copy       0000000140007680 f   libvcruntime:std_exception.obj
 0001:00006710       __std_exception_destroy    0000000140007710 f   libvcruntime:std_exception.obj
 0001:00006738       _CxxThrowException         0000000140007738 f   libvcruntime:throw.obj
 0001:000067f8       ?_ExecutionInCatch@@YAHPEAU_xDISPATCHER_CONTEXT@@PEBU_s_FuncInfo@@@Z 00000001400077f8 f   libvcruntime:risctrnsctrl.obj
 0001:0000686c       ?_GetEstablisherFrame@@YAPEA_KPEA_KPEAU_xDISPATCHER_CONTEXT@@PEBU_s_FuncInfo@@0@Z 000000014000786c f   libvcruntime:risctrnsctrl.obj
 0001:00006938       ?_GetRangeOfTrysToCheck@@YAPEBU_s_TryBlockMapEntry@@PEA_KPEBU_s_FuncInfo@@HHPEAI2PEAU_xDISPATCHER_CONTEXT@@@Z 0000000140007938 f   libvcruntime:risctrnsctrl.obj
 0001:00006a64       ?__FrameUnwindToEmptyState@@YAXPEA_KPEAU_xDISPATCHER_CONTEXT@@PEBU_s_FuncInfo@@@Z 0000000140007a64 f   libvcruntime:risctrnsctrl.obj
 0001:00006af8       _CallSETranslator          0000000140007af8 f   libvcruntime:risctrnsctrl.obj
 0001:00006b4c       _CreateFrameInfo           0000000140007b4c f   libvcruntime:risctrnsctrl.obj
 0001:00006b88       _FindAndUnlinkFrame        0000000140007b88 f   libvcruntime:risctrnsctrl.obj
 0001:00006bdc       _GetImageBase              0000000140007bdc f   libvcruntime:risctrnsctrl.obj
 0001:00006bf0       _GetThrowImageBase         0000000140007bf0 f   libvcruntime:risctrnsctrl.obj
 0001:00006c04       _SetImageBase              0000000140007c04 f   libvcruntime:risctrnsctrl.obj
 0001:00006c1c       _SetThrowImageBase         0000000140007c1c f   libvcruntime:risctrnsctrl.obj
 0001:00006c34       _UnwindNestedFrames        0000000140007c34 f   libvcruntime:risctrnsctrl.obj
 0001:00006d58       __CxxFrameHandler3         0000000140007d58 f   libvcruntime:risctrnsctrl.obj
 0001:00006df0       memcpy                     0000000140007df0 f   libvcruntime:memcpy.obj
 0001:00006df0       memmove                    0000000140007df0 f   libvcruntime:memcpy.obj
 0001:00007250       memset                     0000000140008250 f   libvcruntime:memset.obj
 0001:00007400       __DestructExceptionObject  0000000140008400 f   libvcruntime:ehhelpers.obj
 0001:00007474       ?_CallMemberFunction0@@YAXQEAX0@Z 0000000140008474 f i libvcruntime:ehhelpers.obj
 0001:00007478       _IsExceptionObjectToBeDestroyed 0000000140008478 f   libvcruntime:ehhelpers.obj
 0001:000074a8       __AdjustPointer            00000001400084a8 f   libvcruntime:ehhelpers.obj
 0001:000074cc       __FrameUnwindFilter        00000001400084cc f   libvcruntime:ehhelpers.obj
 0001:00007518       __std_terminate            0000000140008518 f   libvcruntime:ehhelpers.obj
 0001:00007540       memchr                     0000000140008540 f   libvcruntime:memchr.obj
 0001:000075c0       memcmp                     00000001400085c0 f   libvcruntime:memcmp.obj
 0001:00007688       __C_specific_handler       0000000140008688 f   libvcruntime:_riscchandler_.obj
 0001:00007894       __vcrt_initialize          0000000140008894 f   libvcruntime:initialization.obj
 0001:000078c8       __vcrt_uninitialize        00000001400088c8 f   libvcruntime:initialization.obj
 0001:000078e8       __std_type_info_compare    00000001400088e8 f   libvcruntime:std_type_info.obj
 0001:00007910       __vcrt_initialize_pure_virtual_call_handler 0000000140008910 f   libvcruntime:purevirt_data.obj
 0001:00007920       __vcrt_freefls             0000000140008920 f   libvcruntime:per_thread_data.obj
 0001:00007940       __vcrt_getptd              0000000140008940 f   libvcruntime:per_thread_data.obj
 0001:0000795c       __vcrt_getptd_noexit       000000014000895c f   libvcruntime:per_thread_data.obj
 0001:00007a14       __vcrt_initialize_ptd      0000000140008a14 f   libvcruntime:per_thread_data.obj
 0001:00007a64       __vcrt_uninitialize_ptd    0000000140008a64 f   libvcruntime:per_thread_data.obj
 0001:00007a88       ?__GetCurrentState@@YAHPEA_KPEAU_xDISPATCHER_CONTEXT@@PEBU_s_FuncInfo@@@Z 0000000140008a88 f   libvcruntime:riscehstate.obj
 0001:00007ab0       ?__GetUnwindTryBlock@@YAHPEA_KPEAU_xDISPATCHER_CONTEXT@@PEBU_s_FuncInfo@@@Z 0000000140008ab0 f   libvcruntime:riscehstate.obj
 0001:00007adc       ?__SetState@@YAXPEA_KPEAU_xDISPATCHER_CONTEXT@@PEBU_s_FuncInfo@@H@Z 0000000140008adc f   libvcruntime:riscehstate.obj
 0001:00007ae8       ?__SetUnwindTryBlock@@YAXPEA_KPEAU_xDISPATCHER_CONTEXT@@PEBU_s_FuncInfo@@H@Z 0000000140008ae8 f   libvcruntime:riscehstate.obj
 0001:00007b24       ?__StateFromControlPc@@YAHPEBU_s_FuncInfo@@PEAU_xDISPATCHER_CONTEXT@@@Z 0000000140008b24 f   libvcruntime:riscehstate.obj
 0001:00007b2c       ?__StateFromIp@@YAHPEBU_s_FuncInfo@@PEAU_xDISPATCHER_CONTEXT@@_K@Z 0000000140008b2c f   libvcruntime:riscehstate.obj
 0001:00007b94       ??0bad_exception@std@@QEAA@AEBV01@@Z 0000000140008b94 f i libvcruntime:frame.obj
 0001:00007bd4       ??0bad_exception@std@@QEAA@XZ 0000000140008bd4 f i libvcruntime:frame.obj
 0001:0000851c       ?_CallMemberFunction1@@YAXQEAX00@Z 000000014000951c f i libvcruntime:frame.obj
 0001:00008528       ?_CallMemberFunction2@@YAXQEAX00H@Z 0000000140009528 f i libvcruntime:frame.obj
 0001:00008538       __BuildCatchObject         0000000140009538 f   libvcruntime:frame.obj
 0001:000085f8       __BuildCatchObjectHelper   00000001400095f8 f   libvcruntime:frame.obj
 0001:000087f8       __CxxCallCatchBlock        00000001400097f8 f   libvcruntime:frame.obj
 0001:000089e4       __FrameUnwindToState       00000001400099e4 f   libvcruntime:frame.obj
 0001:00008b78       __InternalCxxFrameHandler  0000000140009b78 f   libvcruntime:frame.obj
 0001:00008dbc       __TypeMatch                0000000140009dbc f   libvcruntime:frame.obj
 0001:00008f10       _local_unwind              0000000140009f10 f   libvcruntime:_jmpuwind_.obj
 0001:00008f40       _NLG_Notify                0000000140009f40 f   libvcruntime:_jmpuwind_.obj
 0001:00008f60       __NLG_Dispatch2            0000000140009f60 f   libvcruntime:_jmpuwind_.obj
 0001:00008f70       __NLG_Return2              0000000140009f70 f   libvcruntime:_jmpuwind_.obj
 0001:00008f74       __except_validate_context_record 0000000140009f74 f   libvcruntime:jbcxrval.obj
 0001:00008fac       __vcrt_initialize_locks    0000000140009fac f   libvcruntime:locks.obj
 0001:00008ff4       __vcrt_uninitialize_locks  0000000140009ff4 f   libvcruntime:locks.obj
 0001:00009204       __vcrt_FlsAlloc            000000014000a204 f   libvcruntime:winapi_downlevel.obj
 0001:0000924c       __vcrt_FlsFree             000000014000a24c f   libvcruntime:winapi_downlevel.obj
 0001:00009294       __vcrt_FlsGetValue         000000014000a294 f   libvcruntime:winapi_downlevel.obj
 0001:000092dc       __vcrt_FlsSetValue         000000014000a2dc f   libvcruntime:winapi_downlevel.obj
 0001:00009330       __vcrt_InitializeCriticalSectionEx 000000014000a330 f   libvcruntime:winapi_downlevel.obj
 0001:00009394       __vcrt_initialize_winapi_thunks 000000014000a394 f   libvcruntime:winapi_downlevel.obj
 0001:000093c4       __vcrt_uninitialize_winapi_thunks 000000014000a3c4 f   libvcruntime:winapi_downlevel.obj
 0001:00009420       _CallSettingFrame          000000014000a420 f   libvcruntime:handlers.obj
 0001:00009460       abort                      000000014000a460 f   libucrt:abort.obj
 0001:000094b8       __acrt_initialize_stdio    000000014000a4b8 f   libucrt:_file.obj
 0001:000095d8       __acrt_iob_func            000000014000a5d8 f   libucrt:_file.obj
 0001:000095ec       __acrt_uninitialize_stdio  000000014000a5ec f   libucrt:_file.obj
 0001:00009648       _get_stream_buffer_pointers 000000014000a648 f   libucrt:_file.obj
 0001:00009690       _lock_file                 000000014000a690 f   libucrt:_file.obj
 0001:0000969c       _unlock_file               000000014000a69c f   libucrt:_file.obj
 0001:000096a8       __acrt_call_reportfault    000000014000a6a8 f   libucrt:invalid_parameter.obj
 0001:00009804       __acrt_initialize_invalid_parameter_handler 000000014000a804 f   libucrt:invalid_parameter.obj
 0001:0000980c       _invalid_parameter         000000014000a80c f   libucrt:invalid_parameter.obj
 0001:000098bc       _invalid_parameter_noinfo  000000014000a8bc f   libucrt:invalid_parameter.obj
 0001:000098dc       _invalid_parameter_noinfo_noreturn 000000014000a8dc f   libucrt:invalid_parameter.obj
 0001:0000990c       _invoke_watson             000000014000a90c f   libucrt:invalid_parameter.obj
 0001:00009994       ??$ensure_buffer_is_big_enough@D@formatting_buffer@__crt_stdio_output@@QEAA_N_K@Z 000000014000a994 f i libucrt:output.obj
 0001:00009a3c       ??$type_case_integer_parse_into_buffer@I@?$output_processor@DV?$stream_output_adapter@D@__crt_stdio_output@@V?$standard_base@DV?$stream_output_adapter@D@__crt_stdio_output@@@2@@__crt_stdio_output@@AEAAXII_N@Z 000000014000aa3c f i libucrt:output.obj
 0001:00009acc       ??$type_case_integer_parse_into_buffer@_K@?$output_processor@DV?$stream_output_adapter@D@__crt_stdio_output@@V?$standard_base@DV?$stream_output_adapter@D@__crt_stdio_output@@@2@@__crt_stdio_output@@AEAAX_KI_N@Z 000000014000aacc f i libucrt:output.obj
 0001:00009b60       ??$write_multiple_characters@V?$stream_output_adapter@D@__crt_stdio_output@@D@__crt_stdio_output@@YAXAEBV?$stream_output_adapter@D@0@DHQEAH@Z 000000014000ab60 f i libucrt:output.obj
 0001:00009bec       ??0_LocaleUpdate@@QEAA@QEAU__crt_locale_pointers@@@Z 000000014000abec f i libucrt:output.obj
 0001:00009c88       ??1_LocaleUpdate@@QEAA@XZ  000000014000ac88 f i libucrt:output.obj
 0001:00009dcc       ?crop_zeroes@__crt_stdio_output@@YAXPEADQEAU__crt_locale_pointers@@@Z 000000014000adcc f i libucrt:output.obj
 0001:00009e38       ?force_decimal_point@__crt_stdio_output@@YAXPEADQEAU__crt_locale_pointers@@@Z 000000014000ae38 f i libucrt:output.obj
 0001:00009ea8       ?parse_int_from_format_string@?$output_processor@DV?$stream_output_adapter@D@__crt_stdio_output@@V?$standard_base@DV?$stream_output_adapter@D@__crt_stdio_output@@@2@@__crt_stdio_output@@AEAA_NQEAH@Z 000000014000aea8 f i libucrt:output.obj
 0001:00009f4c       ?process@?$output_processor@DV?$stream_output_adapter@D@__crt_stdio_output@@V?$standard_base@DV?$stream_output_adapter@D@__crt_stdio_output@@@2@@__crt_stdio_output@@QEAAHXZ 000000014000af4c f i libucrt:output.obj
 0001:0000a160       ?state_case_normal@?$output_processor@DV?$stream_output_adapter@D@__crt_stdio_output@@V?$standard_base@DV?$stream_output_adapter@D@__crt_stdio_output@@@2@@__crt_stdio_output@@AEAA_NXZ 000000014000b160 f i libucrt:output.obj
 0001:0000a1d0       ?state_case_normal_tchar@?$output_processor@DV?$stream_output_adapter@D@__crt_stdio_output@@V?$standard_base@DV?$stream_output_adapter@D@__crt_stdio_output@@@2@@__crt_stdio_output@@AEAA_ND@Z 000000014000b1d0 f i libucrt:output.obj
 0001:0000a26c       ?state_case_size@?$output_processor@DV?$stream_output_adapter@D@__crt_stdio_output@@V?$standard_base@DV?$stream_output_adapter@D@__crt_stdio_output@@@2@@__crt_stdio_output@@AEAA_NXZ 000000014000b26c f i libucrt:output.obj
 0001:0000a3e0       ?state_case_type@?$output_processor@DV?$stream_output_adapter@D@__crt_stdio_output@@V?$standard_base@DV?$stream_output_adapter@D@__crt_stdio_output@@@2@@__crt_stdio_output@@AEAA_NXZ 000000014000b3e0 f i libucrt:output.obj
 0001:0000a670       ?type_case_Z@?$output_processor@DV?$stream_output_adapter@D@__crt_stdio_output@@V?$standard_base@DV?$stream_output_adapter@D@__crt_stdio_output@@@2@@__crt_stdio_output@@AEAA_NXZ 000000014000b670 f i libucrt:output.obj
 0001:0000a6e8       ?type_case_a@?$output_processor@DV?$stream_output_adapter@D@__crt_stdio_output@@V?$standard_base@DV?$stream_output_adapter@D@__crt_stdio_output@@@2@@__crt_stdio_output@@AEAA_NXZ 000000014000b6e8 f i libucrt:output.obj
 0001:0000a8a4       ?type_case_c_tchar@?$output_processor@DV?$stream_output_adapter@D@__crt_stdio_output@@V?$standard_base@DV?$stream_output_adapter@D@__crt_stdio_output@@@2@@__crt_stdio_output@@AEAA_ND@Z 000000014000b8a4 f i libucrt:output.obj
 0001:0000a968       ?type_case_integer@?$output_processor@DV?$stream_output_adapter@D@__crt_stdio_output@@V?$standard_base@DV?$stream_output_adapter@D@__crt_stdio_output@@@2@@__crt_stdio_output@@AEAA_NI_N@Z 000000014000b968 f i libucrt:output.obj
 0001:0000ab30       ?type_case_n@?$output_processor@DV?$stream_output_adapter@D@__crt_stdio_output@@V?$standard_base@DV?$stream_output_adapter@D@__crt_stdio_output@@@2@@__crt_stdio_output@@AEAA_NXZ 000000014000bb30 f i libucrt:output.obj
 0001:0000ac0c       ?type_case_s@?$output_processor@DV?$stream_output_adapter@D@__crt_stdio_output@@V?$standard_base@DV?$stream_output_adapter@D@__crt_stdio_output@@@2@@__crt_stdio_output@@AEAA_NXZ 000000014000bc0c f i libucrt:output.obj
 0001:0000aca4       ?validate_stream_is_ansi_if_required@?$__acrt_stdio_char_traits@D@@SA_NQEAU_iobuf@@@Z 000000014000bca4 f i libucrt:output.obj
 0001:0000ad38       ?write_stored_string_tchar@?$output_processor@DV?$stream_output_adapter@D@__crt_stdio_output@@V?$standard_base@DV?$stream_output_adapter@D@__crt_stdio_output@@@2@@__crt_stdio_output@@AEAA_ND@Z 000000014000bd38 f i libucrt:output.obj
 0001:0000ae5c       ?write_string_impl@?$output_adapter_common@DV?$stream_output_adapter@D@__crt_stdio_output@@@__crt_stdio_output@@IEBAXQEBDHQEAHAEAV__crt_deferred_errno_cache@@@Z 000000014000be5c f i libucrt:output.obj
 0001:0000af54       __stdio_common_vfprintf    000000014000bf54 f   libucrt:output.obj
 0001:0000afe0       free                       000000014000bfe0 f   libucrt:free.obj
 0001:0000aff4       __acrt_initialize_locks    000000014000bff4 f   libucrt:locks.obj
 0001:0000b03c       __acrt_lock                000000014000c03c f   libucrt:locks.obj
 0001:0000b058       __acrt_uninitialize_locks  000000014000c058 f   libucrt:locks.obj
 0001:0000b090       __acrt_unlock              000000014000c090 f   libucrt:locks.obj
 0001:0000b0ac       _lock_locales              000000014000c0ac f   libucrt:locks.obj
 0001:0000b0c8       _unlock_locales            000000014000c0c8 f   libucrt:locks.obj
 0001:0000b0d8       terminate                  000000014000c0d8 f   libucrt:terminate.obj
 0001:0000b0f8       __acrt_errno_from_os_error 000000014000c0f8 f   libucrt:errno.obj
 0001:0000b140       __acrt_errno_map_os_error  000000014000c140 f   libucrt:errno.obj
 0001:0000b190       __doserrno                 000000014000c190 f   libucrt:errno.obj
 0001:0000b1b0       _errno                     000000014000c1b0 f   libucrt:errno.obj
 0001:0000b1d0       _fclose_nolock             000000014000c1d0 f   libucrt:fclose.obj
 0001:0000b254       fclose                     000000014000c254 f   libucrt:fclose.obj
 0001:0000b4d4       __acrt_stdio_flush_nolock  000000014000c4d4 f   libucrt:fflush.obj
 0001:0000b550       _fflush_nolock             000000014000c550 f   libucrt:fflush.obj
 0001:0000b59c       _flushall                  000000014000c59c f   libucrt:fflush.obj
 0001:0000b5a4       fflush                     000000014000c5a4 f   libucrt:fflush.obj
 0001:0000b60c       _fgetc_nolock              000000014000c60c f   libucrt:fgetc.obj
 0001:0000b650       fgetc                      000000014000c650 f   libucrt:fgetc.obj
 0001:0000b748       fgetpos                    000000014000c748 f   libucrt:fgetpos.obj
 0001:0000b794       _fputc_nolock              000000014000c794 f   libucrt:fputc.obj
 0001:0000b7ac       fputc                      000000014000c7ac f   libucrt:fputc.obj
 0001:0000b8c0       fsetpos                    000000014000c8c0 f   libucrt:fsetpos.obj
 0001:0000bb24       _fseeki64                  000000014000cb24 f   libucrt:fseek.obj
 0001:0000bbd0       _fwrite_nolock             000000014000cbd0 f   libucrt:fwrite.obj
 0001:0000bd78       fwrite                     000000014000cd78 f   libucrt:fwrite.obj
 0001:0000bf2c       setvbuf                    000000014000cf2c f   libucrt:setvbuf.obj
 0001:0000bfc8       _ungetc_nolock             000000014000cfc8 f   libucrt:ungetc.obj
 0001:0000c0e0       ungetc                     000000014000d0e0 f   libucrt:ungetc.obj
 0001:0000c138       malloc                     000000014000d138 f   libucrt:malloc.obj
 0001:0000c44c       setlocale                  000000014000d44c f   libucrt:setlocale.obj
 0001:0000c498       calloc                     000000014000d498 f   libucrt:calloc.obj
 0001:0000c4a0       __pctype_func              000000014000d4a0 f   libucrt:ctype.obj
 0001:0000c4d0       isdigit                    000000014000d4d0 f i libucrt:_ctype.obj
 0001:0000c548       islower                    000000014000d548 f i libucrt:_ctype.obj
 0001:0000c5c0       isupper                    000000014000d5c0 f i libucrt:_ctype.obj
 0001:0000c638       _wcsdup                    000000014000d638 f   libucrt:wcsdup.obj
 0001:0000c6bc       ___lc_codepage_func        000000014000d6bc f   libucrt:initctype.obj
 0001:0000c6ec       ___lc_locale_name_func     000000014000d6ec f   libucrt:initctype.obj
 0001:0000c720       __acrt_locale_initialize_ctype 000000014000d720 f   libucrt:initctype.obj
 0001:0000cd80       ?divide@__crt_strtox@@YA_KAEAUbig_integer@1@AEBU21@@Z 000000014000dd80 f i libucrt:strtod.obj
 0001:0000d2a0       pow                        000000014000e2a0 f   libucrt:pow.obj
 0001:0000e940       powf                       000000014000f940 f   libucrt:powf.obj
 0001:0000f808       __strncnt                  0000000140010808 f   libucrt:strncnt.obj
 0001:0000f898       _ismbblead                 0000000140010898 f   libucrt:ismbbyte.obj
 0001:0000f8fc       _tolower_l                 00000001400108fc f   libucrt:tolower_toupper.obj
 0001:0000fa3c       tolower                    0000000140010a3c f   libucrt:tolower_toupper.obj
 0001:0000fa68       wcscpy_s                   0000000140010a68 f   libucrt:wcscpy_s.obj
 0001:0000fae0       strnlen                    0000000140010ae0 f   libucrt:strnlen.obj
 0001:0000fc30       wcsnlen                    0000000140010c30 f   libucrt:strnlen.obj
 0001:0000fe08       __acrt_initialize_new_handler 0000000140010e08 f   libucrt:new_handler.obj
 0001:0000fe10       _callnewh                  0000000140010e10 f   libucrt:new_handler.obj
 0001:0000fe40       _query_new_handler         0000000140010e40 f   libucrt:new_handler.obj
 0001:0000fe74       _seh_filter_exe            0000000140010e74 f   libucrt:exception_filter.obj
 0001:0000ffec       _query_app_type            0000000140010fec f   libucrt:report_runtime_error.obj
 0001:0000fff4       _set_app_type              0000000140010ff4 f   libucrt:report_runtime_error.obj
 0001:0000fffc       __acrt_has_user_matherr    0000000140010ffc f   libucrt:matherr.obj
 0001:0001001c       __acrt_initialize_user_matherr 000000014001101c f   libucrt:matherr.obj
 0001:00010024       __acrt_invoke_user_matherr 0000000140011024 f   libucrt:matherr.obj
 0001:00010054       __setusermatherr           0000000140011054 f   libucrt:matherr.obj
 0001:00010240       __acrt_allocate_buffer_for_argv 0000000140011240 f   libucrt:argv_parsing.obj
 0001:000102a0       _configure_narrow_argv     00000001400112a0 f   libucrt:argv_parsing.obj
 0001:000106ec       __dcrt_get_or_create_narrow_environment_nolock 00000001400116ec f   libucrt:environment_initialization.obj
 0001:00010728       __dcrt_uninitialize_environments_nolock 0000000140011728 f   libucrt:environment_initialization.obj
 0001:00010760       _get_initial_narrow_environment 0000000140011760 f   libucrt:environment_initialization.obj
 0001:000107b0       _initialize_narrow_environment 00000001400117b0 f   libucrt:environment_initialization.obj
 0001:000107b8       _initterm                  00000001400117b8 f   libucrt:initterm.obj
 0001:0001081c       _initterm_e                000000014001181c f   libucrt:initterm.obj
 0001:00010adc       __acrt_initialize_thread_local_exit_callback 0000000140011adc f   libucrt:exit.obj
 0001:00010ae4       _c_exit                    0000000140011ae4 f   libucrt:exit.obj
 0001:00010af4       _cexit                     0000000140011af4 f   libucrt:exit.obj
 0001:00010b04       _exit                      0000000140011b04 f   libucrt:exit.obj
 0001:00010b10       _register_thread_local_exe_atexit_callback 0000000140011b10 f   libucrt:exit.obj
 0001:00010b54       exit                       0000000140011b54 f   libucrt:exit.obj
 0001:00010b60       _set_fmode                 0000000140011b60 f   libucrt:setmode.obj
 0001:00010ba0       __acrt_initialize_command_line 0000000140011ba0 f   libucrt:argv_data.obj
 0001:00010bc8       __p___argc                 0000000140011bc8 f   libucrt:argv_data.obj
 0001:00010bd0       __p___argv                 0000000140011bd0 f   libucrt:argv_data.obj
 0001:00010e40       __acrt_copy_locale_name    0000000140011e40 f   libucrt:wsetlocale.obj
 0001:00010ec4       __acrt_set_locale_changed  0000000140011ec4 f   libucrt:wsetlocale.obj
 0001:00010ed0       __acrt_uninitialize_locale 0000000140011ed0 f   libucrt:wsetlocale.obj
 0001:00010f00       __lc_lctowcs               0000000140011f00 f   libucrt:wsetlocale.obj
 0001:00010fa4       __lc_wcstolc               0000000140011fa4 f   libucrt:wsetlocale.obj
 0001:00011164       _configthreadlocale        0000000140012164 f   libucrt:wsetlocale.obj
 0001:00011290       _expandlocale              0000000140012290 f   libucrt:wsetlocale.obj
 0001:00011718       _wcscats                   0000000140012718 f   libucrt:wsetlocale.obj
 0001:00011780       _wsetlocale                0000000140012780 f   libucrt:wsetlocale.obj
 0001:00011fec       _query_new_mode            0000000140012fec f   libucrt:new_mode.obj
 0001:00011ff4       _set_new_mode              0000000140012ff4 f   libucrt:new_mode.obj
 0001:00012020       __p__commode               0000000140013020 f   libucrt:ncommode.obj
 0001:000123b0       _crt_atexit                00000001400133b0 f   libucrt:onexit.obj
 0001:000123c0       _execute_onexit_table      00000001400133c0 f   libucrt:onexit.obj
 0001:000123fc       _initialize_onexit_table   00000001400133fc f   libucrt:onexit.obj
 0001:0001243c       _register_onexit_function  000000014001343c f   libucrt:onexit.obj
 0001:000125c4       __acrt_initialize          00000001400135c4 f   libucrt:initialization.obj
 0001:000125d8       __acrt_uninitialize        00000001400135d8 f   libucrt:initialization.obj
 0001:00012610       strcpy_s                   0000000140013610 f   libucrt:strcpy_s.obj
 0001:00012680       wcsncmp                    0000000140013680 f   libucrt:wcsncmp.obj
 0001:000126ac       ??$parse_integer@KV?$c_string_character_source@D@__crt_strtox@@@__crt_strtox@@YAKQEAU__crt_locale_pointers@@V?$c_string_character_source@D@0@H_N@Z 00000001400136ac f i libucrt:atox.obj
 0001:000129e8       ??$parse_integer@KV?$c_string_character_source@_W@__crt_strtox@@@__crt_strtox@@YAKQEAU__crt_locale_pointers@@V?$c_string_character_source@_W@0@H_N@Z 00000001400139e8 f i libucrt:atox.obj
 0001:0001309c       _wtol                      000000014001409c f   libucrt:atox.obj
 0001:000130e0       strncmp                    00000001400140e0 f   libucrt:strncmp.obj
 0001:000131a8       __acrt_get_sigabrt_handler 00000001400141a8 f   libucrt:signal.obj
 0001:000131d8       __acrt_initialize_signal_handlers 00000001400141d8 f   libucrt:signal.obj
 0001:000131f8       raise                      00000001400141f8 f   libucrt:signal.obj
 0001:00013478       _calloc_base               0000000140014478 f   libucrt:calloc_base.obj
 0001:000134f0       _free_base                 00000001400144f0 f   libucrt:free_base.obj
 0001:000137d4       __acrt_AppPolicyGetProcessTerminationMethodInternal 00000001400147d4 f   libucrt:winapi_thunks.obj
 0001:00013824       __acrt_CompareStringEx     0000000140014824 f   libucrt:winapi_thunks.obj
 0001:00013900       __acrt_EnumSystemLocalesEx 0000000140014900 f   libucrt:winapi_thunks.obj
 0001:00013998       __acrt_FlsAlloc            0000000140014998 f   libucrt:winapi_thunks.obj
 0001:000139e0       __acrt_FlsFree             00000001400149e0 f   libucrt:winapi_thunks.obj
 0001:00013a28       __acrt_FlsGetValue         0000000140014a28 f   libucrt:winapi_thunks.obj
 0001:00013a70       __acrt_FlsSetValue         0000000140014a70 f   libucrt:winapi_thunks.obj
 0001:00013ac4       __acrt_GetLocaleInfoEx     0000000140014ac4 f   libucrt:winapi_thunks.obj
 0001:00013b48       __acrt_GetUserDefaultLocaleName 0000000140014b48 f   libucrt:winapi_thunks.obj
 0001:00013bac       __acrt_InitializeCriticalSectionEx 0000000140014bac f   libucrt:winapi_thunks.obj
 0001:00013c10       __acrt_IsValidLocaleName   0000000140014c10 f   libucrt:winapi_thunks.obj
 0001:00013c68       __acrt_LCIDToLocaleName    0000000140014c68 f   libucrt:winapi_thunks.obj
 0001:00013cd8       __acrt_LCMapStringEx       0000000140014cd8 f   libucrt:winapi_thunks.obj
 0001:00013db4       __acrt_LocaleNameToLCID    0000000140014db4 f   libucrt:winapi_thunks.obj
 0001:00013e04       __acrt_can_use_vista_locale_apis 0000000140014e04 f   libucrt:winapi_thunks.obj
 0001:00013e34       __acrt_eagerly_load_locale_apis 0000000140014e34 f   libucrt:winapi_thunks.obj
 0001:00013f90       __acrt_initialize_winapi_thunks 0000000140014f90 f   libucrt:winapi_thunks.obj
 0001:00013fd8       __acrt_uninitialize_winapi_thunks 0000000140014fd8 f   libucrt:winapi_thunks.obj
 0001:0001401c       _fcloseall                 000000014001501c f   libucrt:closeall.obj
 0001:000140d0       __acrt_stdio_free_buffer_nolock 00000001400150d0 f   libucrt:_freebuf.obj
 0001:000142f8       __acrt_initialize_lowio    00000001400152f8 f   libucrt:ioinit.obj
 0001:00014334       __acrt_uninitialize_lowio  0000000140015334 f   libucrt:ioinit.obj
 0001:000146ec       __acrt_getptd              00000001400156ec f   libucrt:per_thread_data.obj
 0001:000147b0       __acrt_getptd_head         00000001400157b0 f   libucrt:per_thread_data.obj
 0001:00014858       __acrt_getptd_noexit       0000000140015858 f   libucrt:per_thread_data.obj
 0001:00014910       __acrt_initialize_ptd      0000000140015910 f   libucrt:per_thread_data.obj
 0001:0001494c       __acrt_uninitialize_ptd    000000014001594c f   libucrt:per_thread_data.obj
 0001:00014970       _malloc_base               0000000140015970 f   libucrt:malloc_base.obj
 0001:000149d0       strtol                     00000001400159d0 f   libucrt:strtox.obj
 0001:000149fc       _mbtowc_l                  00000001400159fc f   libucrt:mbtowc.obj
 0001:00014b78       mbtowc                     0000000140015b78 f   libucrt:mbtowc.obj
 0001:00014b80       _wctomb_s_l                0000000140015b80 f   libucrt:wctomb.obj
 0001:00014d04       wctomb_s                   0000000140015d04 f   libucrt:wctomb.obj
 0001:00014d18       __acrt_update_locale_info  0000000140015d18 f   libucrt:locale_update.obj
 0001:00014d4c       __acrt_update_multibyte_info 0000000140015d4c f   libucrt:locale_update.obj
 0001:00015750       __acrt_fp_format           0000000140016750 f   libucrt:cvt.obj
 0001:000159d8       _fileno                    00000001400169d8 f   libucrt:fileno.obj
 0001:00015a00       _get_printf_count_output   0000000140016a00 f   libucrt:printf_count_output.obj
 0001:00015a18       __acrt_stdio_begin_temporary_buffering_nolock 0000000140016a18 f   libucrt:_sftbuf.obj
 0001:00015ae8       __acrt_stdio_end_temporary_buffering_nolock 0000000140016ae8 f   libucrt:_sftbuf.obj
 0001:00015b98       _close                     0000000140016b98 f   libucrt:close.obj
 0001:00015c3c       _close_nolock              0000000140016c3c f   libucrt:close.obj
 0001:00015cf8       ?__acrt_stdio_free_stream@@YAXV__crt_stdio_stream@@@Z 0000000140016cf8 f   libucrt:stream.obj
 0001:00015da0       _commit                    0000000140016da0 f   libucrt:commit.obj
 0001:000163dc       _write                     00000001400173dc f   libucrt:write.obj
 0001:000164c8       _write_nolock              00000001400174c8 f   libucrt:write.obj
 0001:000167a8       __acrt_stdio_refill_and_read_narrow_nolock 00000001400177a8 f   libucrt:_filbuf.obj
 0001:00016de4       _ftelli64                  0000000140017de4 f   libucrt:ftell.obj
 0001:00016dec       _ftelli64_nolock           0000000140017dec f   libucrt:ftell.obj
 0001:00016ed4       __acrt_stdio_flush_and_write_narrow_nolock 0000000140017ed4 f   libucrt:_flsbuf.obj
 0001:00017148       _lseeki64                  0000000140018148 f   libucrt:lseek.obj
 0001:00017150       _lseeki64_nolock           0000000140018150 f   libucrt:lseek.obj
 0001:00017158       __acrt_stdio_allocate_buffer_nolock 0000000140018158 f   libucrt:_getbuf.obj
 0001:000173c4       _mbstowcs_l                00000001400183c4 f   libucrt:mbstowcs.obj
 0001:000173cc       _mbstowcs_s_l              00000001400183cc f   libucrt:mbstowcs.obj
 0001:00017500       mbstowcs                   0000000140018500 f   libucrt:mbstowcs.obj
 0001:0001751c       mbstowcs_s                 000000014001851c f   libucrt:mbstowcs.obj
 0001:000178a4       _wcstombs_l                00000001400188a4 f   libucrt:wcstombs.obj
 0001:000178ac       _wcstombs_s_l              00000001400188ac f   libucrt:wcstombs.obj
 0001:00017998       _isctype_l                 0000000140018998 f   libucrt:isctype.obj
 0001:00017c28       __acrt_GetLocaleInfoA      0000000140018c28 f   libucrt:getlocaleinfoa.obj
 0001:00017df0       __acrt_GetStringTypeA      0000000140018df0 f   libucrt:getstringtypea.obj
 0001:00018298       __acrt_LCMapStringA        0000000140019298 f   libucrt:lcmapstringa.obj
 0001:00018330       _realloc_base              0000000140019330 f   libucrt:realloc_base.obj
 0001:000183ac       iswctype                   00000001400193ac f   libucrt:iswctype.obj
 0001:0001841c       _raise_exc                 000000014001941c f   libucrt:fpexcept.obj
 0001:00018444       _raise_exc_ex              0000000140019444 f   libucrt:fpexcept.obj
 0001:00018754       _raise_excf                0000000140019754 f   libucrt:fpexcept.obj
 0001:00018780       _set_errno_from_matherr    0000000140019780 f   libucrt:fpexcept.obj
 0001:000187b0       _clrfp                     00000001400197b0 f   libucrt:fpctrl.obj
 0001:000187d0       _ctrlfp                    00000001400197d0 f   libucrt:fpctrl.obj
 0001:0001884c       _set_statfp                000000014001984c f   libucrt:fpctrl.obj
 0001:0001886c       _statfp                    000000014001986c f   libucrt:fpctrl.obj
 0001:00018880       __acrt_initialize_fma3     0000000140019880 f   libucrt:fma3_available.obj
 0001:000188f0       _pow_special               00000001400198f0 f   libucrt:pow_special.obj
 0001:00018a14       _powf_special              0000000140019a14 f   libucrt:pow_special.obj
 0001:00018ba0       __acrt_MultiByteToWideChar 0000000140019ba0 f   libucrt:multibytetowidechar.obj
 0001:00018bfc       __acrt_WideCharToMultiByte 0000000140019bfc f   libucrt:widechartomultibyte.obj
 0001:00018c94       _wcsicmp                   0000000140019c94 f   libucrt:wcsicmp.obj
 0001:00018d2c       _wcsicmp_l                 0000000140019d2c f   libucrt:wcsicmp.obj
 0001:00018e2c       __acrt_initialize_timeset  0000000140019e2c f   libucrt:timeset.obj
 0001:00018e70       _isleadbyte_l              0000000140019e70 f i libucrt:_wctype.obj
 0001:00018eb0       wcscat_s                   0000000140019eb0 f   libucrt:wcscat_s.obj
 0001:00018f3c       wcsncpy_s                  0000000140019f3c f   libucrt:wcsncpy_s.obj
 0001:00019598       __acrt_expand_narrow_argv_wildcards 000000014001a598 f   libucrt:argv_wildcards.obj
 0001:000195a0       __acrt_GetModuleFileNameA  000000014001a5a0 f   libucrt:getmodulefilenamea.obj
 0001:00019d48       __acrt_initialize_multibyte 000000014001ad48 f   libucrt:mbctype.obj
 0001:00019da8       __acrt_update_thread_multibyte_data 000000014001ada8 f   libucrt:mbctype.obj
 0001:00019dc4       _setmbcp_nolock            000000014001adc4 f   libucrt:mbctype.obj
 0001:0001a07c       __dcrt_get_narrow_environment_from_os 000000014001b07c f   libucrt:get_environment_from_os.obj
 0001:0001a58c       __dcrt_set_variable_in_narrow_environment_nolock 000000014001b58c f   libucrt:setenv.obj
 0001:0001a594       __acrt_get_process_end_policy 000000014001b594 f   libucrt:win_policies.obj
 0001:0001a5d0       __acrt_lowio_create_handle_array 000000014001b5d0 f   libucrt:osfinfo.obj
 0001:0001a668       __acrt_lowio_destroy_handle_array 000000014001b668 f   libucrt:osfinfo.obj
 0001:0001a6b8       __acrt_lowio_ensure_fh_exists 000000014001b6b8 f   libucrt:osfinfo.obj
 0001:0001a760       __acrt_lowio_lock_fh       000000014001b760 f   libucrt:osfinfo.obj
 0001:0001a784       __acrt_lowio_unlock_fh     000000014001b784 f   libucrt:osfinfo.obj
 0001:0001a7a8       _free_osfhnd               000000014001b7a8 f   libucrt:osfinfo.obj
 0001:0001a864       _get_osfhandle             000000014001b864 f   libucrt:osfinfo.obj
 0001:0001a8dc       __acrt_locale_free_monetary 000000014001b8dc f   libucrt:initmon.obj
 0001:0001a9e8       __acrt_locale_initialize_monetary 000000014001b9e8 f   libucrt:initmon.obj
 0001:0001af1c       __acrt_locale_free_numeric 000000014001bf1c f   libucrt:initnum.obj
 0001:0001af88       __acrt_locale_initialize_numeric 000000014001bf88 f   libucrt:initnum.obj
 0001:0001b604       __acrt_locale_free_time    000000014001c604 f   libucrt:inittime.obj
 0001:0001b70c       __acrt_locale_initialize_time 000000014001c70c f   libucrt:inittime.obj
 0001:0001b7a8       wcscspn                    000000014001c7a8 f   libucrt:wcscspn.obj
 0001:0001b7e8       wcspbrk                    000000014001c7e8 f   libucrt:wcspbrk.obj
 0001:0001b81c       __acrt_add_locale_ref      000000014001c81c f   libucrt:locale_refcounting.obj
 0001:0001b8a8       __acrt_free_locale         000000014001c8a8 f   libucrt:locale_refcounting.obj
 0001:0001ba20       __acrt_locale_add_lc_time_reference 000000014001ca20 f   libucrt:locale_refcounting.obj
 0001:0001ba48       __acrt_locale_free_lc_time_if_unreferenced 000000014001ca48 f   libucrt:locale_refcounting.obj
 0001:0001ba80       __acrt_locale_release_lc_time_reference 000000014001ca80 f   libucrt:locale_refcounting.obj
 0001:0001baa8       __acrt_release_locale_ref  000000014001caa8 f   libucrt:locale_refcounting.obj
 0001:0001bb50       __acrt_update_thread_locale_data 000000014001cb50 f   libucrt:locale_refcounting.obj
 0001:0001bbc0       _updatetlocinfoEx_nolock   000000014001cbc0 f   libucrt:locale_refcounting.obj
 0001:0001c4b4       __acrt_get_qualified_locale 000000014001d4b4 f   libucrt:get_qualified_locale.obj
 0001:0001cef8       __acrt_get_qualified_locale_downlevel 000000014001def8 f   libucrt:getqloc_downlevel.obj
 0001:0001d178       _recalloc                  000000014001e178 f   libucrt:recalloc.obj
 0001:0001d180       _recalloc_base             000000014001e180 f   libucrt:recalloc.obj
 0001:0001d218       __acrt_initialize_heap     000000014001e218 f   libucrt:heap_handle.obj
 0001:0001d234       __acrt_uninitialize_heap   000000014001e234 f   libucrt:heap_handle.obj
 0001:0001d240       __acrt_execute_initializers 000000014001e240 f   libucrt:shared_initialization.obj
 0001:0001d2c0       __acrt_execute_uninitializers 000000014001e2c0 f   libucrt:shared_initialization.obj
 0001:0001d3e4       __acrt_DownlevelLCIDToLocaleName 000000014001e3e4 f   libucrt:lcidtoname_downlevel.obj
 0001:0001d4cc       __acrt_DownlevelLocaleNameToLCID 000000014001e4cc f   libucrt:lcidtoname_downlevel.obj
 0001:0001d500       ?__mbrtowc_utf8@__crt_mbstring@@YA_KPEA_WPEBD_KPEAU_Mbstatet@@@Z 000000014001e500 f   libucrt:mbrtowc.obj
 0001:0001d53c       ?__mbsrtowcs_utf8@__crt_mbstring@@YA_KPEA_WPEAPEBD_KPEAU_Mbstatet@@@Z 000000014001e53c f   libucrt:mbrtowc.obj
 0001:0001d6b4       __acrt_fp_strflt_to_string 000000014001e6b4 f   libucrt:_fptostr.obj
 0001:0001d798       __acrt_fltout              000000014001e798 f   libucrt:cfout.obj
 0001:0001ea70       _isatty                    000000014001fa70 f   libucrt:isatty.obj
 0001:0001ead0       _putwch_nolock             000000014001fad0 f   libucrt:putwch.obj
 0001:0001f0ec       _read                      00000001400200ec f   libucrt:read.obj
 0001:0001f208       _read_nolock               0000000140020208 f   libucrt:read.obj
 0001:0001f664       ?__wcsrtombs_utf8@__crt_mbstring@@YA_KPEADPEAPEB_W_KPEAU_Mbstatet@@@Z 0000000140020664 f   libucrt:wcrtomb.obj
 0001:0001f780       strncpy_s                  0000000140020780 f   libucrt:strncpy_s.obj
 0001:0001f868       __acrt_GetStringTypeW      0000000140020868 f   libucrt:getstringtypew.obj
 0001:0001f870       __acrt_fenv_get_control    0000000140020870 f   libucrt:_fenvutils.obj
 0001:0001f970       __acrt_fenv_get_status     0000000140020970 f   libucrt:_fenvutils.obj
 0001:0001f9c8       __acrt_fenv_set_control    00000001400209c8 f   libucrt:_fenvutils.obj
 0001:0001fb10       __acrt_fenv_set_status     0000000140020b10 f   libucrt:_fenvutils.obj
 0001:0001fbb0       _get_fpsr                  0000000140020bb0 f   libucrt:fpsr.obj
 0001:0001fbc0       _set_fpsr                  0000000140020bc0 f   libucrt:fpsr.obj
 0001:0001fbca       _fclrf                     0000000140020bca f   libucrt:fpsr.obj
 0001:0001fbde       _frnd                      0000000140020bde f   libucrt:fpsr.obj
 0001:0001fd24       _handle_error              0000000140020d24 f   libucrt:libm_error.obj
 0001:0001fe4c       _handle_errorf             0000000140020e4c f   libucrt:libm_error.obj
 0001:0001ff80       _handle_nan                0000000140020f80 f   libucrt:libm_error.obj
 0001:0001ff9c       _handle_nanf               0000000140020f9c f   libucrt:libm_error.obj
 0001:0001ffac       _towlower_l                0000000140020fac f   libucrt:towlower.obj
 0001:00020070       qsort                      0000000140021070 f   libucrt:qsort.obj
 0001:000204c0       strpbrk                    00000001400214c0 f   libucrt:strpbrk.obj
 0001:000208a0       ??$__acrt_convert_wcs_mbs@D_W$$A6A_KPEA_WPEBD_KPEAU__crt_locale_pointers@@@ZU__crt_win32_buffer_internal_dynamic_resizing@@@@YAHQEBDAEAV?$__crt_win32_buffer@_WU__crt_win32_buffer_internal_dynamic_resizing@@@@A6A_KPEA_WPEBD_KPEAU__crt_locale_pointers@@@Z5@Z 00000001400218a0 f i libucrt:findfirstfileexa.obj
 0001:000209a8       __acrt_FindFirstFileExA    00000001400219a8 f   libucrt:findfirstfileexa.obj
 0001:00020a4c       ??$__acrt_convert_wcs_mbs@_WD$$A6A_KPEADPEB_W_KPEAU__crt_locale_pointers@@@ZU__crt_win32_buffer_no_resizing@@@@YAHQEB_WAEAV?$__crt_win32_buffer@DU__crt_win32_buffer_no_resizing@@@@A6A_KPEADPEB_W_KPEAU__crt_locale_pointers@@@Z5@Z 0000000140021a4c f i libucrt:findnextfilea.obj
 0001:00020b18       __acrt_FindNextFileA       0000000140021b18 f   libucrt:findnextfilea.obj
 0001:00020c4c       _mbsdec                    0000000140021c4c f   libucrt:mbsdec.obj
 0001:00020c54       _mbsdec_l                  0000000140021c54 f   libucrt:mbsdec.obj
 0001:00020d00       _strnicoll                 0000000140021d00 f   libucrt:strnicol.obj
 0001:00020d18       _strnicoll_l               0000000140021d18 f   libucrt:strnicol.obj
 0001:00020e18       __acrt_SetEnvironmentVariableA 0000000140021e18 f   libucrt:setenvironmentvariablea.obj
 0001:00021048       _itow_s                    0000000140022048 f   libucrt:xtoa.obj
 0001:00021068       _wcsnicmp                  0000000140022068 f   libucrt:wcsnicmp.obj
 0001:00021114       _wcsnicmp_l                0000000140022114 f   libucrt:wcsnicmp.obj
 0001:0002123c       wcscmp                     000000014002223c f   libucrt:wcscmp.obj
 0001:00021274       _msize                     0000000140022274 f   libucrt:msize.obj
 0001:0002127c       _msize_base                000000014002227c f   libucrt:msize.obj
 0001:000212b8       ?__mbrtoc32_utf8@__crt_mbstring@@YA_KPEA_UPEBD_KPEAU_Mbstatet@@@Z 00000001400222b8 f   libucrt:mbrtoc32.obj
 0001:00021494       fegetenv                   0000000140022494 f   libucrt:fegetenv.obj
 0001:000214b4       fesetenv                   00000001400224b4 f   libucrt:fesetenv.obj
 0001:00021504       feholdexcept               0000000140022504 f   libucrt:feholdexcept.obj
 0001:00021554       ceil                       0000000140022554 f   libucrt:ceil.obj
 0001:00021620       log10                      0000000140022620 f   libucrt:log10.obj
 0001:00021bcc       __dcrt_lowio_ensure_console_output_initialized 0000000140022bcc f   libucrt:initcon.obj
 0001:00021c20       __dcrt_terminate_console_output 0000000140022c20 f   libucrt:initcon.obj
 0001:00021c3c       __dcrt_write_console       0000000140022c3c f   libucrt:initcon.obj
 0001:00021cfc       ?__c16rtomb_utf8@__crt_mbstring@@YA_KPEAD_SPEAU_Mbstatet@@@Z 0000000140022cfc f   libucrt:c16rtomb.obj
 0001:00021da4       __acrt_LCMapStringW        0000000140022da4 f   libucrt:lcmapstringw.obj
 0001:00021e2c       __ascii_strnicmp           0000000140022e2c f   libucrt:strnicmp.obj
 0001:00021e88       _strnicmp                  0000000140022e88 f   libucrt:strnicmp.obj
 0001:00021ed8       _strnicmp_l                0000000140022ed8 f   libucrt:strnicmp.obj
 0001:00022300       __acrt_CompareStringA      0000000140023300 f   libucrt:comparestringa.obj
 0001:0002238c       _clearfp                   000000014002338c f   libucrt:ieee.obj
 0001:00022400       _log10_special             0000000140023400 f   libucrt:log_special.obj
 0001:000224b8       ?__c32rtomb_utf8@__crt_mbstring@@YA_KPEAD_UPEAU_Mbstatet@@@Z 00000001400234b8 f   libucrt:c32rtomb.obj
 0001:00022570       c32rtomb                   0000000140023570 f   libucrt:c32rtomb.obj
 0001:00022575       IsProcessorFeaturePresent  0000000140023575 f   kernel32:KERNEL32.dll
 0001:0002257b       RtlUnwindEx                000000014002357b f   kernel32:KERNEL32.dll
 0001:00022590       _FindPESection             0000000140023590 f   LIBCMT:pesect.obj
 0001:000225e0       _IsNonwritableInCurrentImage 00000001400235e0 f   LIBCMT:pesect.obj
 0001:00022630       _ValidateImageBase         0000000140023630 f   LIBCMT:pesect.obj
 0001:00022660       strrchr                    0000000140023660 f   libvcruntime:strrchr.obj
 0001:000227ac       strchr                     00000001400237ac f   libvcruntime:strchr.obj
 0001:00022838       wcschr                     0000000140023838 f   libvcruntime:wcschr.obj
 0001:000228e0       _guard_dispatch_icall_nop  00000001400238e0 f   LIBCMT:_guard_dispatch_.obj
 0002:00000000       __imp_ReadFile             0000000140024000     kernel32:KERNEL32.dll
 0002:00000008       __imp_WriteFile            0000000140024008     kernel32:KERNEL32.dll
 0002:00000010       __imp_PurgeComm            0000000140024010     kernel32:KERNEL32.dll
 0002:00000018       __imp_Sleep                0000000140024018     kernel32:KERNEL32.dll
 0002:00000020       __imp_GetLastError         0000000140024020     kernel32:KERNEL32.dll
 0002:00000028       __imp_CreateFileA          0000000140024028     kernel32:KERNEL32.dll
 0002:00000030       __imp_GetCommState         0000000140024030     kernel32:KERNEL32.dll
 0002:00000038       __imp_CloseHandle          0000000140024038     kernel32:KERNEL32.dll
 0002:00000040       __imp_ClearCommError       0000000140024040     kernel32:KERNEL32.dll
 0002:00000048       __imp_SetCommState         0000000140024048     kernel32:KERNEL32.dll
 0002:00000050       __imp_CreateFileW          0000000140024050     kernel32:KERNEL32.dll
 0002:00000058       __imp_WideCharToMultiByte  0000000140024058     kernel32:KERNEL32.dll
 0002:00000060       __imp_EnterCriticalSection 0000000140024060     kernel32:KERNEL32.dll
 0002:00000068       __imp_LeaveCriticalSection 0000000140024068     kernel32:KERNEL32.dll
 0002:00000070       __imp_DeleteCriticalSection 0000000140024070     kernel32:KERNEL32.dll
 0002:00000078       __imp_SetLastError         0000000140024078     kernel32:KERNEL32.dll
 0002:00000080       __imp_InitializeCriticalSectionAndSpinCount 0000000140024080     kernel32:KERNEL32.dll
 0002:00000088       __imp_SwitchToThread       0000000140024088     kernel32:KERNEL32.dll
 0002:00000090       __imp_TlsAlloc             0000000140024090     kernel32:KERNEL32.dll
 0002:00000098       __imp_TlsGetValue          0000000140024098     kernel32:KERNEL32.dll
 0002:000000a0       __imp_TlsSetValue          00000001400240a0     kernel32:KERNEL32.dll
 0002:000000a8       __imp_TlsFree              00000001400240a8     kernel32:KERNEL32.dll
 0002:000000b0       __imp_GetSystemTimeAsFileTime 00000001400240b0     kernel32:KERNEL32.dll
 0002:000000b8       __imp_GetModuleHandleW     00000001400240b8     kernel32:KERNEL32.dll
 0002:000000c0       __imp_GetProcAddress       00000001400240c0     kernel32:KERNEL32.dll
 0002:000000c8       __imp_EncodePointer        00000001400240c8     kernel32:KERNEL32.dll
 0002:000000d0       __imp_DecodePointer        00000001400240d0     kernel32:KERNEL32.dll
 0002:000000d8       __imp_MultiByteToWideChar  00000001400240d8     kernel32:KERNEL32.dll
 0002:000000e0       __imp_CompareStringW       00000001400240e0     kernel32:KERNEL32.dll
 0002:000000e8       __imp_LCMapStringW         00000001400240e8     kernel32:KERNEL32.dll
 0002:000000f0       __imp_GetLocaleInfoW       00000001400240f0     kernel32:KERNEL32.dll
 0002:000000f8       __imp_GetStringTypeW       00000001400240f8     kernel32:KERNEL32.dll
 0002:00000100       __imp_GetCPInfo            0000000140024100     kernel32:KERNEL32.dll
 0002:00000108       __imp_RtlCaptureContext    0000000140024108     kernel32:KERNEL32.dll
 0002:00000110       __imp_RtlLookupFunctionEntry 0000000140024110     kernel32:KERNEL32.dll
 0002:00000118       __imp_RtlVirtualUnwind     0000000140024118     kernel32:KERNEL32.dll
 0002:00000120       __imp_UnhandledExceptionFilter 0000000140024120     kernel32:KERNEL32.dll
 0002:00000128       __imp_SetUnhandledExceptionFilter 0000000140024128     kernel32:KERNEL32.dll
 0002:00000130       __imp_GetCurrentProcess    0000000140024130     kernel32:KERNEL32.dll
 0002:00000138       __imp_TerminateProcess     0000000140024138     kernel32:KERNEL32.dll
 0002:00000140       __imp_IsProcessorFeaturePresent 0000000140024140     kernel32:KERNEL32.dll
 0002:00000148       __imp_QueryPerformanceCounter 0000000140024148     kernel32:KERNEL32.dll
 0002:00000150       __imp_GetCurrentProcessId  0000000140024150     kernel32:KERNEL32.dll
 0002:00000158       __imp_GetCurrentThreadId   0000000140024158     kernel32:KERNEL32.dll
 0002:00000160       __imp_InitializeSListHead  0000000140024160     kernel32:KERNEL32.dll
 0002:00000168       __imp_IsDebuggerPresent    0000000140024168     kernel32:KERNEL32.dll
 0002:00000170       __imp_GetStartupInfoW      0000000140024170     kernel32:KERNEL32.dll
 0002:00000178       __imp_RtlPcToFileHeader    0000000140024178     kernel32:KERNEL32.dll
 0002:00000180       __imp_RaiseException       0000000140024180     kernel32:KERNEL32.dll
 0002:00000188       __imp_RtlUnwindEx          0000000140024188     kernel32:KERNEL32.dll
 0002:00000190       __imp_FreeLibrary          0000000140024190     kernel32:KERNEL32.dll
 0002:00000198       __imp_LoadLibraryExW       0000000140024198     kernel32:KERNEL32.dll
 0002:000001a0       __imp_GetStdHandle         00000001400241a0     kernel32:KERNEL32.dll
 0002:000001a8       __imp_GetModuleFileNameW   00000001400241a8     kernel32:KERNEL32.dll
 0002:000001b0       __imp_ExitProcess          00000001400241b0     kernel32:KERNEL32.dll
 0002:000001b8       __imp_GetModuleHandleExW   00000001400241b8     kernel32:KERNEL32.dll
 0002:000001c0       __imp_GetCommandLineA      00000001400241c0     kernel32:KERNEL32.dll
 0002:000001c8       __imp_GetCommandLineW      00000001400241c8     kernel32:KERNEL32.dll
 0002:000001d0       __imp_HeapAlloc            00000001400241d0     kernel32:KERNEL32.dll
 0002:000001d8       __imp_HeapFree             00000001400241d8     kernel32:KERNEL32.dll
 0002:000001e0       __imp_IsValidLocale        00000001400241e0     kernel32:KERNEL32.dll
 0002:000001e8       __imp_GetUserDefaultLCID   00000001400241e8     kernel32:KERNEL32.dll
 0002:000001f0       __imp_EnumSystemLocalesW   00000001400241f0     kernel32:KERNEL32.dll
 0002:000001f8       __imp_GetFileType          00000001400241f8     kernel32:KERNEL32.dll
 0002:00000200       __imp_FlushFileBuffers     0000000140024200     kernel32:KERNEL32.dll
 0002:00000208       __imp_GetConsoleCP         0000000140024208     kernel32:KERNEL32.dll
 0002:00000210       __imp_GetConsoleMode       0000000140024210     kernel32:KERNEL32.dll
 0002:00000218       __imp_SetFilePointerEx     0000000140024218     kernel32:KERNEL32.dll
 0002:00000220       __imp_HeapReAlloc          0000000140024220     kernel32:KERNEL32.dll
 0002:00000228       __imp_FindClose            0000000140024228     kernel32:KERNEL32.dll
 0002:00000230       __imp_FindFirstFileExW     0000000140024230     kernel32:KERNEL32.dll
 0002:00000238       __imp_FindNextFileW        0000000140024238     kernel32:KERNEL32.dll
 0002:00000240       __imp_IsValidCodePage      0000000140024240     kernel32:KERNEL32.dll
 0002:00000248       __imp_GetACP               0000000140024248     kernel32:KERNEL32.dll
 0002:00000250       __imp_GetOEMCP             0000000140024250     kernel32:KERNEL32.dll
 0002:00000258       __imp_GetEnvironmentStringsW 0000000140024258     kernel32:KERNEL32.dll
 0002:00000260       __imp_FreeEnvironmentStringsW 0000000140024260     kernel32:KERNEL32.dll
 0002:00000268       __imp_SetEnvironmentVariableW 0000000140024268     kernel32:KERNEL32.dll
 0002:00000270       __imp_SetStdHandle         0000000140024270     kernel32:KERNEL32.dll
 0002:00000278       __imp_GetProcessHeap       0000000140024278     kernel32:KERNEL32.dll
 0002:00000280       __imp_ReadConsoleW         0000000140024280     kernel32:KERNEL32.dll
 0002:00000288       __imp_HeapSize             0000000140024288     kernel32:KERNEL32.dll
 0002:00000290       __imp_WriteConsoleW        0000000140024290     kernel32:KERNEL32.dll
 0002:00000298       \177KERNEL32_NULL_THUNK_DATA 0000000140024298     kernel32:KERNEL32.dll
 0002:000002a0       __guard_check_icall_fptr   00000001400242a0     LIBCMT:guard_support.obj
 0002:000002a8       __guard_dispatch_icall_fptr 00000001400242a8     LIBCMT:guard_support.obj
 0002:000002b0       __xc_a                     00000001400242b0     LIBCMT:initializers.obj
 0002:00000328       __xc_z                     0000000140024328     LIBCMT:initializers.obj
 0002:00000330       __xi_a                     0000000140024330     LIBCMT:initializers.obj
 0002:00000350       __acrt_stdio_initializer   0000000140024350     libucrt:stdio_initializer.obj
 0002:00000358       __acrt_tran_fma3_initializer 0000000140024358     libucrt:fma3_initializer.obj
 0002:00000360       __acrt_timeset_initializer 0000000140024360     libucrt:timeset_initializer.obj
 0002:00000368       __acrt_multibyte_initializer 0000000140024368     libucrt:multibyte_initializer.obj
 0002:00000370       __xi_z                     0000000140024370     LIBCMT:initializers.obj
 0002:00000378       __xp_a                     0000000140024378     LIBCMT:initializers.obj
 0002:00000380       __acrt_locale_terminator   0000000140024380     libucrt:locale_initializer.obj
 0002:00000388       __dcrt_console_output_terminator 0000000140024388     libucrt:console_output_initializer.obj
 0002:00000390       __acrt_stdio_terminator    0000000140024390     libucrt:stdio_initializer.obj
 0002:00000398       __xp_z                     0000000140024398     LIBCMT:initializers.obj
 0002:000003a0       __xt_a                     00000001400243a0     LIBCMT:initializers.obj
 0002:000003a8       __xt_z                     00000001400243a8     LIBCMT:initializers.obj
 0002:000003b8       ??_7exception@std@@6B@     00000001400243b8     libcpmt:xonce.obj
 0002:000003c8       ??_C@_0BC@EOODALEL@Unknown?5exception?$AA@ 00000001400243c8     libcpmt:xonce.obj
 0002:000003e8       ??_7runtime_error@std@@6B@ 00000001400243e8     libcpmt:xonce.obj
 0002:00000400       ??_7_System_error@std@@6B@ 0000000140024400     libcpmt:xonce.obj
 0002:00000410       ??_C@_0O@BFJCFAAK@unknown?5error?$AA@ 0000000140024410     libcpmt:xonce.obj
 0002:00000680       ??_7bad_cast@std@@6B@      0000000140024680     libcpmt:cout.obj
 0002:00000690       ??_C@_08EPJLHIJG@bad?5cast?$AA@ 0000000140024690     libcpmt:cout.obj
 0002:000006a8       ??_7_Facet_base@std@@6B@   00000001400246a8     libcpmt:cout.obj
 0002:000006c8       ??_7?$ctype@D@std@@6B@     00000001400246c8     libcpmt:cout.obj
 0002:00000728       ??_7_Iostream_error_category@std@@6B@ 0000000140024728     libcpmt:cout.obj
 0002:00000760       ??_7failure@ios_base@std@@6B@ 0000000140024760     libcpmt:cout.obj
 0002:00000778       ??_7ios_base@std@@6B@      0000000140024778     libcpmt:cout.obj
 0002:00000788       ??_7?$basic_streambuf@DU?$char_traits@D@std@@@std@@6B@ 0000000140024788     libcpmt:cout.obj
 0002:00000808       ??_7?$basic_filebuf@DU?$char_traits@D@std@@@std@@6B@ 0000000140024808     libcpmt:cout.obj
 0002:00000888       ??_7?$basic_ios@DU?$char_traits@D@std@@@std@@6B@ 0000000140024888     libcpmt:cout.obj
 0002:00000898       ??_7?$basic_ostream@DU?$char_traits@D@std@@@std@@6B@ 0000000140024898     libcpmt:cout.obj
 0002:000008a0       ??_8?$basic_ostream@DU?$char_traits@D@std@@@std@@7B@ 00000001400248a0     libcpmt:cout.obj
 0002:000008b0       ??_7?$codecvt@DDU_Mbstatet@@@std@@6B@ 00000001400248b0     libcpmt:cout.obj
 0002:000009d0       ??_7_Locimp@locale@std@@6B@ 00000001400249d0     libcpmt:locale0.obj
 0002:000009e8       ??_C@_01NBENCBCI@?$CK?$AA@ 00000001400249e8     libcpmt:locale0.obj
 0002:000009ec       ??_C@_01GFHCPBMG@C?$AA@    00000001400249ec     libcpmt:locale0.obj
 0002:00000a70       ??_7?$basic_istream@DU?$char_traits@D@std@@@std@@6B@ 0000000140024a70     libcpmt:cin.obj
 0002:00000a78       ??_8?$basic_istream@DU?$char_traits@D@std@@@std@@7B@ 0000000140024a78     libcpmt:cin.obj
 0002:00000a88       ??_7bad_alloc@std@@6B@     0000000140024a88     libcpmt:xthrow.obj
 0002:00000a98       ??_C@_0P@GHFPNOJB@bad?5allocation?$AA@ 0000000140024a98     libcpmt:xthrow.obj
 0002:00000ab0       ??_7logic_error@std@@6B@   0000000140024ab0     libcpmt:xthrow.obj
 0002:00000ac8       ??_7length_error@std@@6B@  0000000140024ac8     libcpmt:xthrow.obj
 0002:00001228       ??_C@_0BN@LKKBCCDB@address?5family?5not?5supported?$AA@ 0000000140025228     libcpmt:syserror.obj
 0002:00001248       ??_C@_0P@LDMLAFHI@address?5in?5use?$AA@ 0000000140025248     libcpmt:syserror.obj
 0002:00001258       ??_C@_0BG@DHPCNBJB@address?5not?5available?$AA@ 0000000140025258     libcpmt:syserror.obj
 0002:00001270       ??_C@_0BC@DFIBIBIL@already?5connected?$AA@ 0000000140025270     libcpmt:syserror.obj
 0002:00001288       ??_C@_0BH@CAKOHOMI@argument?5list?5too?5long?$AA@ 0000000140025288     libcpmt:syserror.obj
 0002:000012a0       ??_C@_0BH@CGIMPKIM@argument?5out?5of?5domain?$AA@ 00000001400252a0     libcpmt:syserror.obj
 0002:000012b8       ??_C@_0M@KGHGGJGL@bad?5address?$AA@ 00000001400252b8     libcpmt:syserror.obj
 0002:000012c8       ??_C@_0BE@MPJPGCEO@bad?5file?5descriptor?$AA@ 00000001400252c8     libcpmt:syserror.obj
 0002:000012e0       ??_C@_0M@PMMIEFCP@bad?5message?$AA@ 00000001400252e0     libcpmt:syserror.obj
 0002:000012f0       ??_C@_0M@KPHOFDBE@broken?5pipe?$AA@ 00000001400252f0     libcpmt:syserror.obj
 0002:00001300       ??_C@_0BD@MGNDDEGM@connection?5aborted?$AA@ 0000000140025300     libcpmt:syserror.obj
 0002:00001318       ??_C@_0BP@KAIHPOGN@connection?5already?5in?5progress?$AA@ 0000000140025318     libcpmt:syserror.obj
 0002:00001338       ??_C@_0BD@PJLIIJEL@connection?5refused?$AA@ 0000000140025338     libcpmt:syserror.obj
 0002:00001350       ??_C@_0BB@IECNJNOI@connection?5reset?$AA@ 0000000140025350     libcpmt:syserror.obj
 0002:00001368       ??_C@_0BC@PPHBOELF@cross?5device?5link?$AA@ 0000000140025368     libcpmt:syserror.obj
 0002:00001380       ??_C@_0BN@KDMIFEIP@destination?5address?5required?$AA@ 0000000140025380     libcpmt:syserror.obj
 0002:000013a0       ??_C@_0BI@NGCEHDD@device?5or?5resource?5busy?$AA@ 00000001400253a0     libcpmt:syserror.obj
 0002:000013b8       ??_C@_0BE@JIDOCPHM@directory?5not?5empty?$AA@ 00000001400253b8     libcpmt:syserror.obj
 0002:000013d0       ??_C@_0BI@BNCLIGPB@executable?5format?5error?$AA@ 00000001400253d0     libcpmt:syserror.obj
 0002:000013e8       ??_C@_0M@MIDIAGJP@file?5exists?$AA@ 00000001400253e8     libcpmt:syserror.obj
 0002:000013f8       ??_C@_0P@DNAJLBJK@file?5too?5large?$AA@ 00000001400253f8     libcpmt:syserror.obj
 0002:00001408       ??_C@_0BC@EJHOMAAK@filename?5too?5long?$AA@ 0000000140025408     libcpmt:syserror.obj
 0002:00001420       ??_C@_0BH@KEFGLDAF@function?5not?5supported?$AA@ 0000000140025420     libcpmt:syserror.obj
 0002:00001438       ??_C@_0BB@DHFDFGDM@host?5unreachable?$AA@ 0000000140025438     libcpmt:syserror.obj
 0002:00001450       ??_C@_0BD@JPHBMONG@identifier?5removed?$AA@ 0000000140025450     libcpmt:syserror.obj
 0002:00001468       ??_C@_0BG@CDNPAGJK@illegal?5byte?5sequence?$AA@ 0000000140025468     libcpmt:syserror.obj
 0002:00001480       ??_C@_0CD@BNPLBMNA@inappropriate?5io?5control?5operati@ 0000000140025480     libcpmt:syserror.obj
 0002:000014a8       ??_C@_0M@EGEKIIMP@interrupted?$AA@ 00000001400254a8     libcpmt:syserror.obj
 0002:000014b8       ??_C@_0BB@FCMFBGOM@invalid?5argument?$AA@ 00000001400254b8     libcpmt:syserror.obj
 0002:000014d0       ??_C@_0N@OHAFKDEK@invalid?5seek?$AA@ 00000001400254d0     libcpmt:syserror.obj
 0002:000014e0       ??_C@_08GLNPIFBN@io?5error?$AA@ 00000001400254e0     libcpmt:syserror.obj
 0002:000014f0       ??_C@_0P@FLLDBIDK@is?5a?5directory?$AA@ 00000001400254f0     libcpmt:syserror.obj
 0002:00001500       ??_C@_0N@IFLPBIOP@message?5size?$AA@ 0000000140025500     libcpmt:syserror.obj
 0002:00001510       ??_C@_0N@KIIEAAIO@network?5down?$AA@ 0000000140025510     libcpmt:syserror.obj
 0002:00001520       ??_C@_0O@FNPDBHEE@network?5reset?$AA@ 0000000140025520     libcpmt:syserror.obj
 0002:00001530       ??_C@_0BE@IFNCKGE@network?5unreachable?$AA@ 0000000140025530     libcpmt:syserror.obj
 0002:00001548       ??_C@_0BA@PFFCAOFK@no?5buffer?5space?$AA@ 0000000140025548     libcpmt:syserror.obj
 0002:00001558       ??_C@_0BB@IEPBLJHK@no?5child?5process?$AA@ 0000000140025558     libcpmt:syserror.obj
 0002:00001570       ??_C@_07PLECNNKG@no?5link?$AA@ 0000000140025570     libcpmt:syserror.obj
 0002:00001578       ??_C@_0BC@NJECKMKE@no?5lock?5available?$AA@ 0000000140025578     libcpmt:syserror.obj
 0002:00001590       ??_C@_0BF@PBGGPKKE@no?5message?5available?$AA@ 0000000140025590     libcpmt:syserror.obj
 0002:000015a8       ??_C@_0L@EDOLMPAK@no?5message?$AA@ 00000001400255a8     libcpmt:syserror.obj
 0002:000015b8       ??_C@_0BD@EAMBFIDF@no?5protocol?5option?$AA@ 00000001400255b8     libcpmt:syserror.obj
 0002:000015d0       ??_C@_0BD@IJDJKDEA@no?5space?5on?5device?$AA@ 00000001400255d0     libcpmt:syserror.obj
 0002:000015e8       ??_C@_0BE@MKFDAFMP@no?5stream?5resources?$AA@ 00000001400255e8     libcpmt:syserror.obj
 0002:00001600       ??_C@_0BK@IMCPHCBI@no?5such?5device?5or?5address?$AA@ 0000000140025600     libcpmt:syserror.obj
 0002:00001620       ??_C@_0P@FDINDDOK@no?5such?5device?$AA@ 0000000140025620     libcpmt:syserror.obj
 0002:00001630       ??_C@_0BK@NDOCBPGE@no?5such?5file?5or?5directory?$AA@ 0000000140025630     libcpmt:syserror.obj
 0002:00001650       ??_C@_0BA@ENLPPKBN@no?5such?5process?$AA@ 0000000140025650     libcpmt:syserror.obj
 0002:00001660       ??_C@_0BA@DOCPFFJG@not?5a?5directory?$AA@ 0000000140025660     libcpmt:syserror.obj
 0002:00001670       ??_C@_0N@POEIPGGF@not?5a?5socket?$AA@ 0000000140025670     libcpmt:syserror.obj
 0002:00001680       ??_C@_0N@LGAPMMPI@not?5a?5stream?$AA@ 0000000140025680     libcpmt:syserror.obj
 0002:00001690       ??_C@_0O@GLMIBBEG@not?5connected?$AA@ 0000000140025690     libcpmt:syserror.obj
 0002:000016a0       ??_C@_0BC@ENOOLCNF@not?5enough?5memory?$AA@ 00000001400256a0     libcpmt:syserror.obj
 0002:000016b8       ??_C@_0O@NHEDABJP@not?5supported?$AA@ 00000001400256b8     libcpmt:syserror.obj
 0002:000016c8       ??_C@_0BD@MOLBPMEA@operation?5canceled?$AA@ 00000001400256c8     libcpmt:syserror.obj
 0002:000016e0       ??_C@_0BG@KDKHOPCO@operation?5in?5progress?$AA@ 00000001400256e0     libcpmt:syserror.obj
 0002:000016f8       ??_C@_0BI@OHIEJAAB@operation?5not?5permitted?$AA@ 00000001400256f8     libcpmt:syserror.obj
 0002:00001710       ??_C@_0BI@LNEGIFLN@operation?5not?5supported?$AA@ 0000000140025710     libcpmt:syserror.obj
 0002:00001728       ??_C@_0BG@OEMDKMEE@operation?5would?5block?$AA@ 0000000140025728     libcpmt:syserror.obj
 0002:00001740       ??_C@_0L@BLPOFLNJ@owner?5dead?$AA@ 0000000140025740     libcpmt:syserror.obj
 0002:00001750       ??_C@_0BC@CIJDGCDI@permission?5denied?$AA@ 0000000140025750     libcpmt:syserror.obj
 0002:00001768       ??_C@_0P@FNPOCJBE@protocol?5error?$AA@ 0000000140025768     libcpmt:syserror.obj
 0002:00001778       ??_C@_0BH@JPPPLHJB@protocol?5not?5supported?$AA@ 0000000140025778     libcpmt:syserror.obj
 0002:00001790       ??_C@_0BG@EICBIHDP@read?5only?5file?5system?$AA@ 0000000140025790     libcpmt:syserror.obj
 0002:000017a8       ??_C@_0BO@BJBOMOEJ@resource?5deadlock?5would?5occur?$AA@ 00000001400257a8     libcpmt:syserror.obj
 0002:000017c8       ??_C@_0BP@LKNGHENJ@resource?5unavailable?5try?5again?$AA@ 00000001400257c8     libcpmt:syserror.obj
 0002:000017e8       ??_C@_0BE@GOIPJJHG@result?5out?5of?5range?$AA@ 00000001400257e8     libcpmt:syserror.obj
 0002:00001800       ??_C@_0BG@MPLKFPAE@state?5not?5recoverable?$AA@ 0000000140025800     libcpmt:syserror.obj
 0002:00001818       ??_C@_0P@DIIFGFCG@stream?5timeout?$AA@ 0000000140025818     libcpmt:syserror.obj
 0002:00001828       ??_C@_0P@IPFDMIFL@text?5file?5busy?$AA@ 0000000140025828     libcpmt:syserror.obj
 0002:00001838       ??_C@_09KJPPMAOI@timed?5out?$AA@ 0000000140025838     libcpmt:syserror.obj
 0002:00001848       ??_C@_0BO@HACHBEKI@too?5many?5files?5open?5in?5system?$AA@ 0000000140025848     libcpmt:syserror.obj
 0002:00001868       ??_C@_0BE@GHAFMPAH@too?5many?5files?5open?$AA@ 0000000140025868     libcpmt:syserror.obj
 0002:00001880       ??_C@_0P@HCOMKFCC@too?5many?5links?$AA@ 0000000140025880     libcpmt:syserror.obj
 0002:00001890       ??_C@_0BO@EFGOJEF@too?5many?5symbolic?5link?5levels?$AA@ 0000000140025890     libcpmt:syserror.obj
 0002:000018b0       ??_C@_0BA@KGKGOOJA@value?5too?5large?$AA@ 00000001400258b0     libcpmt:syserror.obj
 0002:000018c0       ??_C@_0BE@MIEJDDNH@wrong?5protocol?5type?$AA@ 00000001400258c0     libcpmt:syserror.obj
 0002:000018d8       ??_C@_1BK@MGMFAEKH@?$AAk?$AAe?$AAr?$AAn?$AAe?$AAl?$AA3?$AA2?$AA?4?$AAd?$AAl?$AAl?$AA?$AA@ 00000001400258d8     libcpmt:winapisupp.obj
 0002:000018f8       ??_C@_08KNHFBNJ@FlsAlloc?$AA@ 00000001400258f8     libcpmt:winapisupp.obj
 0002:00001908       ??_C@_07PEJMOBNF@FlsFree?$AA@ 0000000140025908     libcpmt:winapisupp.obj
 0002:00001910       ??_C@_0M@GDNOONDI@FlsGetValue?$AA@ 0000000140025910     libcpmt:winapisupp.obj
 0002:00001920       ??_C@_0M@JCPCPOEF@FlsSetValue?$AA@ 0000000140025920     libcpmt:winapisupp.obj
 0002:00001930       ??_C@_0BM@HCFOFFN@InitializeCriticalSectionEx?$AA@ 0000000140025930     libcpmt:winapisupp.obj
 0002:00001950       ??_C@_0BE@GPLMMCMH@InitOnceExecuteOnce?$AA@ 0000000140025950     libcpmt:winapisupp.obj
 0002:00001968       ??_C@_0P@DLHPPCNH@CreateEventExW?$AA@ 0000000140025968     libcpmt:winapisupp.obj
 0002:00001978       ??_C@_0BB@MEFPJLHN@CreateSemaphoreW?$AA@ 0000000140025978     libcpmt:winapisupp.obj
 0002:00001990       ??_C@_0BD@KIEEOEEH@CreateSemaphoreExW?$AA@ 0000000140025990     libcpmt:winapisupp.obj
 0002:000019a8       ??_C@_0BG@OGFAJCKC@CreateThreadpoolTimer?$AA@ 00000001400259a8     libcpmt:winapisupp.obj
 0002:000019c0       ??_C@_0BD@LPLEMMDI@SetThreadpoolTimer?$AA@ 00000001400259c0     libcpmt:winapisupp.obj
 0002:000019d8       ??_C@_0CA@FMNJENH@WaitForThreadpoolTimerCallbacks?$AA@ 00000001400259d8     libcpmt:winapisupp.obj
 0002:000019f8       ??_C@_0BF@DCFCCNOC@CloseThreadpoolTimer?$AA@ 00000001400259f8     libcpmt:winapisupp.obj
 0002:00001a10       ??_C@_0BF@FLABGKKM@CreateThreadpoolWait?$AA@ 0000000140025a10     libcpmt:winapisupp.obj
 0002:00001a28       ??_C@_0BC@MGCOHNA@SetThreadpoolWait?$AA@ 0000000140025a28     libcpmt:winapisupp.obj
 0002:00001a40       ??_C@_0BE@OCIOMIMP@CloseThreadpoolWait?$AA@ 0000000140025a40     libcpmt:winapisupp.obj
 0002:00001a58       ??_C@_0BJ@LKGHFHBO@FlushProcessWriteBuffers?$AA@ 0000000140025a58     libcpmt:winapisupp.obj
 0002:00001a78       ??_C@_0BP@KALKKPMO@FreeLibraryWhenCallbackReturns?$AA@ 0000000140025a78     libcpmt:winapisupp.obj
 0002:00001a98       ??_C@_0BK@DFNBACLA@GetCurrentProcessorNumber?$AA@ 0000000140025a98     libcpmt:winapisupp.obj
 0002:00001ab8       ??_C@_0BE@FKKLLFLM@CreateSymbolicLinkW?$AA@ 0000000140025ab8     libcpmt:winapisupp.obj
 0002:00001ad0       ??_C@_0BE@JOGNEJCI@GetCurrentPackageId?$AA@ 0000000140025ad0     libcpmt:winapisupp.obj
 0002:00001ae8       ??_C@_0P@CDHHOHKP@GetTickCount64?$AA@ 0000000140025ae8     libcpmt:winapisupp.obj
 0002:00001af8       ??_C@_0BN@NEEHBBPO@GetFileInformationByHandleEx?$AA@ 0000000140025af8     libcpmt:winapisupp.obj
 0002:00001b18       ??_C@_0BL@KBBHGKCM@SetFileInformationByHandle?$AA@ 0000000140025b18     libcpmt:winapisupp.obj
 0002:00001b38       ??_C@_0BP@FPNJPEJC@GetSystemTimePreciseAsFileTime?$AA@ 0000000140025b38     libcpmt:winapisupp.obj
 0002:00001b58       ??_C@_0BM@HLJJNPAH@InitializeConditionVariable?$AA@ 0000000140025b58     libcpmt:winapisupp.obj
 0002:00001b78       ??_C@_0BG@BFNILBLN@WakeConditionVariable?$AA@ 0000000140025b78     libcpmt:winapisupp.obj
 0002:00001b90       ??_C@_0BJ@PGPPEPCC@WakeAllConditionVariable?$AA@ 0000000140025b90     libcpmt:winapisupp.obj
 0002:00001bb0       ??_C@_0BJ@JEBJOJFJ@SleepConditionVariableCS?$AA@ 0000000140025bb0     libcpmt:winapisupp.obj
 0002:00001bd0       ??_C@_0BC@MMLHEBPB@InitializeSRWLock?$AA@ 0000000140025bd0     libcpmt:winapisupp.obj
 0002:00001be8       ??_C@_0BI@OMNLIJDB@AcquireSRWLockExclusive?$AA@ 0000000140025be8     libcpmt:winapisupp.obj
 0002:00001c00       ??_C@_0BL@OGHFEMNA@TryAcquireSRWLockExclusive?$AA@ 0000000140025c00     libcpmt:winapisupp.obj
 0002:00001c20       ??_C@_0BI@HMIEPCNJ@ReleaseSRWLockExclusive?$AA@ 0000000140025c20     libcpmt:winapisupp.obj
 0002:00001c38       ??_C@_0BK@LGACAGIC@SleepConditionVariableSRW?$AA@ 0000000140025c38     libcpmt:winapisupp.obj
 0002:00001c58       ??_C@_0BF@GGPHFPJA@CreateThreadpoolWork?$AA@ 0000000140025c58     libcpmt:winapisupp.obj
 0002:00001c70       ??_C@_0BF@NHDAIMMO@SubmitThreadpoolWork?$AA@ 0000000140025c70     libcpmt:winapisupp.obj
 0002:00001c88       ??_C@_0BE@NPHIPNPD@CloseThreadpoolWork?$AA@ 0000000140025c88     libcpmt:winapisupp.obj
 0002:00001ca0       ??_C@_0BA@IHGNDAEB@CompareStringEx?$AA@ 0000000140025ca0     libcpmt:winapisupp.obj
 0002:00001cb0       ??_C@_0BA@ONOKGCMP@GetLocaleInfoEx?$AA@ 0000000140025cb0     libcpmt:winapisupp.obj
 0002:00001cc0       ??_C@_0O@KKBNKAPF@LCMapStringEx?$AA@ 0000000140025cc0     libcpmt:winapisupp.obj
 0002:00001cd0       ?_BADOFF@std@@3_JB         0000000140025cd0     libcpmt:ios.obj
 0002:00001d28       ??_C@_11LOCGONAA@?$AA?$AA@ 0000000140025d28     libcpmt:wlocale.obj
 0002:00001d2c       ??_C@_01JOAMLHOP@?9?$AA@   0000000140025d2c     libcpmt:wlocale.obj
 0002:00003a50       ??_C@_15EMKDOKLE@?$AAa?$AAr?$AA?$AA@ 0000000140027a50     libcpmt:winapinls.obj
 0002:00003a58       ??_C@_15KNPADPLH@?$AAb?$AAg?$AA?$AA@ 0000000140027a58     libcpmt:winapinls.obj
 0002:00003a60       ??_C@_15EDMHLDMO@?$AAc?$AAa?$AA?$AA@ 0000000140027a60     libcpmt:winapinls.obj
 0002:00003a68       ??_C@_1O@BPEAJADD@?$AAz?$AAh?$AA?9?$AAC?$AAH?$AAS?$AA?$AA@ 0000000140027a68     libcpmt:winapinls.obj
 0002:00003a78       ??_C@_15LJNHCMNK@?$AAc?$AAs?$AA?$AA@ 0000000140027a78     libcpmt:winapinls.obj
 0002:00003a80       ??_C@_15FOMCIDHG@?$AAd?$AAa?$AA?$AA@ 0000000140027a80     libcpmt:winapinls.obj
 0002:00003a88       ??_C@_15NBKABECB@?$AAd?$AAe?$AA?$AA@ 0000000140027a88     libcpmt:winapinls.obj
 0002:00003a90       ??_C@_15GHPEIIAO@?$AAe?$AAl?$AA?$AA@ 0000000140027a90     libcpmt:winapinls.obj
 0002:00003a98       ??_C@_15MNPNEAIF@?$AAe?$AAn?$AA?$AA@ 0000000140027a98     libcpmt:winapinls.obj
 0002:00003aa0       ??_C@_15GPIOMPMH@?$AAe?$AAs?$AA?$AA@ 0000000140027aa0     libcpmt:winapinls.obj
 0002:00003aa8       ??_C@_15NGLOAKJC@?$AAf?$AAi?$AA?$AA@ 0000000140027aa8     libcpmt:winapinls.obj
 0002:00003ab0       ??_C@_15FBKGNKAM@?$AAf?$AAr?$AA?$AA@ 0000000140027ab0     libcpmt:winapinls.obj
 0002:00003ab8       ??_C@_15KGGCNEFK@?$AAh?$AAe?$AA?$AA@ 0000000140027ab8     libcpmt:winapinls.obj
 0002:00003ac0       ??_C@_15PGHLIDMF@?$AAh?$AAu?$AA?$AA@ 0000000140027ac0     libcpmt:winapinls.obj
 0002:00003ac8       ??_C@_15BIEMAPLM@?$AAi?$AAs?$AA?$AA@ 0000000140027ac8     libcpmt:winapinls.obj
 0002:00003ad0       ??_C@_15IFJLDHAF@?$AAi?$AAt?$AA?$AA@ 0000000140027ad0     libcpmt:winapinls.obj
 0002:00003ad8       ??_C@_15GEMIOCAG@?$AAj?$AAa?$AA?$AA@ 0000000140027ad8     libcpmt:winapinls.obj
 0002:00003ae0       ??_C@_15EPELEGJA@?$AAk?$AAo?$AA?$AA@ 0000000140027ae0     libcpmt:winapinls.obj
 0002:00003ae8       ??_C@_15NDDHIMN@?$AAn?$AAl?$AA?$AA@ 0000000140027ae8     libcpmt:winapinls.obj
 0002:00003af0       ??_C@_15BPIGNHCD@?$AAn?$AAo?$AA?$AA@ 0000000140027af0     libcpmt:winapinls.obj
 0002:00003af8       ??_C@_15DEOPBLCG@?$AAp?$AAl?$AA?$AA@ 0000000140027af8     libcpmt:winapinls.obj
 0002:00003b00       ??_C@_15KBECGEFG@?$AAp?$AAt?$AA?$AA@ 0000000140027b00     libcpmt:winapinls.obj
 0002:00003b08       ??_C@_15GLJCBFMD@?$AAr?$AAo?$AA?$AA@ 0000000140027b08     libcpmt:winapinls.obj
 0002:00003b10       ??_C@_15FEDGKCDI@?$AAr?$AAu?$AA?$AA@ 0000000140027b10     libcpmt:winapinls.obj
 0002:00003b18       ??_C@_15GLKMLLHM@?$AAh?$AAr?$AA?$AA@ 0000000140027b18     libcpmt:winapinls.obj
 0002:00003b20       ??_C@_15CPKMFBDB@?$AAs?$AAk?$AA?$AA@ 0000000140027b20     libcpmt:winapinls.obj
 0002:00003b28       ??_C@_15BAAIOGMK@?$AAs?$AAq?$AA?$AA@ 0000000140027b28     libcpmt:winapinls.obj
 0002:00003b30       ??_C@_15INNPNOHD@?$AAs?$AAv?$AA?$AA@ 0000000140027b30     libcpmt:winapinls.obj
 0002:00003b38       ??_C@_15CABMMOGH@?$AAt?$AAh?$AA?$AA@ 0000000140027b38     libcpmt:winapinls.obj
 0002:00003b40       ??_C@_15BPLIHJJM@?$AAt?$AAr?$AA?$AA@ 0000000140027b40     libcpmt:winapinls.obj
 0002:00003b48       ??_C@_15NEOEKKDJ@?$AAu?$AAr?$AA?$AA@ 0000000140027b48     libcpmt:winapinls.obj
 0002:00003b50       ??_C@_15NFICGAJK@?$AAi?$AAd?$AA?$AA@ 0000000140027b50     libcpmt:winapinls.obj
 0002:00003b58       ??_C@_15PJPFLCCM@?$AAu?$AAk?$AA?$AA@ 0000000140027b58     libcpmt:winapinls.obj
 0002:00003b60       ??_C@_15HPJPHDM@?$AAb?$AAe?$AA?$AA@ 0000000140027b60     libcpmt:winapinls.obj
 0002:00003b68       ??_C@_15LCHLGJII@?$AAs?$AAl?$AA?$AA@ 0000000140027b68     libcpmt:winapinls.obj
 0002:00003b70       ??_C@_15PCFJPHHO@?$AAe?$AAt?$AA?$AA@ 0000000140027b70     libcpmt:winapinls.obj
 0002:00003b78       ??_C@_15HPFPGODN@?$AAl?$AAv?$AA?$AA@ 0000000140027b78     libcpmt:winapinls.obj
 0002:00003b80       ??_C@_15NFFGKGLG@?$AAl?$AAt?$AA?$AA@ 0000000140027b80     libcpmt:winapinls.obj
 0002:00003b88       ??_C@_15BDAKCCHN@?$AAf?$AAa?$AA?$AA@ 0000000140027b88     libcpmt:winapinls.obj
 0002:00003b90       ??_C@_15NFGIAIAJ@?$AAv?$AAi?$AA?$AA@ 0000000140027b90     libcpmt:winapinls.obj
 0002:00003b98       ??_C@_15LMKNDMHN@?$AAh?$AAy?$AA?$AA@ 0000000140027b98     libcpmt:winapinls.obj
 0002:00003ba0       ??_C@_15IJBHMCFL@?$AAa?$AAz?$AA?$AA@ 0000000140027ba0     libcpmt:winapinls.obj
 0002:00003ba8       ??_C@_15EKOFJABL@?$AAe?$AAu?$AA?$AA@ 0000000140027ba8     libcpmt:winapinls.obj
 0002:00003bb0       ??_C@_15BGHADCNK@?$AAm?$AAk?$AA?$AA@ 0000000140027bb0     libcpmt:winapinls.obj
 0002:00003bb8       ??_C@_15JDNICKHM@?$AAa?$AAf?$AA?$AA@ 0000000140027bb8     libcpmt:winapinls.obj
 0002:00003bc0       ??_C@_15KPJEDBKD@?$AAk?$AAa?$AA?$AA@ 0000000140027bc0     libcpmt:winapinls.obj
 0002:00003bc8       ??_C@_15PDNFFFEO@?$AAf?$AAo?$AA?$AA@ 0000000140027bc8     libcpmt:winapinls.obj
 0002:00003bd0       ??_C@_15OMLEGLOC@?$AAh?$AAi?$AA?$AA@ 0000000140027bd0     libcpmt:winapinls.obj
 0002:00003bd8       ??_C@_15IDNNENKK@?$AAm?$AAs?$AA?$AA@ 0000000140027bd8     libcpmt:winapinls.obj
 0002:00003be0       ??_C@_15MACJNBMH@?$AAk?$AAk?$AA?$AA@ 0000000140027be0     libcpmt:winapinls.obj
 0002:00003be8       ??_C@_15DKDJEOND@?$AAk?$AAy?$AA?$AA@ 0000000140027be8     libcpmt:winapinls.obj
 0002:00003bf0       ??_C@_15DFGDLJBG@?$AAs?$AAw?$AA?$AA@ 0000000140027bf0     libcpmt:winapinls.obj
 0002:00003bf8       ??_C@_15BBFAICNG@?$AAu?$AAz?$AA?$AA@ 0000000140027bf8     libcpmt:winapinls.obj
 0002:00003c00       ??_C@_15DKNDCGEA@?$AAt?$AAt?$AA?$AA@ 0000000140027c00     libcpmt:winapinls.obj
 0002:00003c08       ??_C@_15MGIFMDPL@?$AAp?$AAa?$AA?$AA@ 0000000140027c08     libcpmt:winapinls.obj
 0002:00003c10       ??_C@_15HCNDBBA@?$AAg?$AAu?$AA?$AA@ 0000000140027c10     libcpmt:winapinls.obj
 0002:00003c18       ??_C@_15FNBEIBON@?$AAt?$AAa?$AA?$AA@ 0000000140027c18     libcpmt:winapinls.obj
 0002:00003c20       ??_C@_15NCHGBGLK@?$AAt?$AAe?$AA?$AA@ 0000000140027c20     libcpmt:winapinls.obj
 0002:00003c28       ??_C@_15PHPHCBPF@?$AAk?$AAn?$AA?$AA@ 0000000140027c28     libcpmt:winapinls.obj
 0002:00003c30       ??_C@_15DLGBCKMP@?$AAm?$AAr?$AA?$AA@ 0000000140027c30     libcpmt:winapinls.obj
 0002:00003c38       ??_C@_15EABBLBFF@?$AAs?$AAa?$AA?$AA@ 0000000140027c38     libcpmt:winapinls.obj
 0002:00003c40       ??_C@_15CBKOMCOI@?$AAm?$AAn?$AA?$AA@ 0000000140027c40     libcpmt:winapinls.obj
 0002:00003c48       ??_C@_15CKDMCJAF@?$AAg?$AAl?$AA?$AA@ 0000000140027c48     libcpmt:winapinls.obj
 0002:00003c50       ??_C@_17CNJFBPG@?$AAk?$AAo?$AAk?$AA?$AA@ 0000000140027c50     libcpmt:winapinls.obj
 0002:00003c58       ??_C@_17FFBJICPL@?$AAs?$AAy?$AAr?$AA?$AA@ 0000000140027c58     libcpmt:winapinls.obj
 0002:00003c60       ??_C@_17KPNDCPAF@?$AAd?$AAi?$AAv?$AA?$AA@ 0000000140027c60     libcpmt:winapinls.obj
 0002:00003c68       ??_C@_1M@OKAHONE@?$AAa?$AAr?$AA?9?$AAS?$AAA?$AA?$AA@ 0000000140027c68     libcpmt:winapinls.obj
 0002:00003c78       ??_C@_1M@FFFIGIGK@?$AAb?$AAg?$AA?9?$AAB?$AAG?$AA?$AA@ 0000000140027c78     libcpmt:winapinls.obj
 0002:00003c88       ??_C@_1M@BJNKEDC@?$AAc?$AAa?$AA?9?$AAE?$AAS?$AA?$AA@ 0000000140027c88     libcpmt:winapinls.obj
 0002:00003c98       ??_C@_1M@CLNBBOPM@?$AAz?$AAh?$AA?9?$AAT?$AAW?$AA?$AA@ 0000000140027c98     libcpmt:winapinls.obj
 0002:00003ca8       ??_C@_1M@IJJHFJHA@?$AAc?$AAs?$AA?9?$AAC?$AAZ?$AA?$AA@ 0000000140027ca8     libcpmt:winapinls.obj
 0002:00003cb8       ??_C@_1M@CLPEOBGI@?$AAd?$AAa?$AA?9?$AAD?$AAK?$AA?$AA@ 0000000140027cb8     libcpmt:winapinls.obj
 0002:00003cc8       ??_C@_1M@MCMADGCB@?$AAd?$AAe?$AA?9?$AAD?$AAE?$AA?$AA@ 0000000140027cc8     libcpmt:winapinls.obj
 0002:00003cd8       ??_C@_1M@OOCKEMAM@?$AAe?$AAl?$AA?9?$AAG?$AAR?$AA?$AA@ 0000000140027cd8     libcpmt:winapinls.obj
 0002:00003ce8       ??_C@_1M@BMHNFIME@?$AAe?$AAn?$AA?9?$AAU?$AAS?$AA?$AA@ 0000000140027ce8     libcpmt:winapinls.obj
 0002:00003cf8       ??_C@_1M@DDNJFGID@?$AAf?$AAi?$AA?9?$AAF?$AAI?$AA?$AA@ 0000000140027cf8     libcpmt:winapinls.obj
 0002:00003d08       ??_C@_1M@GLIPPMAC@?$AAf?$AAr?$AA?9?$AAF?$AAR?$AA?$AA@ 0000000140027d08     libcpmt:winapinls.obj
 0002:00003d18       ??_C@_1M@GFMCHPE@?$AAh?$AAe?$AA?9?$AAI?$AAL?$AA?$AA@ 0000000140027d18     libcpmt:winapinls.obj
 0002:00003d28       ??_C@_1M@MHLPGNKM@?$AAh?$AAu?$AA?9?$AAH?$AAU?$AA?$AA@ 0000000140027d28     libcpmt:winapinls.obj
 0002:00003d38       ??_C@_1M@LPDDNNPN@?$AAi?$AAs?$AA?9?$AAI?$AAS?$AA?$AA@ 0000000140027d38     libcpmt:winapinls.obj
 0002:00003d48       ??_C@_1M@MADIPODN@?$AAi?$AAt?$AA?9?$AAI?$AAT?$AA?$AA@ 0000000140027d48     libcpmt:winapinls.obj
 0002:00003d58       ??_C@_1M@HPNHIDJI@?$AAj?$AAa?$AA?9?$AAJ?$AAP?$AA?$AA@ 0000000140027d58     libcpmt:winapinls.obj
 0002:00003d68       ??_C@_1M@JLOOOEGK@?$AAk?$AAo?$AA?9?$AAK?$AAR?$AA?$AA@ 0000000140027d68     libcpmt:winapinls.obj
 0002:00003d78       ??_C@_1M@IHBJJGG@?$AAn?$AAl?$AA?9?$AAN?$AAL?$AA?$AA@ 0000000140027d78     libcpmt:winapinls.obj
 0002:00003d88       ??_C@_1M@EANAGDL@?$AAn?$AAb?$AA?9?$AAN?$AAO?$AA?$AA@ 0000000140027d88     libcpmt:winapinls.obj
 0002:00003d98       ??_C@_1M@NEIEMEGP@?$AAp?$AAl?$AA?9?$AAP?$AAL?$AA?$AA@ 0000000140027d98     libcpmt:winapinls.obj
 0002:00003da8       ??_C@_1M@BOCFIGEP@?$AAp?$AAt?$AA?9?$AAB?$AAR?$AA?$AA@ 0000000140027da8     libcpmt:winapinls.obj
 0002:00003db8       ??_C@_1M@IMPFOPBG@?$AAr?$AAo?$AA?9?$AAR?$AAO?$AA?$AA@ 0000000140027db8     libcpmt:winapinls.obj
 0002:00003dc8       ??_C@_1M@IDNNEJMM@?$AAr?$AAu?$AA?9?$AAR?$AAU?$AA?$AA@ 0000000140027dc8     libcpmt:winapinls.obj
 0002:00003dd8       ??_C@_1M@LILEEOGM@?$AAh?$AAr?$AA?9?$AAH?$AAR?$AA?$AA@ 0000000140027dd8     libcpmt:winapinls.obj
 0002:00003de8       ??_C@_1M@FKIFEHPB@?$AAs?$AAk?$AA?9?$AAS?$AAK?$AA?$AA@ 0000000140027de8     libcpmt:winapinls.obj
 0002:00003df8       ??_C@_1M@LJMAMNPJ@?$AAs?$AAq?$AA?9?$AAA?$AAL?$AA?$AA@ 0000000140027df8     libcpmt:winapinls.obj
 0002:00003e08       ??_C@_1M@GIAKDKJK@?$AAs?$AAv?$AA?9?$AAS?$AAE?$AA?$AA@ 0000000140027e08     libcpmt:winapinls.obj
 0002:00003e18       ??_C@_1M@MKJKIKCL@?$AAt?$AAh?$AA?9?$AAT?$AAH?$AA?$AA@ 0000000140027e18     libcpmt:winapinls.obj
 0002:00003e28       ??_C@_1M@MFLCCMPB@?$AAt?$AAr?$AA?9?$AAT?$AAR?$AA?$AA@ 0000000140027e28     libcpmt:winapinls.obj
 0002:00003e38       ??_C@_1M@OIJHDKJN@?$AAu?$AAr?$AA?9?$AAP?$AAK?$AA?$AA@ 0000000140027e38     libcpmt:winapinls.obj
 0002:00003e48       ??_C@_1M@LHIPCIEK@?$AAi?$AAd?$AA?9?$AAI?$AAD?$AA?$AA@ 0000000140027e48     libcpmt:winapinls.obj
 0002:00003e58       ??_C@_1M@MFMOBGI@?$AAu?$AAk?$AA?9?$AAU?$AAA?$AA?$AA@ 0000000140027e58     libcpmt:winapinls.obj
 0002:00003e68       ??_C@_1M@OBGLJIPL@?$AAb?$AAe?$AA?9?$AAB?$AAY?$AA?$AA@ 0000000140027e68     libcpmt:winapinls.obj
 0002:00003e78       ??_C@_1M@BCFAJEAD@?$AAs?$AAl?$AA?9?$AAS?$AAI?$AA?$AA@ 0000000140027e78     libcpmt:winapinls.obj
 0002:00003e88       ??_C@_1M@FKFFEDDN@?$AAe?$AAt?$AA?9?$AAE?$AAE?$AA?$AA@ 0000000140027e88     libcpmt:winapinls.obj
 0002:00003e98       ??_C@_1M@KGKKAACI@?$AAl?$AAv?$AA?9?$AAL?$AAV?$AA?$AA@ 0000000140027e98     libcpmt:winapinls.obj
 0002:00003ea8       ??_C@_1M@IFGBIJO@?$AAl?$AAt?$AA?9?$AAL?$AAT?$AA?$AA@ 0000000140027ea8     libcpmt:winapinls.obj
 0002:00003eb8       ??_C@_1M@FGEAHEDM@?$AAf?$AAa?$AA?9?$AAI?$AAR?$AA?$AA@ 0000000140027eb8     libcpmt:winapinls.obj
 0002:00003ec8       ??_C@_1M@KBMAIBFN@?$AAv?$AAi?$AA?9?$AAV?$AAN?$AA?$AA@ 0000000140027ec8     libcpmt:winapinls.obj
 0002:00003ed8       ??_C@_1M@GPCBKDJK@?$AAh?$AAy?$AA?9?$AAA?$AAM?$AA?$AA@ 0000000140027ed8     libcpmt:winapinls.obj
 0002:00003ee8       ??_C@_1BG@BECMDDJB@?$AAa?$AAz?$AA?9?$AAA?$AAZ?$AA?9?$AAL?$AAa?$AAt?$AAn?$AA?$AA@ 0000000140027ee8     libcpmt:winapinls.obj
 0002:00003f00       ??_C@_1M@MAOFCAEA@?$AAe?$AAu?$AA?9?$AAE?$AAS?$AA?$AA@ 0000000140027f00     libcpmt:winapinls.obj
 0002:00003f10       ??_C@_1M@IGHABKPI@?$AAm?$AAk?$AA?9?$AAM?$AAK?$AA?$AA@ 0000000140027f10     libcpmt:winapinls.obj
 0002:00003f20       ??_C@_1M@IAIGNEJG@?$AAt?$AAn?$AA?9?$AAZ?$AAA?$AA?$AA@ 0000000140027f20     libcpmt:winapinls.obj
 0002:00003f30       ??_C@_1M@IIJCOJFA@?$AAx?$AAh?$AA?9?$AAZ?$AAA?$AA?$AA@ 0000000140027f30     libcpmt:winapinls.obj
 0002:00003f40       ??_C@_1M@LGPJHNJH@?$AAz?$AAu?$AA?9?$AAZ?$AAA?$AA?$AA@ 0000000140027f40     libcpmt:winapinls.obj
 0002:00003f50       ??_C@_1M@HOKAOIO@?$AAa?$AAf?$AA?9?$AAZ?$AAA?$AA?$AA@ 0000000140027f50     libcpmt:winapinls.obj
 0002:00003f60       ??_C@_1M@DPCLHLIE@?$AAk?$AAa?$AA?9?$AAG?$AAE?$AA?$AA@ 0000000140027f60     libcpmt:winapinls.obj
 0002:00003f70       ??_C@_1M@BLKMHJBI@?$AAf?$AAo?$AA?9?$AAF?$AAO?$AA?$AA@ 0000000140027f70     libcpmt:winapinls.obj
 0002:00003f80       ??_C@_1M@LGGJAPPB@?$AAh?$AAi?$AA?9?$AAI?$AAN?$AA?$AA@ 0000000140027f80     libcpmt:winapinls.obj
 0002:00003f90       ??_C@_1M@FIKPIHFE@?$AAm?$AAt?$AA?9?$AAM?$AAT?$AA?$AA@ 0000000140027f90     libcpmt:winapinls.obj
 0002:00003fa0       ??_C@_1M@HEGGPBFA@?$AAs?$AAe?$AA?9?$AAN?$AAO?$AA?$AA@ 0000000140027fa0     libcpmt:winapinls.obj
 0002:00003fb0       ??_C@_1M@EIBJEEPA@?$AAm?$AAs?$AA?9?$AAM?$AAY?$AA?$AA@ 0000000140027fb0     libcpmt:winapinls.obj
 0002:00003fc0       ??_C@_1M@FHLBGMPP@?$AAk?$AAk?$AA?9?$AAK?$AAZ?$AA?$AA@ 0000000140027fc0     libcpmt:winapinls.obj
 0002:00003fd0       ??_C@_1M@NGJJLCGI@?$AAk?$AAy?$AA?9?$AAK?$AAG?$AA?$AA@ 0000000140027fd0     libcpmt:winapinls.obj
 0002:00003fe0       ??_C@_1M@GIENNBFC@?$AAs?$AAw?$AA?9?$AAK?$AAE?$AA?$AA@ 0000000140027fe0     libcpmt:winapinls.obj
 0002:00003ff0       ??_C@_1BG@NDGMJIMJ@?$AAu?$AAz?$AA?9?$AAU?$AAZ?$AA?9?$AAL?$AAa?$AAt?$AAn?$AA?$AA@ 0000000140027ff0     libcpmt:winapinls.obj
 0002:00004008       ??_C@_1M@IDCCIHBC@?$AAt?$AAt?$AA?9?$AAR?$AAU?$AA?$AA@ 0000000140028008     libcpmt:winapinls.obj
 0002:00004018       ??_C@_1M@LOICPMOJ@?$AAb?$AAn?$AA?9?$AAI?$AAN?$AA?$AA@ 0000000140028018     libcpmt:winapinls.obj
 0002:00004028       ??_C@_1M@KPKKNEAH@?$AAp?$AAa?$AA?9?$AAI?$AAN?$AA?$AA@ 0000000140028028     libcpmt:winapinls.obj
 0002:00004038       ??_C@_1M@PJGPPBOG@?$AAg?$AAu?$AA?9?$AAI?$AAN?$AA?$AA@ 0000000140028038     libcpmt:winapinls.obj
 0002:00004048       ??_C@_1M@KMKMOPHI@?$AAt?$AAa?$AA?9?$AAI?$AAN?$AA?$AA@ 0000000140028048     libcpmt:winapinls.obj
 0002:00004058       ??_C@_1M@KFEHEPAC@?$AAt?$AAe?$AA?9?$AAI?$AAN?$AA?$AA@ 0000000140028058     libcpmt:winapinls.obj
 0002:00004068       ??_C@_1M@CDCLMGHI@?$AAk?$AAn?$AA?9?$AAI?$AAN?$AA?$AA@ 0000000140028068     libcpmt:winapinls.obj
 0002:00004078       ??_C@_1M@MIODLDKF@?$AAm?$AAl?$AA?9?$AAI?$AAN?$AA?$AA@ 0000000140028078     libcpmt:winapinls.obj
 0002:00004088       ??_C@_1M@PBIEACPO@?$AAm?$AAr?$AA?9?$AAI?$AAN?$AA?$AA@ 0000000140028088     libcpmt:winapinls.obj
 0002:00004098       ??_C@_1M@NIDEAGPH@?$AAs?$AAa?$AA?9?$AAI?$AAN?$AA?$AA@ 0000000140028098     libcpmt:winapinls.obj
 0002:000040a8       ??_C@_1M@FHIHCBIO@?$AAm?$AAn?$AA?9?$AAM?$AAN?$AA?$AA@ 00000001400280a8     libcpmt:winapinls.obj
 0002:000040b8       ??_C@_1M@JAIJPENP@?$AAc?$AAy?$AA?9?$AAG?$AAB?$AA?$AA@ 00000001400280b8     libcpmt:winapinls.obj
 0002:000040c8       ??_C@_1M@PHGFBEPN@?$AAg?$AAl?$AA?9?$AAE?$AAS?$AA?$AA@ 00000001400280c8     libcpmt:winapinls.obj
 0002:000040d8       ??_C@_1O@KPIPDNCP@?$AAk?$AAo?$AAk?$AA?9?$AAI?$AAN?$AA?$AA@ 00000001400280d8     libcpmt:winapinls.obj
 0002:000040e8       ??_C@_1O@KNHJLDJA@?$AAs?$AAy?$AAr?$AA?9?$AAS?$AAY?$AA?$AA@ 00000001400280e8     libcpmt:winapinls.obj
 0002:000040f8       ??_C@_1O@MKEKBLAH@?$AAd?$AAi?$AAv?$AA?9?$AAM?$AAV?$AA?$AA@ 00000001400280f8     libcpmt:winapinls.obj
 0002:00004108       ??_C@_1O@OHDCKDDF@?$AAq?$AAu?$AAz?$AA?9?$AAB?$AAO?$AA?$AA@ 0000000140028108     libcpmt:winapinls.obj
 0002:00004118       ??_C@_1M@LEPJNLFD@?$AAn?$AAs?$AA?9?$AAZ?$AAA?$AA?$AA@ 0000000140028118     libcpmt:winapinls.obj
 0002:00004128       ??_C@_1M@OMLEIIJB@?$AAm?$AAi?$AA?9?$AAN?$AAZ?$AA?$AA@ 0000000140028128     libcpmt:winapinls.obj
 0002:00004138       ??_C@_1M@PMPEAILG@?$AAa?$AAr?$AA?9?$AAI?$AAQ?$AA?$AA@ 0000000140028138     libcpmt:winapinls.obj
 0002:00004148       ??_C@_1M@BIBDDEMK@?$AAz?$AAh?$AA?9?$AAC?$AAN?$AA?$AA@ 0000000140028148     libcpmt:winapinls.obj
 0002:00004158       ??_C@_1M@CNKPNOEE@?$AAd?$AAe?$AA?9?$AAC?$AAH?$AA?$AA@ 0000000140028158     libcpmt:winapinls.obj
 0002:00004168       ??_C@_1M@LKMGMLKO@?$AAe?$AAn?$AA?9?$AAG?$AAB?$AA?$AA@ 0000000140028168     libcpmt:winapinls.obj
 0002:00004178       ??_C@_1M@PGKJFFGL@?$AAe?$AAs?$AA?9?$AAM?$AAX?$AA?$AA@ 0000000140028178     libcpmt:winapinls.obj
 0002:00004188       ??_C@_1M@DNNANBDC@?$AAf?$AAr?$AA?9?$AAB?$AAE?$AA?$AA@ 0000000140028188     libcpmt:winapinls.obj
 0002:00004198       ??_C@_1M@HLGMDFHM@?$AAi?$AAt?$AA?9?$AAC?$AAH?$AA?$AA@ 0000000140028198     libcpmt:winapinls.obj
 0002:000041a8       ??_C@_1M@CLLBGJH@?$AAn?$AAl?$AA?9?$AAB?$AAE?$AA?$AA@ 00000001400281a8     libcpmt:winapinls.obj
 0002:000041b8       ??_C@_1M@BODBOGLF@?$AAn?$AAn?$AA?9?$AAN?$AAO?$AA?$AA@ 00000001400281b8     libcpmt:winapinls.obj
 0002:000041c8       ??_C@_1M@HFFAHKAD@?$AAp?$AAt?$AA?9?$AAP?$AAT?$AA?$AA@ 00000001400281c8     libcpmt:winapinls.obj
 0002:000041d8       ??_C@_1BG@LNOAKHIE@?$AAs?$AAr?$AA?9?$AAS?$AAP?$AA?9?$AAL?$AAa?$AAt?$AAn?$AA?$AA@ 00000001400281d8     libcpmt:winapinls.obj
 0002:000041f0       ??_C@_1M@HBMHBGAK@?$AAs?$AAv?$AA?9?$AAF?$AAI?$AA?$AA@ 00000001400281f0     libcpmt:winapinls.obj
 0002:00004200       ??_C@_1BG@DGCJGJBE@?$AAa?$AAz?$AA?9?$AAA?$AAZ?$AA?9?$AAC?$AAy?$AAr?$AAl?$AA?$AA@ 0000000140028200     libcpmt:winapinls.obj
 0002:00004218       ??_C@_1M@KEJDAAHB@?$AAs?$AAe?$AA?9?$AAS?$AAE?$AA?$AA@ 0000000140028218     libcpmt:winapinls.obj
 0002:00004228       ??_C@_1M@HEIBJJAD@?$AAm?$AAs?$AA?9?$AAB?$AAN?$AA?$AA@ 0000000140028228     libcpmt:winapinls.obj
 0002:00004238       ??_C@_1BG@PBGJMCEM@?$AAu?$AAz?$AA?9?$AAU?$AAZ?$AA?9?$AAC?$AAy?$AAr?$AAl?$AA?$AA@ 0000000140028238     libcpmt:winapinls.obj
 0002:00004250       ??_C@_1O@LAOBCMDF@?$AAq?$AAu?$AAz?$AA?9?$AAE?$AAC?$AA?$AA@ 0000000140028250     libcpmt:winapinls.obj
 0002:00004260       ??_C@_1M@POEEMAIO@?$AAa?$AAr?$AA?9?$AAE?$AAG?$AA?$AA@ 0000000140028260     libcpmt:winapinls.obj
 0002:00004270       ??_C@_1M@EFAKDEDL@?$AAz?$AAh?$AA?9?$AAH?$AAK?$AA?$AA@ 0000000140028270     libcpmt:winapinls.obj
 0002:00004280       ??_C@_1M@HKKIJHGI@?$AAd?$AAe?$AA?9?$AAA?$AAT?$AA?$AA@ 0000000140028280     libcpmt:winapinls.obj
 0002:00004290       ??_C@_1M@KBFBEHJF@?$AAe?$AAn?$AA?9?$AAA?$AAU?$AA?$AA@ 0000000140028290     libcpmt:winapinls.obj
 0002:000042a0       ??_C@_1M@MNPLFAAH@?$AAe?$AAs?$AA?9?$AAE?$AAS?$AA?$AA@ 00000001400282a0     libcpmt:winapinls.obj
 0002:000042b0       ??_C@_1M@HJOOJFMA@?$AAf?$AAr?$AA?9?$AAC?$AAA?$AA?$AA@ 00000001400282b0     libcpmt:winapinls.obj
 0002:000042c0       ??_C@_1BG@JPOFPNAB@?$AAs?$AAr?$AA?9?$AAS?$AAP?$AA?9?$AAC?$AAy?$AAr?$AAl?$AA?$AA@ 00000001400282c0     libcpmt:winapinls.obj
 0002:000042d8       ??_C@_1M@LNFOCMOB@?$AAs?$AAe?$AA?9?$AAF?$AAI?$AA?$AA@ 00000001400282d8     libcpmt:winapinls.obj
 0002:000042e8       ??_C@_1O@MGJBOAMB@?$AAq?$AAu?$AAz?$AA?9?$AAP?$AAE?$AA?$AA@ 00000001400282e8     libcpmt:winapinls.obj
 0002:000042f8       ??_C@_1M@GJINLBOK@?$AAa?$AAr?$AA?9?$AAL?$AAY?$AA?$AA@ 00000001400282f8     libcpmt:winapinls.obj
 0002:00004308       ??_C@_1M@GGMNHJNL@?$AAz?$AAh?$AA?9?$AAS?$AAG?$AA?$AA@ 0000000140028308     libcpmt:winapinls.obj
 0002:00004318       ??_C@_1M@HOIKODND@?$AAd?$AAe?$AA?9?$AAL?$AAU?$AA?$AA@ 0000000140028318     libcpmt:winapinls.obj
 0002:00004328       ??_C@_1M@DDOCCGFG@?$AAe?$AAn?$AA?9?$AAC?$AAA?$AA?$AA@ 0000000140028328     libcpmt:winapinls.obj
 0002:00004338       ??_C@_1M@BNOEMJLF@?$AAe?$AAs?$AA?9?$AAG?$AAT?$AA?$AA@ 0000000140028338     libcpmt:winapinls.obj
 0002:00004348       ??_C@_1M@EOGNKEK@?$AAf?$AAr?$AA?9?$AAC?$AAH?$AA?$AA@ 0000000140028348     libcpmt:winapinls.obj
 0002:00004358       ??_C@_1M@FLIDJFHL@?$AAh?$AAr?$AA?9?$AAB?$AAA?$AA?$AA@ 0000000140028358     libcpmt:winapinls.obj
 0002:00004368       ??_C@_1O@FMCELNAJ@?$AAs?$AAm?$AAj?$AA?9?$AAN?$AAO?$AA?$AA@ 0000000140028368     libcpmt:winapinls.obj
 0002:00004378       ??_C@_1M@JHGLJMGJ@?$AAa?$AAr?$AA?9?$AAD?$AAZ?$AA?$AA@ 0000000140028378     libcpmt:winapinls.obj
 0002:00004388       ??_C@_1M@JKKFDCNP@?$AAz?$AAh?$AA?9?$AAM?$AAO?$AA?$AA@ 0000000140028388     libcpmt:winapinls.obj
 0002:00004398       ??_C@_1M@GEEFALPE@?$AAd?$AAe?$AA?9?$AAL?$AAI?$AA?$AA@ 0000000140028398     libcpmt:winapinls.obj
 0002:000043a8       ??_C@_1M@IGEOFBG@?$AAe?$AAn?$AA?9?$AAN?$AAZ?$AA?$AA@ 00000001400283a8     libcpmt:winapinls.obj
 0002:000043b8       ??_C@_1M@KDBONEHP@?$AAe?$AAs?$AA?9?$AAC?$AAR?$AA?$AA@ 00000001400283b8     libcpmt:winapinls.obj
 0002:000043c8       ??_C@_1M@FHMDOHNN@?$AAf?$AAr?$AA?9?$AAL?$AAU?$AA?$AA@ 00000001400283c8     libcpmt:winapinls.obj
 0002:000043d8       ??_C@_1BG@NFKKMAFG@?$AAb?$AAs?$AA?9?$AAB?$AAA?$AA?9?$AAL?$AAa?$AAt?$AAn?$AA?$AA@ 00000001400283d8     libcpmt:winapinls.obj
 0002:000043f0       ??_C@_1O@IMNBEMCI@?$AAs?$AAm?$AAj?$AA?9?$AAS?$AAE?$AA?$AA@ 00000001400283f0     libcpmt:winapinls.obj
 0002:00004400       ??_C@_1M@DHHMBNDP@?$AAa?$AAr?$AA?9?$AAM?$AAA?$AA?$AA@ 0000000140028400     libcpmt:winapinls.obj
 0002:00004410       ??_C@_1M@BNBLJCGH@?$AAe?$AAn?$AA?9?$AAI?$AAE?$AA?$AA@ 0000000140028410     libcpmt:winapinls.obj
 0002:00004420       ??_C@_1M@GEPAFMDL@?$AAe?$AAs?$AA?9?$AAP?$AAA?$AA?$AA@ 0000000140028420     libcpmt:winapinls.obj
 0002:00004430       ??_C@_1M@OJONDMDL@?$AAf?$AAr?$AA?9?$AAM?$AAC?$AA?$AA@ 0000000140028430     libcpmt:winapinls.obj
 0002:00004440       ??_C@_1BG@OBCNFJB@?$AAs?$AAr?$AA?9?$AAB?$AAA?$AA?9?$AAL?$AAa?$AAt?$AAn?$AA?$AA@ 0000000140028440     libcpmt:winapinls.obj
 0002:00004458       ??_C@_1O@KEMEEGPO@?$AAs?$AAm?$AAa?$AA?9?$AAN?$AAO?$AA?$AA@ 0000000140028458     libcpmt:winapinls.obj
 0002:00004468       ??_C@_1M@ELMGFODK@?$AAa?$AAr?$AA?9?$AAT?$AAN?$AA?$AA@ 0000000140028468     libcpmt:winapinls.obj
 0002:00004478       ??_C@_1M@BHDLHFAF@?$AAe?$AAn?$AA?9?$AAZ?$AAA?$AA?$AA@ 0000000140028478     libcpmt:winapinls.obj
 0002:00004488       ??_C@_1M@BMGIGLIF@?$AAe?$AAs?$AA?9?$AAD?$AAO?$AA?$AA@ 0000000140028488     libcpmt:winapinls.obj
 0002:00004498       ??_C@_1BG@CMBHIPBE@?$AAs?$AAr?$AA?9?$AAB?$AAA?$AA?9?$AAC?$AAy?$AAr?$AAl?$AA?$AA@ 0000000140028498     libcpmt:winapinls.obj
 0002:000044b0       ??_C@_1O@HEDBLHNP@?$AAs?$AAm?$AAa?$AA?9?$AAS?$AAE?$AA?$AA@ 00000001400284b0     libcpmt:winapinls.obj
 0002:000044c0       ??_C@_1M@DAGCADIM@?$AAa?$AAr?$AA?9?$AAO?$AAM?$AA?$AA@ 00000001400284c0     libcpmt:winapinls.obj
 0002:000044d0       ??_C@_1M@FODLMICG@?$AAe?$AAn?$AA?9?$AAJ?$AAM?$AA?$AA@ 00000001400284d0     libcpmt:winapinls.obj
 0002:000044e0       ??_C@_1M@DNMLCIHB@?$AAe?$AAs?$AA?9?$AAV?$AAE?$AA?$AA@ 00000001400284e0     libcpmt:winapinls.obj
 0002:000044f0       ??_C@_1O@EOKHMKJK@?$AAs?$AAm?$AAs?$AA?9?$AAF?$AAI?$AA?$AA@ 00000001400284f0     libcpmt:winapinls.obj
 0002:00004500       ??_C@_1M@CAFJMKOF@?$AAa?$AAr?$AA?9?$AAY?$AAE?$AA?$AA@ 0000000140028500     libcpmt:winapinls.obj
 0002:00004510       ??_C@_1M@CBFHIJLI@?$AAe?$AAn?$AA?9?$AAC?$AAB?$AA?$AA@ 0000000140028510     libcpmt:winapinls.obj
 0002:00004520       ??_C@_1M@BGNFLDN@?$AAe?$AAs?$AA?9?$AAC?$AAO?$AA?$AA@ 0000000140028520     libcpmt:winapinls.obj
 0002:00004530       ??_C@_1O@JMPHMAMC@?$AAs?$AAm?$AAn?$AA?9?$AAF?$AAI?$AA?$AA@ 0000000140028530     libcpmt:winapinls.obj
 0002:00004540       ??_C@_1M@JLANABKE@?$AAa?$AAr?$AA?9?$AAS?$AAY?$AA?$AA@ 0000000140028540     libcpmt:winapinls.obj
 0002:00004550       ??_C@_1M@HPKGCFGN@?$AAe?$AAn?$AA?9?$AAB?$AAZ?$AA?$AA@ 0000000140028550     libcpmt:winapinls.obj
 0002:00004560       ??_C@_1M@OLJCMLGM@?$AAe?$AAs?$AA?9?$AAP?$AAE?$AA?$AA@ 0000000140028560     libcpmt:winapinls.obj
 0002:00004570       ??_C@_1M@MKKGFKLE@?$AAa?$AAr?$AA?9?$AAJ?$AAO?$AA?$AA@ 0000000140028570     libcpmt:winapinls.obj
 0002:00004580       ??_C@_1M@EKPGLDNI@?$AAe?$AAn?$AA?9?$AAT?$AAT?$AA?$AA@ 0000000140028580     libcpmt:winapinls.obj
 0002:00004590       ??_C@_1M@OONGHFHE@?$AAe?$AAs?$AA?9?$AAA?$AAR?$AA?$AA@ 0000000140028590     libcpmt:winapinls.obj
 0002:000045a0       ??_C@_1M@OOJFGBHE@?$AAa?$AAr?$AA?9?$AAL?$AAB?$AA?$AA@ 00000001400285a0     libcpmt:winapinls.obj
 0002:000045b0       ??_C@_1M@GCEJHNEG@?$AAe?$AAn?$AA?9?$AAZ?$AAW?$AA?$AA@ 00000001400285b0     libcpmt:winapinls.obj
 0002:000045c0       ??_C@_1M@JNOCAHJI@?$AAe?$AAs?$AA?9?$AAE?$AAC?$AA?$AA@ 00000001400285c0     libcpmt:winapinls.obj
 0002:000045d0       ??_C@_1M@JEFHPGGB@?$AAa?$AAr?$AA?9?$AAK?$AAW?$AA?$AA@ 00000001400285d0     libcpmt:winapinls.obj
 0002:000045e0       ??_C@_1M@MLKIBJOJ@?$AAe?$AAn?$AA?9?$AAP?$AAH?$AA?$AA@ 00000001400285e0     libcpmt:winapinls.obj
 0002:000045f0       ??_C@_1M@BDNIPEND@?$AAe?$AAs?$AA?9?$AAC?$AAL?$AA?$AA@ 00000001400285f0     libcpmt:winapinls.obj
 0002:00004600       ??_C@_1M@MPNMEKBD@?$AAa?$AAr?$AA?9?$AAA?$AAE?$AA?$AA@ 0000000140028600     libcpmt:winapinls.obj
 0002:00004610       ??_C@_1M@KBJALCPI@?$AAe?$AAs?$AA?9?$AAU?$AAY?$AA?$AA@ 0000000140028610     libcpmt:winapinls.obj
 0002:00004620       ??_C@_1M@LLCCOAGA@?$AAa?$AAr?$AA?9?$AAB?$AAH?$AA?$AA@ 0000000140028620     libcpmt:winapinls.obj
 0002:00004630       ??_C@_1M@PBFNCDEL@?$AAe?$AAs?$AA?9?$AAP?$AAY?$AA?$AA@ 0000000140028630     libcpmt:winapinls.obj
 0002:00004640       ??_C@_1M@EDGINPNP@?$AAa?$AAr?$AA?9?$AAQ?$AAA?$AA?$AA@ 0000000140028640     libcpmt:winapinls.obj
 0002:00004650       ??_C@_1M@MKDBIIJI@?$AAe?$AAs?$AA?9?$AAB?$AAO?$AA?$AA@ 0000000140028650     libcpmt:winapinls.obj
 0002:00004660       ??_C@_1M@CPKKEBLD@?$AAe?$AAs?$AA?9?$AAS?$AAV?$AA?$AA@ 0000000140028660     libcpmt:winapinls.obj
 0002:00004670       ??_C@_1M@NDBGMMJL@?$AAe?$AAs?$AA?9?$AAH?$AAN?$AA?$AA@ 0000000140028670     libcpmt:winapinls.obj
 0002:00004680       ??_C@_1M@JIJIBHDP@?$AAe?$AAs?$AA?9?$AAN?$AAI?$AA?$AA@ 0000000140028680     libcpmt:winapinls.obj
 0002:00004690       ??_C@_1M@CGFMKEEK@?$AAe?$AAs?$AA?9?$AAP?$AAR?$AA?$AA@ 0000000140028690     libcpmt:winapinls.obj
 0002:000046a0       ??_C@_1O@ICJHKIIK@?$AAz?$AAh?$AA?9?$AAC?$AAH?$AAT?$AA?$AA@ 00000001400286a0     libcpmt:winapinls.obj
 0002:000046b0       ??_C@_15CLNEJCE@?$AAs?$AAr?$AA?$AA@ 00000001400286b0     libcpmt:winapinls.obj
 0002:000046b8       ??_C@_1M@KAHEKEIG@?$AAa?$AAf?$AA?9?$AAz?$AAa?$AA?$AA@ 00000001400286b8     libcpmt:winapinls.obj
 0002:000046c8       ??_C@_1M@GIECOABL@?$AAa?$AAr?$AA?9?$AAa?$AAe?$AA?$AA@ 00000001400286c8     libcpmt:winapinls.obj
 0002:000046d8       ??_C@_1M@BMLMEKGI@?$AAa?$AAr?$AA?9?$AAb?$AAh?$AA?$AA@ 00000001400286d8     libcpmt:winapinls.obj
 0002:000046e8       ??_C@_1M@DAPFDGGB@?$AAa?$AAr?$AA?9?$AAd?$AAz?$AA?$AA@ 00000001400286e8     libcpmt:winapinls.obj
 0002:000046f8       ??_C@_1M@FJNKGKIG@?$AAa?$AAr?$AA?9?$AAe?$AAg?$AA?$AA@ 00000001400286f8     libcpmt:winapinls.obj
 0002:00004708       ??_C@_1M@FLGKKCLO@?$AAa?$AAr?$AA?9?$AAi?$AAq?$AA?$AA@ 0000000140028708     libcpmt:winapinls.obj
 0002:00004718       ??_C@_1M@GNDIPALM@?$AAa?$AAr?$AA?9?$AAj?$AAo?$AA?$AA@ 0000000140028718     libcpmt:winapinls.obj
 0002:00004728       ??_C@_1M@DDMJFMGJ@?$AAa?$AAr?$AA?9?$AAk?$AAw?$AA?$AA@ 0000000140028728     libcpmt:winapinls.obj
 0002:00004738       ??_C@_1M@EJALMLHM@?$AAa?$AAr?$AA?9?$AAl?$AAb?$AA?$AA@ 0000000140028738     libcpmt:winapinls.obj
 0002:00004748       ??_C@_1M@MOBDBLOC@?$AAa?$AAr?$AA?9?$AAl?$AAy?$AA?$AA@ 0000000140028748     libcpmt:winapinls.obj
 0002:00004758       ??_C@_1M@JAOCLHDH@?$AAa?$AAr?$AA?9?$AAm?$AAa?$AA?$AA@ 0000000140028758     libcpmt:winapinls.obj
 0002:00004768       ??_C@_1M@JHPMKJIE@?$AAa?$AAr?$AA?9?$AAo?$AAm?$AA?$AA@ 0000000140028768     libcpmt:winapinls.obj
 0002:00004778       ??_C@_1M@OEPGHFNH@?$AAa?$AAr?$AA?9?$AAq?$AAa?$AA?$AA@ 0000000140028778     libcpmt:winapinls.obj
 0002:00004788       ??_C@_1M@KJDONENM@?$AAa?$AAr?$AA?9?$AAs?$AAa?$AA?$AA@ 0000000140028788     libcpmt:winapinls.obj
 0002:00004798       ??_C@_1M@DMJDKLKM@?$AAa?$AAr?$AA?9?$AAs?$AAy?$AA?$AA@ 0000000140028798     libcpmt:winapinls.obj
 0002:000047a8       ??_C@_1M@OMFIPEDC@?$AAa?$AAr?$AA?9?$AAt?$AAn?$AA?$AA@ 00000001400287a8     libcpmt:winapinls.obj
 0002:000047b8       ??_C@_1M@IHMHGAON@?$AAa?$AAr?$AA?9?$AAy?$AAe?$AA?$AA@ 00000001400287b8     libcpmt:winapinls.obj
 0002:000047c8       ??_C@_1BG@KDCPGJGB@?$AAa?$AAz?$AA?9?$AAa?$AAz?$AA?9?$AAc?$AAy?$AAr?$AAl?$AA?$AA@ 00000001400287c8     libcpmt:winapinls.obj
 0002:000047e0       ??_C@_1BG@IBCKDDOE@?$AAa?$AAz?$AA?9?$AAa?$AAz?$AA?9?$AAl?$AAa?$AAt?$AAn?$AA?$AA@ 00000001400287e0     libcpmt:winapinls.obj
 0002:000047f8       ??_C@_1M@EGPFDCPD@?$AAb?$AAe?$AA?9?$AAb?$AAy?$AA?$AA@ 00000001400287f8     libcpmt:winapinls.obj
 0002:00004808       ??_C@_1M@PCMGMCGC@?$AAb?$AAg?$AA?9?$AAb?$AAg?$AA?$AA@ 0000000140028808     libcpmt:winapinls.obj
 0002:00004818       ??_C@_1M@BJBMFGOB@?$AAb?$AAn?$AA?9?$AAi?$AAn?$AA?$AA@ 0000000140028818     libcpmt:winapinls.obj
 0002:00004828       ??_C@_1BG@EAKMMACD@?$AAb?$AAs?$AA?9?$AAb?$AAa?$AA?9?$AAl?$AAa?$AAt?$AAn?$AA?$AA@ 0000000140028828     libcpmt:winapinls.obj
 0002:00004840       ??_C@_1M@KGADAODK@?$AAc?$AAa?$AA?9?$AAe?$AAs?$AA?$AA@ 0000000140028840     libcpmt:winapinls.obj
 0002:00004850       ??_C@_1M@COAJPDHI@?$AAc?$AAs?$AA?9?$AAc?$AAz?$AA?$AA@ 0000000140028850     libcpmt:winapinls.obj
 0002:00004860       ??_C@_1M@DHBHFONH@?$AAc?$AAy?$AA?9?$AAg?$AAb?$AA?$AA@ 0000000140028860     libcpmt:winapinls.obj
 0002:00004870       ??_C@_1M@IMGKELGA@?$AAd?$AAa?$AA?9?$AAd?$AAk?$AA?$AA@ 0000000140028870     libcpmt:winapinls.obj
 0002:00004880       ??_C@_1M@NNDGDNGA@?$AAd?$AAe?$AA?9?$AAa?$AAt?$AA?$AA@ 0000000140028880     libcpmt:winapinls.obj
 0002:00004890       ??_C@_1M@IKDBHEEM@?$AAd?$AAe?$AA?9?$AAc?$AAh?$AA?$AA@ 0000000140028890     libcpmt:winapinls.obj
 0002:000048a0       ??_C@_1M@GFFOJMCJ@?$AAd?$AAe?$AA?9?$AAd?$AAe?$AA?$AA@ 00000001400288a0     libcpmt:winapinls.obj
 0002:000048b0       ??_C@_1M@MDNLKBPM@?$AAd?$AAe?$AA?9?$AAl?$AAi?$AA?$AA@ 00000001400288b0     libcpmt:winapinls.obj
 0002:000048c0       ??_C@_1M@NJBEEJNL@?$AAd?$AAe?$AA?9?$AAl?$AAu?$AA?$AA@ 00000001400288c0     libcpmt:winapinls.obj
 0002:000048d0       ??_C@_1O@GNNELBAP@?$AAd?$AAi?$AAv?$AA?9?$AAm?$AAv?$AA?$AA@ 00000001400288d0     libcpmt:winapinls.obj
 0002:000048e0       ??_C@_1M@EJLEOGAE@?$AAe?$AAl?$AA?9?$AAg?$AAr?$AA?$AA@ 00000001400288e0     libcpmt:winapinls.obj
 0002:000048f0       ??_C@_1M@GMPONJN@?$AAe?$AAn?$AA?9?$AAa?$AAu?$AA?$AA@ 00000001400288f0     libcpmt:winapinls.obj
 0002:00004900       ??_C@_1M@NIDIIPGF@?$AAe?$AAn?$AA?9?$AAb?$AAz?$AA?$AA@ 0000000140028900     libcpmt:winapinls.obj
 0002:00004910       ??_C@_1M@JEHMIMFO@?$AAe?$AAn?$AA?9?$AAc?$AAa?$AA?$AA@ 0000000140028910     libcpmt:winapinls.obj
 0002:00004920       ??_C@_1M@IGMJCDLA@?$AAe?$AAn?$AA?9?$AAc?$AAb?$AA?$AA@ 0000000140028920     libcpmt:winapinls.obj
 0002:00004930       ??_C@_1M@BNFIGBKG@?$AAe?$AAn?$AA?9?$AAg?$AAb?$AA?$AA@ 0000000140028930     libcpmt:winapinls.obj
 0002:00004940       ??_C@_1M@LKIFDIGP@?$AAe?$AAn?$AA?9?$AAi?$AAe?$AA?$AA@ 0000000140028940     libcpmt:winapinls.obj
 0002:00004950       ??_C@_1M@PJKFGCCO@?$AAe?$AAn?$AA?9?$AAj?$AAm?$AA?$AA@ 0000000140028950     libcpmt:winapinls.obj
 0002:00004960       ??_C@_1M@KPPKEPBO@?$AAe?$AAn?$AA?9?$AAn?$AAz?$AA?$AA@ 0000000140028960     libcpmt:winapinls.obj
 0002:00004970       ??_C@_1M@GMDGLDOB@?$AAe?$AAn?$AA?9?$AAp?$AAh?$AA?$AA@ 0000000140028970     libcpmt:winapinls.obj
 0002:00004980       ??_C@_1M@ONGIBJNA@?$AAe?$AAn?$AA?9?$AAt?$AAt?$AA?$AA@ 0000000140028980     libcpmt:winapinls.obj
 0002:00004990       ??_C@_1M@LLODPCMM@?$AAe?$AAn?$AA?9?$AAu?$AAs?$AA?$AA@ 0000000140028990     libcpmt:winapinls.obj
 0002:000049a0       ??_C@_1M@LAKFNPAN@?$AAe?$AAn?$AA?9?$AAz?$AAa?$AA?$AA@ 00000001400289a0     libcpmt:winapinls.obj
 0002:000049b0       ??_C@_1M@MFNHNHEO@?$AAe?$AAn?$AA?9?$AAz?$AAw?$AA?$AA@ 00000001400289b0     libcpmt:winapinls.obj
 0002:000049c0       ??_C@_1M@EJEINPHM@?$AAe?$AAs?$AA?9?$AAa?$AAr?$AA?$AA@ 00000001400289c0     libcpmt:winapinls.obj
 0002:000049d0       ??_C@_1M@GNKPCCJA@?$AAe?$AAs?$AA?9?$AAb?$AAo?$AA?$AA@ 00000001400289d0     libcpmt:winapinls.obj
 0002:000049e0       ??_C@_1M@LEEGFONL@?$AAe?$AAs?$AA?9?$AAc?$AAl?$AA?$AA@ 00000001400289e0     libcpmt:winapinls.obj
 0002:000049f0       ??_C@_1M@KGPDPBDF@?$AAe?$AAs?$AA?9?$AAc?$AAo?$AA?$AA@ 00000001400289f0     libcpmt:winapinls.obj
 0002:00004a00       ??_C@_1M@EIAHOHH@?$AAe?$AAs?$AA?9?$AAc?$AAr?$AA?$AA@ 0000000140028a00     libcpmt:winapinls.obj
 0002:00004a10       ??_C@_1M@LLPGMBIN@?$AAe?$AAs?$AA?9?$AAd?$AAo?$AA?$AA@ 0000000140028a10     libcpmt:winapinls.obj
 0002:00004a20       ??_C@_1M@DKHMKNJA@?$AAe?$AAs?$AA?9?$AAe?$AAc?$AA?$AA@ 0000000140028a20     libcpmt:winapinls.obj
 0002:00004a30       ??_C@_1M@GKGFPKAP@?$AAe?$AAs?$AA?9?$AAe?$AAs?$AA?$AA@ 0000000140028a30     libcpmt:winapinls.obj
 0002:00004a40       ??_C@_1M@LKHKGDLN@?$AAe?$AAs?$AA?9?$AAg?$AAt?$AA?$AA@ 0000000140028a40     libcpmt:winapinls.obj
 0002:00004a50       ??_C@_1M@HEIIGGJD@?$AAe?$AAs?$AA?9?$AAh?$AAn?$AA?$AA@ 0000000140028a50     libcpmt:winapinls.obj
 0002:00004a60       ??_C@_1M@FBDHPPGD@?$AAe?$AAs?$AA?9?$AAm?$AAx?$AA?$AA@ 0000000140028a60     libcpmt:winapinls.obj
 0002:00004a70       ??_C@_1M@DPAGLNDH@?$AAe?$AAs?$AA?9?$AAn?$AAi?$AA?$AA@ 0000000140028a70     libcpmt:winapinls.obj
 0002:00004a80       ??_C@_1M@MDGOPGDD@?$AAe?$AAs?$AA?9?$AAp?$AAa?$AA?$AA@ 0000000140028a80     libcpmt:winapinls.obj
 0002:00004a90       ??_C@_1M@EMAMGBGE@?$AAe?$AAs?$AA?9?$AAp?$AAe?$AA?$AA@ 0000000140028a90     libcpmt:winapinls.obj
 0002:00004aa0       ??_C@_1M@IBMCAOEC@?$AAe?$AAs?$AA?9?$AAp?$AAr?$AA?$AA@ 0000000140028aa0     libcpmt:winapinls.obj
 0002:00004ab0       ??_C@_1M@FGMDIJED@?$AAe?$AAs?$AA?9?$AAp?$AAy?$AA?$AA@ 0000000140028ab0     libcpmt:winapinls.obj
 0002:00004ac0       ??_C@_1M@IIDEOLLL@?$AAe?$AAs?$AA?9?$AAs?$AAv?$AA?$AA@ 0000000140028ac0     libcpmt:winapinls.obj
 0002:00004ad0       ??_C@_1M@GAOBIPA@?$AAe?$AAs?$AA?9?$AAu?$AAy?$AA?$AA@ 0000000140028ad0     libcpmt:winapinls.obj
 0002:00004ae0       ??_C@_1M@JKFFICHJ@?$AAe?$AAs?$AA?9?$AAv?$AAe?$AA?$AA@ 0000000140028ae0     libcpmt:winapinls.obj
 0002:00004af0       ??_C@_1M@PNMLOJDF@?$AAe?$AAt?$AA?9?$AAe?$AAe?$AA?$AA@ 0000000140028af0     libcpmt:winapinls.obj
 0002:00004b00       ??_C@_1M@GHHLIKEI@?$AAe?$AAu?$AA?9?$AAe?$AAs?$AA?$AA@ 0000000140028b00     libcpmt:winapinls.obj
 0002:00004b10       ??_C@_1M@PBNONODE@?$AAf?$AAa?$AA?9?$AAi?$AAr?$AA?$AA@ 0000000140028b10     libcpmt:winapinls.obj
 0002:00004b20       ??_C@_1M@JEEHPMIL@?$AAf?$AAi?$AA?9?$AAf?$AAi?$AA?$AA@ 0000000140028b20     libcpmt:winapinls.obj
 0002:00004b30       ??_C@_1M@LMDCNDBA@?$AAf?$AAo?$AA?9?$AAf?$AAo?$AA?$AA@ 0000000140028b30     libcpmt:winapinls.obj
 0002:00004b40       ??_C@_1M@JKEOHLDK@?$AAf?$AAr?$AA?9?$AAb?$AAe?$AA?$AA@ 0000000140028b40     libcpmt:winapinls.obj
 0002:00004b50       ??_C@_1M@NOHADPMI@?$AAf?$AAr?$AA?9?$AAc?$AAa?$AA?$AA@ 0000000140028b50     libcpmt:winapinls.obj
 0002:00004b60       ??_C@_1M@KDHIHAEC@?$AAf?$AAr?$AA?9?$AAc?$AAh?$AA?$AA@ 0000000140028b60     libcpmt:winapinls.obj
 0002:00004b70       ??_C@_1M@MMBBFGAK@?$AAf?$AAr?$AA?9?$AAf?$AAr?$AA?$AA@ 0000000140028b70     libcpmt:winapinls.obj
 0002:00004b80       ??_C@_1M@PAFNENNF@?$AAf?$AAr?$AA?9?$AAl?$AAu?$AA?$AA@ 0000000140028b80     libcpmt:winapinls.obj
 0002:00004b90       ??_C@_1M@EOHDJGDD@?$AAf?$AAr?$AA?9?$AAm?$AAc?$AA?$AA@ 0000000140028b90     libcpmt:winapinls.obj
 0002:00004ba0       ??_C@_1M@FAPLLOPF@?$AAg?$AAl?$AA?9?$AAe?$AAs?$AA?$AA@ 0000000140028ba0     libcpmt:winapinls.obj
 0002:00004bb0       ??_C@_1M@FOPBFLOO@?$AAg?$AAu?$AA?9?$AAi?$AAn?$AA?$AA@ 0000000140028bb0     libcpmt:winapinls.obj
 0002:00004bc0       ??_C@_1M@KBMCINPM@?$AAh?$AAe?$AA?9?$AAi?$AAl?$AA?$AA@ 0000000140028bc0     libcpmt:winapinls.obj
 0002:00004bd0       ??_C@_1M@BBPHKFPJ@?$AAh?$AAi?$AA?9?$AAi?$AAn?$AA?$AA@ 0000000140028bd0     libcpmt:winapinls.obj
 0002:00004be0       ??_C@_1M@PMBNDPHD@?$AAh?$AAr?$AA?9?$AAb?$AAa?$AA?$AA@ 0000000140028be0     libcpmt:winapinls.obj
 0002:00004bf0       ??_C@_1M@BPCKOEGE@?$AAh?$AAr?$AA?9?$AAh?$AAr?$AA?$AA@ 0000000140028bf0     libcpmt:winapinls.obj
 0002:00004c00       ??_C@_1M@GACBMHKE@?$AAh?$AAu?$AA?9?$AAh?$AAu?$AA?$AA@ 0000000140028c00     libcpmt:winapinls.obj
 0002:00004c10       ??_C@_1M@MILPAJJC@?$AAh?$AAy?$AA?9?$AAa?$AAm?$AA?$AA@ 0000000140028c10     libcpmt:winapinls.obj
 0002:00004c20       ??_C@_1M@BABBICEC@?$AAi?$AAd?$AA?9?$AAi?$AAd?$AA?$AA@ 0000000140028c20     libcpmt:winapinls.obj
 0002:00004c30       ??_C@_1M@BIKNHHPF@?$AAi?$AAs?$AA?9?$AAi?$AAs?$AA?$AA@ 0000000140028c30     libcpmt:winapinls.obj
 0002:00004c40       ??_C@_1M@NMPCJPHE@?$AAi?$AAt?$AA?9?$AAc?$AAh?$AA?$AA@ 0000000140028c40     libcpmt:winapinls.obj
 0002:00004c50       ??_C@_1M@GHKGFEDF@?$AAi?$AAt?$AA?9?$AAi?$AAt?$AA?$AA@ 0000000140028c50     libcpmt:winapinls.obj
 0002:00004c60       ??_C@_1M@NIEJCJJA@?$AAj?$AAa?$AA?9?$AAj?$AAp?$AA?$AA@ 0000000140028c60     libcpmt:winapinls.obj
 0002:00004c70       ??_C@_1M@JILFNBIM@?$AAk?$AAa?$AA?9?$AAg?$AAe?$AA?$AA@ 0000000140028c70     libcpmt:winapinls.obj
 0002:00004c80       ??_C@_1M@PACPMGPH@?$AAk?$AAk?$AA?9?$AAk?$AAz?$AA?$AA@ 0000000140028c80     libcpmt:winapinls.obj
 0002:00004c90       ??_C@_1M@IELFGMHA@?$AAk?$AAn?$AA?9?$AAi?$AAn?$AA?$AA@ 0000000140028c90     libcpmt:winapinls.obj
 0002:00004ca0       ??_C@_1M@DMHAEOGC@?$AAk?$AAo?$AA?9?$AAk?$AAr?$AA?$AA@ 0000000140028ca0     libcpmt:winapinls.obj
 0002:00004cb0       ??_C@_1O@IBBJHCH@?$AAk?$AAo?$AAk?$AA?9?$AAi?$AAn?$AA?$AA@ 0000000140028cb0     libcpmt:winapinls.obj
 0002:00004cc0       ??_C@_1M@HBAHBIGA@?$AAk?$AAy?$AA?9?$AAk?$AAg?$AA?$AA@ 0000000140028cc0     libcpmt:winapinls.obj
 0002:00004cd0       ??_C@_1M@KPMILCJG@?$AAl?$AAt?$AA?9?$AAl?$AAt?$AA?$AA@ 0000000140028cd0     libcpmt:winapinls.obj
 0002:00004ce0       ??_C@_1M@BDEKKCA@?$AAl?$AAv?$AA?9?$AAl?$AAv?$AA?$AA@ 0000000140028ce0     libcpmt:winapinls.obj
 0002:00004cf0       ??_C@_1M@ELCKCCJJ@?$AAm?$AAi?$AA?9?$AAn?$AAz?$AA?$AA@ 0000000140028cf0     libcpmt:winapinls.obj
 0002:00004d00       ??_C@_1M@CBOOLAPA@?$AAm?$AAk?$AA?9?$AAm?$AAk?$AA?$AA@ 0000000140028d00     libcpmt:winapinls.obj
 0002:00004d10       ??_C@_1M@GPHNBJKN@?$AAm?$AAl?$AA?9?$AAi?$AAn?$AA?$AA@ 0000000140028d10     libcpmt:winapinls.obj
 0002:00004d20       ??_C@_1M@PABJILIG@?$AAm?$AAn?$AA?9?$AAm?$AAn?$AA?$AA@ 0000000140028d20     libcpmt:winapinls.obj
 0002:00004d30       ??_C@_1M@FGBKKIPG@?$AAm?$AAr?$AA?9?$AAi?$AAn?$AA?$AA@ 0000000140028d30     libcpmt:winapinls.obj
 0002:00004d40       ??_C@_1M@NDBPDDAL@?$AAm?$AAs?$AA?9?$AAb?$AAn?$AA?$AA@ 0000000140028d40     libcpmt:winapinls.obj
 0002:00004d50       ??_C@_1M@OPIHOOPI@?$AAm?$AAs?$AA?9?$AAm?$AAy?$AA?$AA@ 0000000140028d50     libcpmt:winapinls.obj
 0002:00004d60       ??_C@_1M@PPDBCNFM@?$AAm?$AAt?$AA?9?$AAm?$AAt?$AA?$AA@ 0000000140028d60     libcpmt:winapinls.obj
 0002:00004d70       ??_C@_1M@KDJDKMDD@?$AAn?$AAb?$AA?9?$AAn?$AAo?$AA?$AA@ 0000000140028d70     libcpmt:winapinls.obj
 0002:00004d80       ??_C@_1M@KFCFLMJP@?$AAn?$AAl?$AA?9?$AAb?$AAe?$AA?$AA@ 0000000140028d80     libcpmt:winapinls.obj
 0002:00004d90       ??_C@_1M@KPOPDDGO@?$AAn?$AAl?$AA?9?$AAn?$AAl?$AA?$AA@ 0000000140028d90     libcpmt:winapinls.obj
 0002:00004da0       ??_C@_1M@LJKPEMLN@?$AAn?$AAn?$AA?9?$AAn?$AAo?$AA?$AA@ 0000000140028da0     libcpmt:winapinls.obj
 0002:00004db0       ??_C@_1M@BDGHHBFL@?$AAn?$AAs?$AA?9?$AAz?$AAa?$AA?$AA@ 0000000140028db0     libcpmt:winapinls.obj
 0002:00004dc0       ??_C@_1M@IDEHOAP@?$AAp?$AAa?$AA?9?$AAi?$AAn?$AA?$AA@ 0000000140028dc0     libcpmt:winapinls.obj
 0002:00004dd0       ??_C@_1M@HDBKGOGH@?$AAp?$AAl?$AA?9?$AAp?$AAl?$AA?$AA@ 0000000140028dd0     libcpmt:winapinls.obj
 0002:00004de0       ??_C@_1M@LJLLCMEH@?$AAp?$AAt?$AA?9?$AAb?$AAr?$AA?$AA@ 0000000140028de0     libcpmt:winapinls.obj
 0002:00004df0       ??_C@_1M@NCMONAAL@?$AAp?$AAt?$AA?9?$AAp?$AAt?$AA?$AA@ 0000000140028df0     libcpmt:winapinls.obj
 0002:00004e00       ??_C@_1O@EAKMAJDN@?$AAq?$AAu?$AAz?$AA?9?$AAb?$AAo?$AA?$AA@ 0000000140028e00     libcpmt:winapinls.obj
 0002:00004e10       ??_C@_1O@BHHPIGDN@?$AAq?$AAu?$AAz?$AA?9?$AAe?$AAc?$AA?$AA@ 0000000140028e10     libcpmt:winapinls.obj
 0002:00004e20       ??_C@_1O@GBAPEKMJ@?$AAq?$AAu?$AAz?$AA?9?$AAp?$AAe?$AA?$AA@ 0000000140028e20     libcpmt:winapinls.obj
 0002:00004e30       ??_C@_1M@CLGLEFBO@?$AAr?$AAo?$AA?9?$AAr?$AAo?$AA?$AA@ 0000000140028e30     libcpmt:winapinls.obj
 0002:00004e40       ??_C@_1M@CEEDODME@?$AAr?$AAu?$AA?9?$AAr?$AAu?$AA?$AA@ 0000000140028e40     libcpmt:winapinls.obj
 0002:00004e50       ??_C@_1M@HPKKKMPP@?$AAs?$AAa?$AA?9?$AAi?$AAn?$AA?$AA@ 0000000140028e50     libcpmt:winapinls.obj
 0002:00004e60       ??_C@_1M@BKMAIGOJ@?$AAs?$AAe?$AA?9?$AAf?$AAi?$AA?$AA@ 0000000140028e60     libcpmt:winapinls.obj
 0002:00004e70       ??_C@_1M@NDPIFLFI@?$AAs?$AAe?$AA?9?$AAn?$AAo?$AA?$AA@ 0000000140028e70     libcpmt:winapinls.obj
 0002:00004e80       ??_C@_1M@DANKKHJ@?$AAs?$AAe?$AA?9?$AAs?$AAe?$AA?$AA@ 0000000140028e80     libcpmt:winapinls.obj
 0002:00004e90       ??_C@_1M@PNBLONPJ@?$AAs?$AAk?$AA?9?$AAs?$AAk?$AA?$AA@ 0000000140028e90     libcpmt:winapinls.obj
 0002:00004ea0       ??_C@_1M@LFMODOAL@?$AAs?$AAl?$AA?9?$AAs?$AAi?$AA?$AA@ 0000000140028ea0     libcpmt:winapinls.obj
 0002:00004eb0       ??_C@_1O@DFKOMPG@?$AAs?$AAm?$AAa?$AA?9?$AAn?$AAo?$AA?$AA@ 0000000140028eb0     libcpmt:winapinls.obj
 0002:00004ec0       ??_C@_1O@NDKPBNNH@?$AAs?$AAm?$AAa?$AA?9?$AAs?$AAe?$AA?$AA@ 0000000140028ec0     libcpmt:winapinls.obj
 0002:00004ed0       ??_C@_1O@PLLKBHAB@?$AAs?$AAm?$AAj?$AA?9?$AAn?$AAo?$AA?$AA@ 0000000140028ed0     libcpmt:winapinls.obj
 0002:00004ee0       ??_C@_1O@CLEPOGCA@?$AAs?$AAm?$AAj?$AA?9?$AAs?$AAe?$AA?$AA@ 0000000140028ee0     libcpmt:winapinls.obj
 0002:00004ef0       ??_C@_1O@DLGJGKMK@?$AAs?$AAm?$AAn?$AA?9?$AAf?$AAi?$AA?$AA@ 0000000140028ef0     libcpmt:winapinls.obj
 0002:00004f00       ??_C@_1O@OJDJGAJC@?$AAs?$AAm?$AAs?$AA?9?$AAf?$AAi?$AA?$AA@ 0000000140028f00     libcpmt:winapinls.obj
 0002:00004f10       ??_C@_1M@BOFOGHPB@?$AAs?$AAq?$AA?9?$AAa?$AAl?$AA?$AA@ 0000000140028f10     libcpmt:winapinls.obj
 0002:00004f20       ??_C@_1BG@LJBBIPGB@?$AAs?$AAr?$AA?9?$AAb?$AAa?$AA?9?$AAc?$AAy?$AAr?$AAl?$AA?$AA@ 0000000140028f20     libcpmt:winapinls.obj
 0002:00004f38       ??_C@_1BG@JLBENFOE@?$AAs?$AAr?$AA?9?$AAb?$AAa?$AA?9?$AAl?$AAa?$AAt?$AAn?$AA?$AA@ 0000000140028f38     libcpmt:winapinls.obj
 0002:00004f50       ??_C@_1BG@KODPNHE@?$AAs?$AAr?$AA?9?$AAs?$AAp?$AA?9?$AAc?$AAy?$AAr?$AAl?$AA?$AA@ 0000000140028f50     libcpmt:winapinls.obj
 0002:00004f68       ??_C@_1BG@CIOGKHPB@?$AAs?$AAr?$AA?9?$AAs?$AAp?$AA?9?$AAl?$AAa?$AAt?$AAn?$AA?$AA@ 0000000140028f68     libcpmt:winapinls.obj
 0002:00004f80       ??_C@_1M@NGFJLMAC@?$AAs?$AAv?$AA?9?$AAf?$AAi?$AA?$AA@ 0000000140028f80     libcpmt:winapinls.obj
 0002:00004f90       ??_C@_1M@MPJEJAJC@?$AAs?$AAv?$AA?9?$AAs?$AAe?$AA?$AA@ 0000000140028f90     libcpmt:winapinls.obj
 0002:00004fa0       ??_C@_1M@MPNDHLFK@?$AAs?$AAw?$AA?9?$AAk?$AAe?$AA?$AA@ 0000000140028fa0     libcpmt:winapinls.obj
 0002:00004fb0       ??_C@_1O@KOHBJJI@?$AAs?$AAy?$AAr?$AA?9?$AAs?$AAy?$AA?$AA@ 0000000140028fb0     libcpmt:winapinls.obj
 0002:00004fc0       ??_C@_1M@LDCEFHA@?$AAt?$AAa?$AA?9?$AAi?$AAn?$AA?$AA@ 0000000140028fc0     libcpmt:winapinls.obj
 0002:00004fd0       ??_C@_1M@CNJOFAK@?$AAt?$AAe?$AA?9?$AAi?$AAn?$AA?$AA@ 0000000140028fd0     libcpmt:winapinls.obj
 0002:00004fe0       ??_C@_1M@GNAECACD@?$AAt?$AAh?$AA?9?$AAt?$AAh?$AA?$AA@ 0000000140028fe0     libcpmt:winapinls.obj
 0002:00004ff0       ??_C@_1M@CHBIHOJO@?$AAt?$AAn?$AA?9?$AAz?$AAa?$AA?$AA@ 0000000140028ff0     libcpmt:winapinls.obj
 0002:00005000       ??_C@_1M@GCCMIGPJ@?$AAt?$AAr?$AA?9?$AAt?$AAr?$AA?$AA@ 0000000140029000     libcpmt:winapinls.obj
 0002:00005010       ??_C@_1M@CELMCNBK@?$AAt?$AAt?$AA?9?$AAr?$AAu?$AA?$AA@ 0000000140029010     libcpmt:winapinls.obj
 0002:00005020       ??_C@_1M@KLMCELGA@?$AAu?$AAk?$AA?9?$AAu?$AAa?$AA?$AA@ 0000000140029020     libcpmt:winapinls.obj
 0002:00005030       ??_C@_1M@EPAJJAJF@?$AAu?$AAr?$AA?9?$AAp?$AAk?$AA?$AA@ 0000000140029030     libcpmt:winapinls.obj
 0002:00005040       ??_C@_1BG@GEGPMCDJ@?$AAu?$AAz?$AA?9?$AAu?$AAz?$AA?9?$AAc?$AAy?$AAr?$AAl?$AA?$AA@ 0000000140029040     libcpmt:winapinls.obj
 0002:00005058       ??_C@_1BG@EGGKJILM@?$AAu?$AAz?$AA?9?$AAu?$AAz?$AA?9?$AAl?$AAa?$AAt?$AAn?$AA?$AA@ 0000000140029058     libcpmt:winapinls.obj
 0002:00005070       ??_C@_1M@GFOCLFF@?$AAv?$AAi?$AA?9?$AAv?$AAn?$AA?$AA@ 0000000140029070     libcpmt:winapinls.obj
 0002:00005080       ??_C@_1M@CPAMEDFI@?$AAx?$AAh?$AA?9?$AAz?$AAa?$AA?$AA@ 0000000140029080     libcpmt:winapinls.obj
 0002:00005090       ??_C@_1O@EBKIFIGN@?$AAz?$AAh?$AA?9?$AAc?$AAh?$AAs?$AA?$AA@ 0000000140029090     libcpmt:winapinls.obj
 0002:000050a0       ??_C@_1O@NMHPGANE@?$AAz?$AAh?$AA?9?$AAc?$AAh?$AAt?$AA?$AA@ 00000001400290a0     libcpmt:winapinls.obj
 0002:000050b0       ??_C@_1M@LPINJOMC@?$AAz?$AAh?$AA?9?$AAc?$AAn?$AA?$AA@ 00000001400290b0     libcpmt:winapinls.obj
 0002:000050c0       ??_C@_1M@OCJEJODD@?$AAz?$AAh?$AA?9?$AAh?$AAk?$AA?$AA@ 00000001400290c0     libcpmt:winapinls.obj
 0002:000050d0       ??_C@_1M@DNDLJINH@?$AAz?$AAh?$AA?9?$AAm?$AAo?$AA?$AA@ 00000001400290d0     libcpmt:winapinls.obj
 0002:000050e0       ??_C@_1M@MBFDNDND@?$AAz?$AAh?$AA?9?$AAs?$AAg?$AA?$AA@ 00000001400290e0     libcpmt:winapinls.obj
 0002:000050f0       ??_C@_1M@IMEPLEPE@?$AAz?$AAh?$AA?9?$AAt?$AAw?$AA?$AA@ 00000001400290f0     libcpmt:winapinls.obj
 0002:00005100       ??_C@_1M@BBGHNHJP@?$AAz?$AAu?$AA?9?$AAz?$AAa?$AA?$AA@ 0000000140029100     libcpmt:winapinls.obj
 0002:00005118       ??_7type_info@@6B@         0000000140029118     LIBCMT:std_type_info_static.obj
 0002:00005138       ??_7bad_array_new_length@std@@6B@ 0000000140029138     LIBCMT:throw_bad_alloc.obj
 0002:00005148       ??_C@_0BF@KINCDENJ@bad?5array?5new?5length?$AA@ 0000000140029148     LIBCMT:throw_bad_alloc.obj
 0002:00005238       _pDestructExceptionObject  0000000140029238     libvcruntime:ehhelpers.obj
 0002:00005248       ??_7bad_exception@std@@6B@ 0000000140029248     libvcruntime:frame.obj
 0002:00005258       ??_C@_0O@DPKOEFFH@bad?5exception?$AA@ 0000000140029258     libvcruntime:frame.obj
 0002:00005280       ??_C@_1DM@KHCHBNEB@?$AAa?$AAp?$AAi?$AA?9?$AAm?$AAs?$AA?9?$AAw?$AAi?$AAn?$AA?9?$AAc?$AAo?$AAr?$AAe?$AA?9?$AAf?$AAi?$AAb?$AAe?$AAr?$AAs?$AA?9?$AAl?$AA1?$AA?9?$AA1?$AA?9?$AA1?$AA?$AA@ 0000000140029280     libvcruntime:winapi_downlevel.obj
 0002:000052c0       ??_C@_1DK@LPPGFMPP@?$AAa?$AAp?$AAi?$AA?9?$AAm?$AAs?$AA?9?$AAw?$AAi?$AAn?$AA?9?$AAc?$AAo?$AAr?$AAe?$AA?9?$AAs?$AAy?$AAn?$AAc?$AAh?$AA?9?$AAl?$AA1?$AA?9?$AA2?$AA?9?$AA0?$AA?$AA@ 00000001400292c0     libvcruntime:winapi_downlevel.obj
 0002:00005300       ??_C@_1BC@GDMECMAK@?$AAk?$AAe?$AAr?$AAn?$AAe?$AAl?$AA3?$AA2?$AA?$AA@ 0000000140029300     libvcruntime:winapi_downlevel.obj
 0002:00005318       ??_C@_1BA@PFFKHIOG@?$AAa?$AAp?$AAi?$AA?9?$AAm?$AAs?$AA?9?$AA?$AA@ 0000000140029318     libvcruntime:winapi_downlevel.obj
 0002:00005328       ??_C@_1BA@IAIFMGEF@?$AAe?$AAx?$AAt?$AA?9?$AAm?$AAs?$AA?9?$AA?$AA@ 0000000140029328     libvcruntime:winapi_downlevel.obj
 0002:00005690       ??_C@_08EHJDFFNH@__based?$CI?$AA@ 0000000140029690     libvcruntime:undname.obj
 0002:000056a0       ??_C@_07KOLFKCDI@__cdecl?$AA@ 00000001400296a0     libvcruntime:undname.obj
 0002:000056a8       ??_C@_08GHMPAG@__pascal?$AA@ 00000001400296a8     libvcruntime:undname.obj
 0002:000056b8       ??_C@_09IFJBGAPI@__stdcall?$AA@ 00000001400296b8     libvcruntime:undname.obj
 0002:000056c8       ??_C@_0L@NPHFGOKO@__thiscall?$AA@ 00000001400296c8     libvcruntime:undname.obj
 0002:000056d8       ??_C@_0L@JMKHOMEK@__fastcall?$AA@ 00000001400296d8     libvcruntime:undname.obj
 0002:000056e8       ??_C@_0N@BCKKPABJ@__vectorcall?$AA@ 00000001400296e8     libvcruntime:undname.obj
 0002:000056f8       ??_C@_09HIJEGCPM@__clrcall?$AA@ 00000001400296f8     libvcruntime:undname.obj
 0002:00005704       ??_C@_06GHPCKEAG@__eabi?$AA@ 0000000140029704     libvcruntime:undname.obj
 0002:00005710       ??_C@_07EECFKIPL@__swift?$AA@ 0000000140029710     libvcruntime:undname.obj
 0002:00005718       ??_C@_07JOMMBBKO@__ptr64?$AA@ 0000000140029718     libvcruntime:undname.obj
 0002:00005720       ??_C@_0L@PILCLIHE@__restrict?$AA@ 0000000140029720     libvcruntime:undname.obj
 0002:00005730       ??_C@_0M@GFIIJFMG@__unaligned?$AA@ 0000000140029730     libvcruntime:undname.obj
 0002:00005740       ??_C@_09DHDLOLLB@restrict?$CI?$AA@ 0000000140029740     libvcruntime:undname.obj
 0002:0000574c       ??_C@_04NIHEBCM@?5new?$AA@ 000000014002974c     libvcruntime:undname.obj
 0002:00005758       ??_C@_07FPCDHGMM@?5delete?$AA@ 0000000140029758     libvcruntime:undname.obj
 0002:00005760       ??_C@_01NEMOKFLO@?$DN?$AA@ 0000000140029760     libvcruntime:undname.obj
 0002:00005764       ??_C@_02GPIOPFAK@?$DO?$DO?$AA@ 0000000140029764     libvcruntime:undname.obj
 0002:00005768       ??_C@_02FODMEDOG@?$DM?$DM?$AA@ 0000000140029768     libvcruntime:undname.obj
 0002:0000576c       ??_C@_01DCLJPIOD@?$CB?$AA@ 000000014002976c     libvcruntime:undname.obj
 0002:00005770       ??_C@_02EGOFBIJA@?$DN?$DN?$AA@ 0000000140029770     libvcruntime:undname.obj
 0002:00005774       ??_C@_02FDNJECIE@?$CB?$DN?$AA@ 0000000140029774     libvcruntime:undname.obj
 0002:00005778       ??_C@_02GPECMEKF@?$FL?$FN?$AA@ 0000000140029778     libvcruntime:undname.obj
 0002:00005780       ??_C@_08LHJFAFGD@operator?$AA@ 0000000140029780     libvcruntime:undname.obj
 0002:0000578c       ??_C@_02HBOOOICD@?9?$DO?$AA@ 000000014002978c     libvcruntime:undname.obj
 0002:00005790       ??_C@_02ECNGHCIF@?$CL?$CL?$AA@ 0000000140029790     libvcruntime:undname.obj
 0002:00005794       ??_C@_02BAABKJLB@?9?9?$AA@ 0000000140029794     libvcruntime:undname.obj
 0002:00005798       ??_C@_01MIFGBAGJ@?$CL?$AA@ 0000000140029798     libvcruntime:undname.obj
 0002:0000579c       ??_C@_01HNPIGOCE@?$CG?$AA@ 000000014002979c     libvcruntime:undname.obj
 0002:000057a0       ??_C@_03MNHNFDLC@?9?$DO?$CK?$AA@ 00000001400297a0     libvcruntime:undname.obj
 0002:000057a4       ??_C@_01KMDKNFGN@?1?$AA@   00000001400297a4     libvcruntime:undname.obj
 0002:000057a8       ??_C@_01FGNFDNOH@?$CF?$AA@ 00000001400297a8     libvcruntime:undname.obj
 0002:000057ac       ??_C@_01MNNFJEPP@?$DM?$AA@ 00000001400297ac     libvcruntime:undname.obj
 0002:000057b0       ??_C@_02EHCHHCKH@?$DM?$DN?$AA@ 00000001400297b0     libvcruntime:undname.obj
 0002:000057b4       ??_C@_01PPODPGHN@?$DO?$AA@ 00000001400297b4     libvcruntime:undname.obj
 0002:000057b8       ??_C@_02EEKDKGMJ@?$DO?$DN?$AA@ 00000001400297b8     libvcruntime:undname.obj
 0002:000057bc       ??_C@_01IHBHIGKO@?0?$AA@   00000001400297bc     libvcruntime:undname.obj
 0002:000057c0       ??_C@_02HCKGKOFO@?$CI?$CJ?$AA@ 00000001400297c0     libvcruntime:undname.obj
 0002:000057c4       ??_C@_01PJKLJHI@?$HO?$AA@  00000001400297c4     libvcruntime:undname.obj
 0002:000057c8       ??_C@_01JKBOJNNK@?$FO?$AA@ 00000001400297c8     libvcruntime:undname.obj
 0002:000057cc       ??_C@_01DNKMNLPK@?$HM?$AA@ 00000001400297cc     libvcruntime:undname.obj
 0002:000057d0       ??_C@_02PPKAJPJL@?$CG?$CG?$AA@ 00000001400297d0     libvcruntime:undname.obj
 0002:000057d4       ??_C@_02NONPIBCD@?$HM?$HM?$AA@ 00000001400297d4     libvcruntime:undname.obj
 0002:000057d8       ??_C@_02FPIMKNGF@?$CK?$DN?$AA@ 00000001400297d8     libvcruntime:undname.obj
 0002:000057dc       ??_C@_02FOEOMHFC@?$CL?$DN?$AA@ 00000001400297dc     libvcruntime:undname.obj
 0002:000057e0       ??_C@_02FKMDLLOA@?9?$DN?$AA@ 00000001400297e0     libvcruntime:undname.obj
 0002:000057e4       ??_C@_02FJEHGPIO@?1?$DN?$AA@ 00000001400297e4     libvcruntime:undname.obj
 0002:000057e8       ??_C@_02FENAOKFI@?$CF?$DN?$AA@ 00000001400297e8     libvcruntime:undname.obj
 0002:000057ec       ??_C@_03IKFCCPFF@?$DO?$DO?$DN?$AA@ 00000001400297ec     libvcruntime:undname.obj
 0002:000057f0       ??_C@_03CDNPDDLA@?$DM?$DM?$DN?$AA@ 00000001400297f0     libvcruntime:undname.obj
 0002:000057f4       ??_C@_02FGJGFEAB@?$CG?$DN?$AA@ 00000001400297f4     libvcruntime:undname.obj
 0002:000057f8       ??_C@_02DHLNPPGH@?$HM?$DN?$AA@ 00000001400297f8     libvcruntime:undname.obj
 0002:000057fc       ??_C@_02MHEGNOJ@?$FO?$DN?$AA@ 00000001400297fc     libvcruntime:undname.obj
 0002:00005800       ??_C@_09IFPLHPGF@?$GAvftable?8?$AA@ 0000000140029800     libvcruntime:undname.obj
 0002:00005810       ??_C@_09BLBHBJP@?$GAvbtable?8?$AA@ 0000000140029810     libvcruntime:undname.obj
 0002:00005820       ??_C@_07FEEIOKP@?$GAvcall?8?$AA@ 0000000140029820     libvcruntime:undname.obj
 0002:00005828       ??_C@_08LLFFHHDJ@?$GAtypeof?8?$AA@ 0000000140029828     libvcruntime:undname.obj
 0002:00005838       ??_C@_0BF@KDPPACIK@?$GAlocal?5static?5guard?8?$AA@ 0000000140029838     libvcruntime:undname.obj
 0002:00005850       ??_C@_08OBABFOLI@?$GAstring?8?$AA@ 0000000140029850     libvcruntime:undname.obj
 0002:00005860       ??_C@_0BD@JDLKDPAB@?$GAvbase?5destructor?8?$AA@ 0000000140029860     libvcruntime:undname.obj
 0002:00005878       ??_C@_0BN@DEGPLNFK@?$GAvector?5deleting?5destructor?8?$AA@ 0000000140029878     libvcruntime:undname.obj
 0002:00005898       ??_C@_0BO@OBMKPJIG@?$GAdefault?5constructor?5closure?8?$AA@ 0000000140029898     libvcruntime:undname.obj
 0002:000058b8       ??_C@_0BN@IMDCHIKM@?$GAscalar?5deleting?5destructor?8?$AA@ 00000001400298b8     libvcruntime:undname.obj
 0002:000058d8       ??_C@_0BO@PFGOCPJJ@?$GAvector?5constructor?5iterator?8?$AA@ 00000001400298d8     libvcruntime:undname.obj
 0002:000058f8       ??_C@_0BN@LFPFMEDL@?$GAvector?5destructor?5iterator?8?$AA@ 00000001400298f8     libvcruntime:undname.obj
 0002:00005918       ??_C@_0CE@IKBNEHA@?$GAvector?5vbase?5constructor?5iterat@ 0000000140029918     libvcruntime:undname.obj
 0002:00005940       ??_C@_0BL@NILFHHPC@?$GAvirtual?5displacement?5map?8?$AA@ 0000000140029940     libvcruntime:undname.obj
 0002:00005960       ??_C@_0CB@JONCMFFK@?$GAeh?5vector?5constructor?5iterator?8@ 0000000140029960     libvcruntime:undname.obj
 0002:00005988       ??_C@_0CA@GCEOPDGL@?$GAeh?5vector?5destructor?5iterator?8?$AA@ 0000000140029988     libvcruntime:undname.obj
 0002:000059a8       ??_C@_0CH@OOJPLCPH@?$GAeh?5vector?5vbase?5constructor?5ite@ 00000001400299a8     libvcruntime:undname.obj
 0002:000059d0       ??_C@_0BL@LLKPOHJI@?$GAcopy?5constructor?5closure?8?$AA@ 00000001400299d0     libvcruntime:undname.obj
 0002:000059f0       ??_C@_0BA@KBCDOMBN@?$GAudt?5returning?8?$AA@ 00000001400299f0     libvcruntime:undname.obj
 0002:00005a00       ??_C@_03KLGMFNMG@?$GAEH?$AA@ 0000000140029a00     libvcruntime:undname.obj
 0002:00005a04       ??_C@_05KHLCHHI@?$GARTTI?$AA@ 0000000140029a04     libvcruntime:undname.obj
 0002:00005a10       ??_C@_0BA@KKLDJDLB@?$GAlocal?5vftable?8?$AA@ 0000000140029a10     libvcruntime:undname.obj
 0002:00005a20       ??_C@_0CE@IIHCMGGL@?$GAlocal?5vftable?5constructor?5closu@ 0000000140029a20     libvcruntime:undname.obj
 0002:00005a44       ??_C@_06FHBGPFGH@?5new?$FL?$FN?$AA@ 0000000140029a44     libvcruntime:undname.obj
 0002:00005a50       ??_C@_09LBNFPBCA@?5delete?$FL?$FN?$AA@ 0000000140029a50     libvcruntime:undname.obj
 0002:00005a60       ??_C@_0P@HJKNJFNN@?$GAomni?5callsig?8?$AA@ 0000000140029a60     libvcruntime:undname.obj
 0002:00005a70       ??_C@_0BL@CNOONJFP@?$GAplacement?5delete?5closure?8?$AA@ 0000000140029a70     libvcruntime:undname.obj
 0002:00005a90       ??_C@_0BN@CKNJLHMB@?$GAplacement?5delete?$FL?$FN?5closure?8?$AA@ 0000000140029a90     libvcruntime:undname.obj
 0002:00005ab0       ??_C@_0CG@CFDHKGGD@?$GAmanaged?5vector?5constructor?5iter@ 0000000140029ab0     libvcruntime:undname.obj
 0002:00005ad8       ??_C@_0CF@IMGKMJNO@?$GAmanaged?5vector?5destructor?5itera@ 0000000140029ad8     libvcruntime:undname.obj
 0002:00005b00       ??_C@_0CG@HLDDJMAG@?$GAeh?5vector?5copy?5constructor?5iter@ 0000000140029b00     libvcruntime:undname.obj
 0002:00005b28       ??_C@_0CM@FCBBDIGB@?$GAeh?5vector?5vbase?5copy?5constructo@ 0000000140029b28     libvcruntime:undname.obj
 0002:00005b58       ??_C@_0BL@CLIPGLGB@?$GAdynamic?5initializer?5for?5?8?$AA@ 0000000140029b58     libvcruntime:undname.obj
 0002:00005b78       ??_C@_0CB@PDBIFEP@?$GAdynamic?5atexit?5destructor?5for?5?8@ 0000000140029b78     libvcruntime:undname.obj
 0002:00005ba0       ??_C@_0CD@CGAJBKEJ@?$GAvector?5copy?5constructor?5iterato@ 0000000140029ba0     libvcruntime:undname.obj
 0002:00005bc8       ??_C@_0CJ@GJELGAMM@?$GAvector?5vbase?5copy?5constructor?5i@ 0000000140029bc8     libvcruntime:undname.obj
 0002:00005bf8       ??_C@_0CL@FGIJHLCE@?$GAmanaged?5vector?5copy?5constructor@ 0000000140029bf8     libvcruntime:undname.obj
 0002:00005c28       ??_C@_0BM@PMGGMLDN@?$GAlocal?5static?5thread?5guard?8?$AA@ 0000000140029c28     libvcruntime:undname.obj
 0002:00005c48       ??_C@_0N@BDNMDMOL@operator?5?$CC?$CC?5?$AA@ 0000000140029c48     libvcruntime:undname.obj
 0002:00005c58       ??_C@_0BC@GGEBGALA@operator?5co_await?$AA@ 0000000140029c58     libvcruntime:undname.obj
 0002:00005c70       ??_C@_0BC@DAFEJGAK@?5Type?5Descriptor?8?$AA@ 0000000140029c70     libvcruntime:undname.obj
 0002:00005c88       ??_C@_0BM@LDKODKLH@?5Base?5Class?5Descriptor?5at?5?$CI?$AA@ 0000000140029c88     libvcruntime:undname.obj
 0002:00005ca8       ??_C@_0BD@LGICGFMM@?5Base?5Class?5Array?8?$AA@ 0000000140029ca8     libvcruntime:undname.obj
 0002:00005cc0       ??_C@_0BN@MECKDCOJ@?5Class?5Hierarchy?5Descriptor?8?$AA@ 0000000140029cc0     libvcruntime:undname.obj
 0002:00005ce0       ??_C@_0BK@CFCOFLF@?5Complete?5Object?5Locator?8?$AA@ 0000000140029ce0     libvcruntime:undname.obj
 0002:00005d00       standard_lookup_table      0000000140029d00     libucrt:output.obj
 0002:00005d60       ??_C@_1O@CEDCILHN@?$AA?$CI?$AAn?$AAu?$AAl?$AAl?$AA?$CJ?$AA?$AA@ 0000000140029d60     libucrt:output.obj
 0002:00005d70       ??_C@_06OJHGLDPL@?$CInull?$CJ?$AA@ 0000000140029d70     libucrt:output.obj
 0002:00005ee0       __newctype                 0000000140029ee0     libucrt:ctype.obj
 0002:000061e0       __newclmap                 000000014002a1e0     libucrt:ctype.obj
 0002:00006360       __newcumap                 000000014002a360     libucrt:ctype.obj
 0002:000064e0       _wctype                    000000014002a4e0     libucrt:ctype.obj
 0002:000066f0       ?large_power_data@?1??multiply_by_power_of_ten@__crt_strtox@@YA_NAEAUbig_integer@2@I@Z@4QBIB 000000014002a6f0     libucrt:strtod.obj
 0002:00007000       ?large_power_indices@?1??multiply_by_power_of_ten@__crt_strtox@@YA_NAEAUbig_integer@2@I@Z@4QBUunpack_index@?1??12@YA_N0I@Z@B 000000014002b000     libucrt:strtod.obj
 0002:00007098       ?small_powers_of_ten@?1??multiply_by_power_of_ten@__crt_strtox@@YA_NAEAUbig_integer@2@I@Z@4QBIB 000000014002b098     libucrt:strtod.obj
 0002:000070c0       __real@3ff0000000000000    000000014002b0c0     libucrt:frexp.obj
 0002:00008d80       __acrt_exception_action_table 000000014002cd80     libucrt:exception_filter.obj
 0002:00008e40       __acrt_signal_action_table_count 000000014002ce40     libucrt:exception_filter.obj
 0002:00008e48       __acrt_signal_action_first_fpe_index 000000014002ce48     libucrt:exception_filter.obj
 0002:00008e50       __acrt_signal_action_fpe_count 000000014002ce50     libucrt:exception_filter.obj
 0002:00008e58       ??_C@_1BI@BGOHAHKC@?$AAm?$AAs?$AAc?$AAo?$AAr?$AAe?$AAe?$AA?4?$AAd?$AAl?$AAl?$AA?$AA@ 000000014002ce58     libucrt:exit.obj
 0002:00008e70       ??_C@_0P@MIGLKIOC@CorExitProcess?$AA@ 000000014002ce70     libucrt:exit.obj
 0002:00008f00       __lc_category              000000014002cf00     libucrt:wsetlocale.obj
 0002:00008f90       ??_C@_1O@GIFLHMA@?$AAL?$AAC?$AA_?$AAA?$AAL?$AAL?$AA?$AA@ 000000014002cf90     libucrt:wsetlocale.obj
 0002:00008fa0       ??_C@_1BG@PPOMIBNJ@?$AAL?$AAC?$AA_?$AAC?$AAO?$AAL?$AAL?$AAA?$AAT?$AAE?$AA?$AA@ 000000014002cfa0     libucrt:wsetlocale.obj
 0002:00008fb8       ??_C@_1BC@FFJGAPJM@?$AAL?$AAC?$AA_?$AAC?$AAT?$AAY?$AAP?$AAE?$AA?$AA@ 000000014002cfb8     libucrt:wsetlocale.obj
 0002:00008fd0       ??_C@_1BI@PCKFNJFB@?$AAL?$AAC?$AA_?$AAM?$AAO?$AAN?$AAE?$AAT?$AAA?$AAR?$AAY?$AA?$AA@ 000000014002cfd0     libucrt:wsetlocale.obj
 0002:00008fe8       ??_C@_1BG@ENIEDKID@?$AAL?$AAC?$AA_?$AAN?$AAU?$AAM?$AAE?$AAR?$AAI?$AAC?$AA?$AA@ 000000014002cfe8     libucrt:wsetlocale.obj
 0002:00009000       ??_C@_1BA@HAAOMIIG@?$AAL?$AAC?$AA_?$AAT?$AAI?$AAM?$AAE?$AA?$AA@ 000000014002d000     libucrt:wsetlocale.obj
 0002:00009010       ??_C@_15NBPDDFIP@?$AA?$DN?$AA?$DL?$AA?$AA@ 000000014002d010     libucrt:wsetlocale.obj
 0002:00009018       ??_C@_13PJJBFPED@?$AA?$DL?$AA?$AA@ 000000014002d018     libucrt:wsetlocale.obj
 0002:0000901c       ??_C@_13NMPKAAJP@?$AA?$DN?$AA?$AA@ 000000014002d01c     libucrt:wsetlocale.obj
 0002:00009020       ??_C@_13FHBKNHDA@?$AAC?$AA?$AA@ 000000014002d020     libucrt:wsetlocale.obj
 0002:00009028       ??_C@_19MPDNHKDG@?$AAu?$AAt?$AAf?$AA8?$AA?$AA@ 000000014002d028     libucrt:wsetlocale.obj
 0002:00009038       ??_C@_1M@FPEIIFAM@?$AAu?$AAt?$AAf?$AA?9?$AA8?$AA?$AA@ 000000014002d038     libucrt:wsetlocale.obj
 0002:00009048       ??_C@_17MBJJLFDM@?$AA_?$AA?4?$AA?0?$AA?$AA@ 000000014002d048     libucrt:wsetlocale.obj
 0002:00009050       ??_C@_13ENNFDPBH@?$AA_?$AA?$AA@ 000000014002d050     libucrt:wsetlocale.obj
 0002:00009054       ??_C@_13JOFGPIOO@?$AA?4?$AA?$AA@ 000000014002d054     libucrt:wsetlocale.obj
 0002:00009200       ??_C@_1EA@JGEFHKEI@?$AAa?$AAp?$AAi?$AA?9?$AAm?$AAs?$AA?9?$AAw?$AAi?$AAn?$AA?9?$AAc?$AAo?$AAr?$AAe?$AA?9?$AAd?$AAa?$AAt?$AAe?$AAt?$AAi?$AAm?$AAe?$AA?9?$AAl?$AA1?$AA?9?$AA1?$AA?9?$AA1?$AA?$AA@ 000000014002d200     libucrt:winapi_thunks.obj
 0002:00009240       ??_C@_1DI@IJCEHOCB@?$AAa?$AAp?$AAi?$AA?9?$AAm?$AAs?$AA?9?$AAw?$AAi?$AAn?$AA?9?$AAc?$AAo?$AAr?$AAe?$AA?9?$AAf?$AAi?$AAl?$AAe?$AA?9?$AAl?$AA1?$AA?9?$AA2?$AA?9?$AA2?$AA?$AA@ 000000014002d240     libucrt:winapi_thunks.obj
 0002:00009280       ??_C@_1EI@MPIAOHOC@?$AAa?$AAp?$AAi?$AA?9?$AAm?$AAs?$AA?9?$AAw?$AAi?$AAn?$AA?9?$AAc?$AAo?$AAr?$AAe?$AA?9?$AAl?$AAo?$AAc?$AAa?$AAl?$AAi?$AAz?$AAa?$AAt?$AAi?$AAo?$AAn?$AA?9?$AAl?$AA1?$AA?9@ 000000014002d280     libucrt:winapi_thunks.obj
 0002:000092d0       ??_C@_1FK@FPHCKFIE@?$AAa?$AAp?$AAi?$AA?9?$AAm?$AAs?$AA?9?$AAw?$AAi?$AAn?$AA?9?$AAc?$AAo?$AAr?$AAe?$AA?9?$AAl?$AAo?$AAc?$AAa?$AAl?$AAi?$AAz?$AAa?$AAt?$AAi?$AAo?$AAn?$AA?9?$AAo?$AAb?$AAs@ 000000014002d2d0     libucrt:winapi_thunks.obj
 0002:00009330       ??_C@_1EM@DILCGIIO@?$AAa?$AAp?$AAi?$AA?9?$AAm?$AAs?$AA?9?$AAw?$AAi?$AAn?$AA?9?$AAc?$AAo?$AAr?$AAe?$AA?9?$AAp?$AAr?$AAo?$AAc?$AAe?$AAs?$AAs?$AAt?$AAh?$AAr?$AAe?$AAa?$AAd?$AAs?$AA?9?$AAl@ 000000014002d330     libucrt:winapi_thunks.obj
 0002:00009380       ??_C@_1DM@LNCGDDPN@?$AAa?$AAp?$AAi?$AA?9?$AAm?$AAs?$AA?9?$AAw?$AAi?$AAn?$AA?9?$AAc?$AAo?$AAr?$AAe?$AA?9?$AAs?$AAt?$AAr?$AAi?$AAn?$AAg?$AA?9?$AAl?$AA1?$AA?9?$AA1?$AA?9?$AA0?$AA?$AA@ 000000014002d380     libucrt:winapi_thunks.obj
 0002:000093c0       ??_C@_1DO@FPAPJEMD@?$AAa?$AAp?$AAi?$AA?9?$AAm?$AAs?$AA?9?$AAw?$AAi?$AAn?$AA?9?$AAc?$AAo?$AAr?$AAe?$AA?9?$AAs?$AAy?$AAs?$AAi?$AAn?$AAf?$AAo?$AA?9?$AAl?$AA1?$AA?9?$AA2?$AA?9?$AA1?$AA?$AA@ 000000014002d3c0     libucrt:winapi_thunks.obj
 0002:00009400       ??_C@_1DK@NDHNAHIO@?$AAa?$AAp?$AAi?$AA?9?$AAm?$AAs?$AA?9?$AAw?$AAi?$AAn?$AA?9?$AAc?$AAo?$AAr?$AAe?$AA?9?$AAw?$AAi?$AAn?$AAr?$AAt?$AA?9?$AAl?$AA1?$AA?9?$AA1?$AA?9?$AA0?$AA?$AA@ 000000014002d400     libucrt:winapi_thunks.obj
 0002:00009440       ??_C@_1DM@KGHDGBCM@?$AAa?$AAp?$AAi?$AA?9?$AAm?$AAs?$AA?9?$AAw?$AAi?$AAn?$AA?9?$AAc?$AAo?$AAr?$AAe?$AA?9?$AAx?$AAs?$AAt?$AAa?$AAt?$AAe?$AA?9?$AAl?$AA2?$AA?9?$AA1?$AA?9?$AA0?$AA?$AA@ 000000014002d440     libucrt:winapi_thunks.obj
 0002:00009480       ??_C@_1EO@IJIOEFOH@?$AAa?$AAp?$AAi?$AA?9?$AAm?$AAs?$AA?9?$AAw?$AAi?$AAn?$AA?9?$AAr?$AAt?$AAc?$AAo?$AAr?$AAe?$AA?9?$AAn?$AAt?$AAu?$AAs?$AAe?$AAr?$AA?9?$AAw?$AAi?$AAn?$AAd?$AAo?$AAw?$AA?9@ 000000014002d480     libucrt:winapi_thunks.obj
 0002:000094d0       ??_C@_1FG@HHGEKANL@?$AAa?$AAp?$AAi?$AA?9?$AAm?$AAs?$AA?9?$AAw?$AAi?$AAn?$AA?9?$AAs?$AAe?$AAc?$AAu?$AAr?$AAi?$AAt?$AAy?$AA?9?$AAs?$AAy?$AAs?$AAt?$AAe?$AAm?$AAf?$AAu?$AAn?$AAc?$AAt?$AAi@ 000000014002d4d0     libucrt:winapi_thunks.obj
 0002:00009530       ??_C@_1EG@DBIOJECG@?$AAe?$AAx?$AAt?$AA?9?$AAm?$AAs?$AA?9?$AAw?$AAi?$AAn?$AA?9?$AAn?$AAt?$AAu?$AAs?$AAe?$AAr?$AA?9?$AAd?$AAi?$AAa?$AAl?$AAo?$AAg?$AAb?$AAo?$AAx?$AA?9?$AAl?$AA1?$AA?9?$AA1@ 000000014002d530     libucrt:winapi_thunks.obj
 0002:00009580       ??_C@_1EO@FIHMJCLF@?$AAe?$AAx?$AAt?$AA?9?$AAm?$AAs?$AA?9?$AAw?$AAi?$AAn?$AA?9?$AAn?$AAt?$AAu?$AAs?$AAe?$AAr?$AA?9?$AAw?$AAi?$AAn?$AAd?$AAo?$AAw?$AAs?$AAt?$AAa?$AAt?$AAi?$AAo?$AAn?$AA?9@ 000000014002d580     libucrt:winapi_thunks.obj
 0002:000095d0       ??_C@_1BC@DNHGCMLG@?$AAa?$AAd?$AAv?$AAa?$AAp?$AAi?$AA3?$AA2?$AA?$AA@ 000000014002d5d0     libucrt:winapi_thunks.obj
 0002:000095e8       ??_C@_1M@OAIMIKLP@?$AAn?$AAt?$AAd?$AAl?$AAl?$AA?$AA@ 000000014002d5e8     libucrt:winapi_thunks.obj
 0002:00009600       ??_C@_1EG@DPGNFKGC@?$AAa?$AAp?$AAi?$AA?9?$AAm?$AAs?$AA?9?$AAw?$AAi?$AAn?$AA?9?$AAa?$AAp?$AAp?$AAm?$AAo?$AAd?$AAe?$AAl?$AA?9?$AAr?$AAu?$AAn?$AAt?$AAi?$AAm?$AAe?$AA?9?$AAl?$AA1?$AA?9?$AA1@ 000000014002d600     libucrt:winapi_thunks.obj
 0002:00009648       ??_C@_1O@BCCLBEOE@?$AAu?$AAs?$AAe?$AAr?$AA3?$AA2?$AA?$AA@ 000000014002d648     libucrt:winapi_thunks.obj
 0002:00009660       ??_C@_0BA@FHFNEAED@AreFileApisANSI?$AA@ 000000014002d660     libucrt:winapi_thunks.obj
 0002:00009680       ??_C@_0BE@LJANKFHF@EnumSystemLocalesEx?$AA@ 000000014002d680     libucrt:winapi_thunks.obj
 0002:000096c0       ??_C@_0BA@EPCJIIPD@GetDateFormatEx?$AA@ 000000014002d6c0     libucrt:winapi_thunks.obj
 0002:000096e0       ??_C@_0BA@CIJJKCJJ@GetTimeFormatEx?$AA@ 000000014002d6e0     libucrt:winapi_thunks.obj
 0002:000096f8       ??_C@_0BJ@PBCCBIPI@GetUserDefaultLocaleName?$AA@ 000000014002d6f8     libucrt:winapi_thunks.obj
 0002:00009728       ??_C@_0BC@CELBKLLA@IsValidLocaleName?$AA@ 000000014002d728     libucrt:winapi_thunks.obj
 0002:00009750       ??_C@_0BB@CDHDDLLP@LCIDToLocaleName?$AA@ 000000014002d750     libucrt:winapi_thunks.obj
 0002:00009770       ??_C@_0BB@HBDEELFH@LocaleNameToLCID?$AA@ 000000014002d770     libucrt:winapi_thunks.obj
 0002:00009788       ??_C@_0CF@OJOFEIGO@AppPolicyGetProcessTerminationMe@ 000000014002d788     libucrt:winapi_thunks.obj
 0002:000097b0       ??_C@_03OEIAHPBN@INF?$AA@  000000014002d7b0     libucrt:cvt.obj
 0002:000097b4       ??_C@_03OJHLLCGB@inf?$AA@  000000014002d7b4     libucrt:cvt.obj
 0002:000097b8       ??_C@_03LKNCIKJB@NAN?$AA@  000000014002d7b8     libucrt:cvt.obj
 0002:000097bc       ??_C@_03LHCJEHON@nan?$AA@  000000014002d7bc     libucrt:cvt.obj
 0002:000097c0       ??_C@_09OFJJIMPC@NAN?$CISNAN?$CJ?$AA@ 000000014002d7c0     libucrt:cvt.obj
 0002:000097d0       ??_C@_09IPFBKMDL@nan?$CIsnan?$CJ?$AA@ 000000014002d7d0     libucrt:cvt.obj
 0002:000097e0       ??_C@_08IKHNHAJ@NAN?$CIIND?$CJ?$AA@ 000000014002d7e0     libucrt:cvt.obj
 0002:000097f0       ??_C@_08OFCDMILK@nan?$CIind?$CJ?$AA@ 000000014002d7f0     libucrt:cvt.obj
 0002:000097fc       ??_C@_05KLBDPFGC@e?$CL000?$AA@ 000000014002d7fc     libucrt:cvt.obj
 0002:00009810       __lc_time_c                000000014002d810     libucrt:nlsdata.obj
 0002:00009ad0       ??_C@_03KOEHGMDN@Sun?$AA@  000000014002dad0     libucrt:nlsdata.obj
 0002:00009ad4       ??_C@_03PDAGKDH@Mon?$AA@   000000014002dad4     libucrt:nlsdata.obj
 0002:00009ad8       ??_C@_03NAGEINEP@Tue?$AA@  000000014002dad8     libucrt:nlsdata.obj
 0002:00009adc       ??_C@_03MHOMLAJA@Wed?$AA@  000000014002dadc     libucrt:nlsdata.obj
 0002:00009ae0       ??_C@_03IOFIKPDN@Thu?$AA@  000000014002dae0     libucrt:nlsdata.obj
 0002:00009ae4       ??_C@_03IDIOELNC@Fri?$AA@  000000014002dae4     libucrt:nlsdata.obj
 0002:00009ae8       ??_C@_03FEFJNEK@Sat?$AA@   000000014002dae8     libucrt:nlsdata.obj
 0002:00009aec       ??_C@_06OOPIFAJ@Sunday?$AA@ 000000014002daec     libucrt:nlsdata.obj
 0002:00009af4       ??_C@_06JLEDEDGH@Monday?$AA@ 000000014002daf4     libucrt:nlsdata.obj
 0002:00009b00       ??_C@_07BAAGCFCM@Tuesday?$AA@ 000000014002db00     libucrt:nlsdata.obj
 0002:00009b08       ??_C@_09DLIGFAKA@Wednesday?$AA@ 000000014002db08     libucrt:nlsdata.obj
 0002:00009b18       ??_C@_08HACCIKIA@Thursday?$AA@ 000000014002db18     libucrt:nlsdata.obj
 0002:00009b24       ??_C@_06JECMNKMI@Friday?$AA@ 000000014002db24     libucrt:nlsdata.obj
 0002:00009b30       ??_C@_08INBOOONO@Saturday?$AA@ 000000014002db30     libucrt:nlsdata.obj
 0002:00009b3c       ??_C@_03JIHJHPIE@Jan?$AA@  000000014002db3c     libucrt:nlsdata.obj
 0002:00009b40       ??_C@_03HJBDCHOM@Feb?$AA@  000000014002db40     libucrt:nlsdata.obj
 0002:00009b44       ??_C@_03ODNJBKGA@Mar?$AA@  000000014002db44     libucrt:nlsdata.obj
 0002:00009b48       ??_C@_03LEOLGMJP@Apr?$AA@  000000014002db48     libucrt:nlsdata.obj
 0002:00009b4c       ??_C@_03CNMDKL@May?$AA@    000000014002db4c     libucrt:nlsdata.obj
 0002:00009b50       ??_C@_03IDFGHECI@Jun?$AA@  000000014002db50     libucrt:nlsdata.obj
 0002:00009b54       ??_C@_03LBGABGKK@Jul?$AA@  000000014002db54     libucrt:nlsdata.obj
 0002:00009b58       ??_C@_03IFJFEIGA@Aug?$AA@  000000014002db58     libucrt:nlsdata.obj
 0002:00009b5c       ??_C@_03GGCAPAJC@Sep?$AA@  000000014002db5c     libucrt:nlsdata.obj
 0002:00009b60       ??_C@_03BMAOKBAD@Oct?$AA@  000000014002db60     libucrt:nlsdata.obj
 0002:00009b64       ??_C@_03JPJOFNIA@Nov?$AA@  000000014002db64     libucrt:nlsdata.obj
 0002:00009b68       ??_C@_03MKABNOCG@Dec?$AA@  000000014002db68     libucrt:nlsdata.obj
 0002:00009b70       ??_C@_07CGJPFGJA@January?$AA@ 000000014002db70     libucrt:nlsdata.obj
 0002:00009b78       ??_C@_08GNJGEPFN@February?$AA@ 000000014002db78     libucrt:nlsdata.obj
 0002:00009b84       ??_C@_05HPCKOFNC@March?$AA@ 000000014002db84     libucrt:nlsdata.obj
 0002:00009b8c       ??_C@_05DMJDNLEJ@April?$AA@ 000000014002db8c     libucrt:nlsdata.obj
 0002:00009b94       ??_C@_04CNLMGBGM@June?$AA@ 000000014002db94     libucrt:nlsdata.obj
 0002:00009b9c       ??_C@_04MIEPOIFP@July?$AA@ 000000014002db9c     libucrt:nlsdata.obj
 0002:00009ba4       ??_C@_06LBBHFDDG@August?$AA@ 000000014002dba4     libucrt:nlsdata.obj
 0002:00009bb0       ??_C@_09BHHEALKD@September?$AA@ 000000014002dbb0     libucrt:nlsdata.obj
 0002:00009bc0       ??_C@_07JJNFCEND@October?$AA@ 000000014002dbc0     libucrt:nlsdata.obj
 0002:00009bc8       ??_C@_08HCHEGEOA@November?$AA@ 000000014002dbc8     libucrt:nlsdata.obj
 0002:00009bd8       ??_C@_08EDHMEBNP@December?$AA@ 000000014002dbd8     libucrt:nlsdata.obj
 0002:00009be4       ??_C@_02DEDBPAFC@AM?$AA@   000000014002dbe4     libucrt:nlsdata.obj
 0002:00009be8       ??_C@_02CJNFDJBF@PM?$AA@   000000014002dbe8     libucrt:nlsdata.obj
 0002:00009bf0       ??_C@_08BPBNCDIB@MM?1dd?1yy?$AA@ 000000014002dbf0     libucrt:nlsdata.obj
 0002:00009c00       ??_C@_0BE@CKGJFCPC@dddd?0?5MMMM?5dd?0?5yyyy?$AA@ 000000014002dc00     libucrt:nlsdata.obj
 0002:00009c18       ??_C@_08JCCMCCIL@HH?3mm?3ss?$AA@ 000000014002dc18     libucrt:nlsdata.obj
 0002:00009c28       ??_C@_17MBGCMIPB@?$AAS?$AAu?$AAn?$AA?$AA@ 000000014002dc28     libucrt:nlsdata.obj
 0002:00009c30       ??_C@_17KBOMKBF@?$AAM?$AAo?$AAn?$AA?$AA@ 000000014002dc30     libucrt:nlsdata.obj
 0002:00009c38       ??_C@_17BMKGEGOJ@?$AAT?$AAu?$AAe?$AA?$AA@ 000000014002dc38     libucrt:nlsdata.obj
 0002:00009c40       ??_C@_17CJEDCEPE@?$AAW?$AAe?$AAd?$AA?$AA@ 000000014002dc40     libucrt:nlsdata.obj
 0002:00009c48       ??_C@_17PDPHAADD@?$AAT?$AAh?$AAu?$AA?$AA@ 000000014002dc48     libucrt:nlsdata.obj
 0002:00009c50       ??_C@_17HFOLPPLP@?$AAF?$AAr?$AAi?$AA?$AA@ 000000014002dc50     libucrt:nlsdata.obj
 0002:00009c58       ??_C@_17GGIBDPIH@?$AAS?$AAa?$AAt?$AA?$AA@ 000000014002dc58     libucrt:nlsdata.obj
 0002:00009c60       ??_C@_1O@IHNHDHPB@?$AAS?$AAu?$AAn?$AAd?$AAa?$AAy?$AA?$AA@ 000000014002dc60     libucrt:nlsdata.obj
 0002:00009c70       ??_C@_1O@MMNBFLIA@?$AAM?$AAo?$AAn?$AAd?$AAa?$AAy?$AA?$AA@ 000000014002dc70     libucrt:nlsdata.obj
 0002:00009c80       ??_C@_1BA@ENFBFFEK@?$AAT?$AAu?$AAe?$AAs?$AAd?$AAa?$AAy?$AA?$AA@ 000000014002dc80     libucrt:nlsdata.obj
 0002:00009c90       ??_C@_1BE@EBOGMDOH@?$AAW?$AAe?$AAd?$AAn?$AAe?$AAs?$AAd?$AAa?$AAy?$AA?$AA@ 000000014002dc90     libucrt:nlsdata.obj
 0002:00009ca8       ??_C@_1BC@HHMNLIHE@?$AAT?$AAh?$AAu?$AAr?$AAs?$AAd?$AAa?$AAy?$AA?$AA@ 000000014002dca8     libucrt:nlsdata.obj
 0002:00009cc0       ??_C@_1O@PDICJHAG@?$AAF?$AAr?$AAi?$AAd?$AAa?$AAy?$AA?$AA@ 000000014002dcc0     libucrt:nlsdata.obj
 0002:00009cd0       ??_C@_1BC@ENMNNPAJ@?$AAS?$AAa?$AAt?$AAu?$AAr?$AAd?$AAa?$AAy?$AA?$AA@ 000000014002dcd0     libucrt:nlsdata.obj
 0002:00009ce8       ??_C@_17DKNBKCHM@?$AAJ?$AAa?$AAn?$AA?$AA@ 000000014002dce8     libucrt:nlsdata.obj
 0002:00009cf0       ??_C@_17LMDJEKJN@?$AAF?$AAe?$AAb?$AA?$AA@ 000000014002dcf0     libucrt:nlsdata.obj
 0002:00009cf8       ??_C@_17CKNLEDEC@?$AAM?$AAa?$AAr?$AA?$AA@ 000000014002dcf8     libucrt:nlsdata.obj
 0002:00009d00       ??_C@_17LFPOIHDD@?$AAA?$AAp?$AAr?$AA?$AA@ 000000014002dd00     libucrt:nlsdata.obj
 0002:00009d08       ??_C@_17PNNKMEED@?$AAM?$AAa?$AAy?$AA?$AA@ 000000014002dd08     libucrt:nlsdata.obj
 0002:00009d10       ??_C@_17KCJGOCPB@?$AAJ?$AAu?$AAn?$AA?$AA@ 000000014002dd10     libucrt:nlsdata.obj
 0002:00009d18       ??_C@_17IJPCKHK@?$AAJ?$AAu?$AAl?$AA?$AA@ 000000014002dd18     libucrt:nlsdata.obj
 0002:00009d20       ??_C@_17ICPELBCN@?$AAA?$AAu?$AAg?$AA?$AA@ 000000014002dd20     libucrt:nlsdata.obj
 0002:00009d28       ??_C@_17HCHCOKMG@?$AAS?$AAe?$AAp?$AA?$AA@ 000000014002dd28     libucrt:nlsdata.obj
 0002:00009d30       ??_C@_17FNLKOI@?$AAO?$AAc?$AAt?$AA?$AA@ 000000014002dd30     libucrt:nlsdata.obj
 0002:00009d38       ??_C@_17BBDMLCIG@?$AAN?$AAo?$AAv?$AA?$AA@ 000000014002dd38     libucrt:nlsdata.obj
 0002:00009d40       ??_C@_17EGKACKIF@?$AAD?$AAe?$AAc?$AA?$AA@ 000000014002dd40     libucrt:nlsdata.obj
 0002:00009d48       ??_C@_1BA@EFMEIEBA@?$AAJ?$AAa?$AAn?$AAu?$AAa?$AAr?$AAy?$AA?$AA@ 000000014002dd48     libucrt:nlsdata.obj
 0002:00009d58       ??_C@_1BC@JGDDFFAM@?$AAF?$AAe?$AAb?$AAr?$AAu?$AAa?$AAr?$AAy?$AA?$AA@ 000000014002dd58     libucrt:nlsdata.obj
 0002:00009d70       ??_C@_1M@IKEENEDF@?$AAM?$AAa?$AAr?$AAc?$AAh?$AA?$AA@ 000000014002dd70     libucrt:nlsdata.obj
 0002:00009d80       ??_C@_1M@GJNLMHFD@?$AAA?$AAp?$AAr?$AAi?$AAl?$AA?$AA@ 000000014002dd80     libucrt:nlsdata.obj
 0002:00009d90       ??_C@_19EPFLPGAP@?$AAJ?$AAu?$AAn?$AAe?$AA?$AA@ 000000014002dd90     libucrt:nlsdata.obj
 0002:00009da0       ??_C@_19BIFMLPCD@?$AAJ?$AAu?$AAl?$AAy?$AA?$AA@ 000000014002dda0     libucrt:nlsdata.obj
 0002:00009db0       ??_C@_1O@PAHLKOAC@?$AAA?$AAu?$AAg?$AAu?$AAs?$AAt?$AA?$AA@ 000000014002ddb0     libucrt:nlsdata.obj
 0002:00009dc0       ??_C@_1BE@DKAAMBJL@?$AAS?$AAe?$AAp?$AAt?$AAe?$AAm?$AAb?$AAe?$AAr?$AA?$AA@ 000000014002ddc0     libucrt:nlsdata.obj
 0002:00009dd8       ??_C@_1BA@EPANDLNG@?$AAO?$AAc?$AAt?$AAo?$AAb?$AAe?$AAr?$AA?$AA@ 000000014002ddd8     libucrt:nlsdata.obj
 0002:00009de8       ??_C@_1BC@BGLIFPF@?$AAN?$AAo?$AAv?$AAe?$AAm?$AAb?$AAe?$AAr?$AA?$AA@ 000000014002dde8     libucrt:nlsdata.obj
 0002:00009e00       ??_C@_1BC@FEMKIFH@?$AAD?$AAe?$AAc?$AAe?$AAm?$AAb?$AAe?$AAr?$AA?$AA@ 000000014002de00     libucrt:nlsdata.obj
 0002:00009e14       ??_C@_15ODEHAHHF@?$AAA?$AAM?$AA?$AA@ 000000014002de14     libucrt:nlsdata.obj
 0002:00009e1c       ??_C@_15CLMNNGEL@?$AAP?$AAM?$AA?$AA@ 000000014002de1c     libucrt:nlsdata.obj
 0002:00009e28       ??_C@_1BC@IEBCMHCM@?$AAM?$AAM?$AA?1?$AAd?$AAd?$AA?1?$AAy?$AAy?$AA?$AA@ 000000014002de28     libucrt:nlsdata.obj
 0002:00009e40       ??_C@_1CI@KNAKOEBC@?$AAd?$AAd?$AAd?$AAd?$AA?0?$AA?5?$AAM?$AAM?$AAM?$AAM?$AA?5?$AAd?$AAd?$AA?0?$AA?5?$AAy?$AAy?$AAy?$AAy?$AA?$AA@ 000000014002de40     libucrt:nlsdata.obj
 0002:00009e68       ??_C@_1BC@GDGBMEMK@?$AAH?$AAH?$AA?3?$AAm?$AAm?$AA?3?$AAs?$AAs?$AA?$AA@ 000000014002de68     libucrt:nlsdata.obj
 0002:00009ea8       ??_C@_03JGHBODFD@pow?$AA@  000000014002dea8     libucrt:fpexcept.obj
 0002:00009eac       ??_C@_05HGHHAHAP@log10?$AA@ 000000014002deac     libucrt:fpexcept.obj
 0002:00009ec0       __log_256_lead             000000014002dec0     libucrt:log_256_lead_tail_table.obj
 0002:0000a6d0       __log_256_tail             000000014002e6d0     libucrt:log_256_lead_tail_table.obj
 0002:0000aee0       __two_to_jby64_head_table  000000014002eee0     libucrt:two_to_jby64_head_tail_table.obj
 0002:0000b0e0       __two_to_jby64_tail_table  000000014002f0e0     libucrt:two_to_jby64_head_tail_table.obj
 0002:0000b2e0       ??_C@_04MBFDLNIM@powf?$AA@ 000000014002f2e0     libucrt:pow_special.obj
 0002:0000b2f0       __two_to_jby64_table       000000014002f2f0     libucrt:two_to_jby64_table.obj
 0002:0000b4f0       __log_F_inv_qword          000000014002f4f0     libucrt:log_f_inv_qword_table.obj
 0002:0000bd20       __acrt_rg_language         000000014002fd20     libucrt:get_qualified_locale.obj
 0002:0000c130       __acrt_rg_language_count   0000000140030130     libucrt:get_qualified_locale.obj
 0002:0000c140       __acrt_rg_country          0000000140030140     libucrt:get_qualified_locale.obj
 0002:0000c2b0       __acrt_rg_country_count    00000001400302b0     libucrt:get_qualified_locale.obj
 0002:0000c2b8       ??_C@_1BC@LLOKLNP@?$AAa?$AAm?$AAe?$AAr?$AAi?$AAc?$AAa?$AAn?$AA?$AA@ 00000001400302b8     libucrt:get_qualified_locale.obj
 0002:0000c2d0       ??_C@_1CC@HEIGCDGG@?$AAa?$AAm?$AAe?$AAr?$AAi?$AAc?$AAa?$AAn?$AA?5?$AAe?$AAn?$AAg?$AAl?$AAi?$AAs?$AAh?$AA?$AA@ 00000001400302d0     libucrt:get_qualified_locale.obj
 0002:0000c2f8       ??_C@_1CC@IHCNOMIN@?$AAa?$AAm?$AAe?$AAr?$AAi?$AAc?$AAa?$AAn?$AA?9?$AAe?$AAn?$AAg?$AAl?$AAi?$AAs?$AAh?$AA?$AA@ 00000001400302f8     libucrt:get_qualified_locale.obj
 0002:0000c320       ??_C@_1BG@GKAGPCGG@?$AAa?$AAu?$AAs?$AAt?$AAr?$AAa?$AAl?$AAi?$AAa?$AAn?$AA?$AA@ 0000000140030320     libucrt:get_qualified_locale.obj
 0002:0000c338       ??_C@_1BA@GMENCENF@?$AAb?$AAe?$AAl?$AAg?$AAi?$AAa?$AAn?$AA?$AA@ 0000000140030338     libucrt:get_qualified_locale.obj
 0002:0000c348       ??_C@_1BC@PJMIIAAN@?$AAc?$AAa?$AAn?$AAa?$AAd?$AAi?$AAa?$AAn?$AA?$AA@ 0000000140030348     libucrt:get_qualified_locale.obj
 0002:0000c360       ??_C@_17NOIMNFBF@?$AAc?$AAh?$AAh?$AA?$AA@ 0000000140030360     libucrt:get_qualified_locale.obj
 0002:0000c368       ??_C@_17GGDALCHA@?$AAc?$AAh?$AAi?$AA?$AA@ 0000000140030368     libucrt:get_qualified_locale.obj
 0002:0000c370       ??_C@_1BA@NPNJKIBL@?$AAc?$AAh?$AAi?$AAn?$AAe?$AAs?$AAe?$AA?$AA@ 0000000140030370     libucrt:get_qualified_locale.obj
 0002:0000c380       ??_C@_1CC@DINBAMMJ@?$AAc?$AAh?$AAi?$AAn?$AAe?$AAs?$AAe?$AA?9?$AAh?$AAo?$AAn?$AAg?$AAk?$AAo?$AAn?$AAg?$AA?$AA@ 0000000140030380     libucrt:get_qualified_locale.obj
 0002:0000c3a8       ??_C@_1CG@IOBJPACO@?$AAc?$AAh?$AAi?$AAn?$AAe?$AAs?$AAe?$AA?9?$AAs?$AAi?$AAm?$AAp?$AAl?$AAi?$AAf?$AAi?$AAe?$AAd?$AA?$AA@ 00000001400303a8     libucrt:get_qualified_locale.obj
 0002:0000c3d0       ??_C@_1CE@GAJNDCKG@?$AAc?$AAh?$AAi?$AAn?$AAe?$AAs?$AAe?$AA?9?$AAs?$AAi?$AAn?$AAg?$AAa?$AAp?$AAo?$AAr?$AAe?$AA?$AA@ 00000001400303d0     libucrt:get_qualified_locale.obj
 0002:0000c3f8       ??_C@_1CI@PAJPIOOD@?$AAc?$AAh?$AAi?$AAn?$AAe?$AAs?$AAe?$AA?9?$AAt?$AAr?$AAa?$AAd?$AAi?$AAt?$AAi?$AAo?$AAn?$AAa?$AAl?$AA?$AA@ 00000001400303f8     libucrt:get_qualified_locale.obj
 0002:0000c420       ??_C@_1BM@NILJBMMD@?$AAd?$AAu?$AAt?$AAc?$AAh?$AA?9?$AAb?$AAe?$AAl?$AAg?$AAi?$AAa?$AAn?$AA?$AA@ 0000000140030420     libucrt:get_qualified_locale.obj
 0002:0000c440       ??_C@_1CC@OOJPJNEJ@?$AAe?$AAn?$AAg?$AAl?$AAi?$AAs?$AAh?$AA?9?$AAa?$AAm?$AAe?$AAr?$AAi?$AAc?$AAa?$AAn?$AA?$AA@ 0000000140030440     libucrt:get_qualified_locale.obj
 0002:0000c468       ??_C@_1BI@IOLFEEM@?$AAe?$AAn?$AAg?$AAl?$AAi?$AAs?$AAh?$AA?9?$AAa?$AAu?$AAs?$AA?$AA@ 0000000140030468     libucrt:get_qualified_locale.obj
 0002:0000c480       ??_C@_1BO@HFFNLENJ@?$AAe?$AAn?$AAg?$AAl?$AAi?$AAs?$AAh?$AA?9?$AAb?$AAe?$AAl?$AAi?$AAz?$AAe?$AA?$AA@ 0000000140030480     libucrt:get_qualified_locale.obj
 0002:0000c4a0       ??_C@_1BI@HAPKJMPO@?$AAe?$AAn?$AAg?$AAl?$AAi?$AAs?$AAh?$AA?9?$AAc?$AAa?$AAn?$AA?$AA@ 00000001400304a0     libucrt:get_qualified_locale.obj
 0002:0000c4b8       ??_C@_1CE@HLNDMIOJ@?$AAe?$AAn?$AAg?$AAl?$AAi?$AAs?$AAh?$AA?9?$AAc?$AAa?$AAr?$AAi?$AAb?$AAb?$AAe?$AAa?$AAn?$AA?$AA@ 00000001400304b8     libucrt:get_qualified_locale.obj
 0002:0000c4e0       ??_C@_1BI@LDHJHHAC@?$AAe?$AAn?$AAg?$AAl?$AAi?$AAs?$AAh?$AA?9?$AAi?$AAr?$AAe?$AA?$AA@ 00000001400304e0     libucrt:get_qualified_locale.obj
 0002:0000c4f8       ??_C@_1CA@NJMMCFOC@?$AAe?$AAn?$AAg?$AAl?$AAi?$AAs?$AAh?$AA?9?$AAj?$AAa?$AAm?$AAa?$AAi?$AAc?$AAa?$AA?$AA@ 00000001400304f8     libucrt:get_qualified_locale.obj
 0002:0000c518       ??_C@_1BG@BHJEBBGG@?$AAe?$AAn?$AAg?$AAl?$AAi?$AAs?$AAh?$AA?9?$AAn?$AAz?$AA?$AA@ 0000000140030518     libucrt:get_qualified_locale.obj
 0002:0000c530       ??_C@_1CK@FGOEJJCO@?$AAe?$AAn?$AAg?$AAl?$AAi?$AAs?$AAh?$AA?9?$AAs?$AAo?$AAu?$AAt?$AAh?$AA?5?$AAa?$AAf?$AAr?$AAi?$AAc?$AAa?$AA?$AA@ 0000000140030530     libucrt:get_qualified_locale.obj
 0002:0000c560       ??_C@_1DE@PDBJPCJ@?$AAe?$AAn?$AAg?$AAl?$AAi?$AAs?$AAh?$AA?9?$AAt?$AAr?$AAi?$AAn?$AAi?$AAd?$AAa?$AAd?$AA?5?$AAy?$AA?5?$AAt?$AAo?$AAb?$AAa?$AAg?$AAo?$AA?$AA@ 0000000140030560     libucrt:get_qualified_locale.obj
 0002:0000c598       ??_C@_1BG@JGCANDME@?$AAe?$AAn?$AAg?$AAl?$AAi?$AAs?$AAh?$AA?9?$AAu?$AAk?$AA?$AA@ 0000000140030598     libucrt:get_qualified_locale.obj
 0002:0000c5b0       ??_C@_1BG@DINKMLE@?$AAe?$AAn?$AAg?$AAl?$AAi?$AAs?$AAh?$AA?9?$AAu?$AAs?$AA?$AA@ 00000001400305b0     libucrt:get_qualified_locale.obj
 0002:0000c5c8       ??_C@_1BI@NMFDBHJE@?$AAe?$AAn?$AAg?$AAl?$AAi?$AAs?$AAh?$AA?9?$AAu?$AAs?$AAa?$AA?$AA@ 00000001400305c8     libucrt:get_qualified_locale.obj
 0002:0000c5e0       ??_C@_1BO@OIHKJKII@?$AAf?$AAr?$AAe?$AAn?$AAc?$AAh?$AA?9?$AAb?$AAe?$AAl?$AAg?$AAi?$AAa?$AAn?$AA?$AA@ 00000001400305e0     libucrt:get_qualified_locale.obj
 0002:0000c600       ??_C@_1CA@NKAELJKI@?$AAf?$AAr?$AAe?$AAn?$AAc?$AAh?$AA?9?$AAc?$AAa?$AAn?$AAa?$AAd?$AAi?$AAa?$AAn?$AA?$AA@ 0000000140030600     libucrt:get_qualified_locale.obj
 0002:0000c620       ??_C@_1CE@MGKCNLGN@?$AAf?$AAr?$AAe?$AAn?$AAc?$AAh?$AA?9?$AAl?$AAu?$AAx?$AAe?$AAm?$AAb?$AAo?$AAu?$AAr?$AAg?$AA?$AA@ 0000000140030620     libucrt:get_qualified_locale.obj
 0002:0000c648       ??_C@_1BK@CEGEAILM@?$AAf?$AAr?$AAe?$AAn?$AAc?$AAh?$AA?9?$AAs?$AAw?$AAi?$AAs?$AAs?$AA?$AA@ 0000000140030648     libucrt:get_qualified_locale.obj
 0002:0000c668       ??_C@_1CA@PAFKEOCC@?$AAg?$AAe?$AAr?$AAm?$AAa?$AAn?$AA?9?$AAa?$AAu?$AAs?$AAt?$AAr?$AAi?$AAa?$AAn?$AA?$AA@ 0000000140030668     libucrt:get_qualified_locale.obj
 0002:0000c688       ??_C@_1CI@HCFHGOFD@?$AAg?$AAe?$AAr?$AAm?$AAa?$AAn?$AA?9?$AAl?$AAi?$AAc?$AAh?$AAt?$AAe?$AAn?$AAs?$AAt?$AAe?$AAi?$AAn?$AA?$AA@ 0000000140030688     libucrt:get_qualified_locale.obj
 0002:0000c6b0       ??_C@_1CE@FEDDNPDG@?$AAg?$AAe?$AAr?$AAm?$AAa?$AAn?$AA?9?$AAl?$AAu?$AAx?$AAe?$AAm?$AAb?$AAo?$AAu?$AAr?$AAg?$AA?$AA@ 00000001400306b0     libucrt:get_qualified_locale.obj
 0002:0000c6d8       ??_C@_1BK@LIMINNMN@?$AAg?$AAe?$AAr?$AAm?$AAa?$AAn?$AA?9?$AAs?$AAw?$AAi?$AAs?$AAs?$AA?$AA@ 00000001400306d8     libucrt:get_qualified_locale.obj
 0002:0000c6f8       ??_C@_1BM@LGMDBEPD@?$AAi?$AAr?$AAi?$AAs?$AAh?$AA?9?$AAe?$AAn?$AAg?$AAl?$AAi?$AAs?$AAh?$AA?$AA@ 00000001400306f8     libucrt:get_qualified_locale.obj
 0002:0000c718       ??_C@_1BM@NNCFBAEE@?$AAi?$AAt?$AAa?$AAl?$AAi?$AAa?$AAn?$AA?9?$AAs?$AAw?$AAi?$AAs?$AAs?$AA?$AA@ 0000000140030718     libucrt:get_qualified_locale.obj
 0002:0000c738       ??_C@_1BE@FEDJNPIB@?$AAn?$AAo?$AAr?$AAw?$AAe?$AAg?$AAi?$AAa?$AAn?$AA?$AA@ 0000000140030738     libucrt:get_qualified_locale.obj
 0002:0000c750       ??_C@_1CC@CILKDEIE@?$AAn?$AAo?$AAr?$AAw?$AAe?$AAg?$AAi?$AAa?$AAn?$AA?9?$AAb?$AAo?$AAk?$AAm?$AAa?$AAl?$AA?$AA@ 0000000140030750     libucrt:get_qualified_locale.obj
 0002:0000c778       ??_C@_1CE@DHMMHEPL@?$AAn?$AAo?$AAr?$AAw?$AAe?$AAg?$AAi?$AAa?$AAn?$AA?9?$AAn?$AAy?$AAn?$AAo?$AAr?$AAs?$AAk?$AA?$AA@ 0000000140030778     libucrt:get_qualified_locale.obj
 0002:0000c7a0       ??_C@_1CK@OPNMHECD@?$AAp?$AAo?$AAr?$AAt?$AAu?$AAg?$AAu?$AAe?$AAs?$AAe?$AA?9?$AAb?$AAr?$AAa?$AAz?$AAi?$AAl?$AAi?$AAa?$AAn?$AA?$AA@ 00000001400307a0     libucrt:get_qualified_locale.obj
 0002:0000c7d0       ??_C@_1CE@KEEHCDB@?$AAs?$AAp?$AAa?$AAn?$AAi?$AAs?$AAh?$AA?9?$AAa?$AAr?$AAg?$AAe?$AAn?$AAt?$AAi?$AAn?$AAa?$AA?$AA@ 00000001400307d0     libucrt:get_qualified_locale.obj
 0002:0000c7f8       ??_C@_1CA@GIAOLHJD@?$AAs?$AAp?$AAa?$AAn?$AAi?$AAs?$AAh?$AA?9?$AAb?$AAo?$AAl?$AAi?$AAv?$AAi?$AAa?$AA?$AA@ 00000001400307f8     libucrt:get_qualified_locale.obj
 0002:0000c818       ??_C@_1BM@OJNDFNPD@?$AAs?$AAp?$AAa?$AAn?$AAi?$AAs?$AAh?$AA?9?$AAc?$AAh?$AAi?$AAl?$AAe?$AA?$AA@ 0000000140030818     libucrt:get_qualified_locale.obj
 0002:0000c838       ??_C@_1CC@OCOLPALL@?$AAs?$AAp?$AAa?$AAn?$AAi?$AAs?$AAh?$AA?9?$AAc?$AAo?$AAl?$AAo?$AAm?$AAb?$AAi?$AAa?$AA?$AA@ 0000000140030838     libucrt:get_qualified_locale.obj
 0002:0000c860       ??_C@_1CG@BPOFMKBB@?$AAs?$AAp?$AAa?$AAn?$AAi?$AAs?$AAh?$AA?9?$AAc?$AAo?$AAs?$AAt?$AAa?$AA?5?$AAr?$AAi?$AAc?$AAa?$AA?$AA@ 0000000140030860     libucrt:get_qualified_locale.obj
 0002:0000c888       ??_C@_1DG@IGOBAPBB@?$AAs?$AAp?$AAa?$AAn?$AAi?$AAs?$AAh?$AA?9?$AAd?$AAo?$AAm?$AAi?$AAn?$AAi?$AAc?$AAa?$AAn?$AA?5?$AAr?$AAe?$AAp?$AAu?$AAb?$AAl?$AAi?$AAc?$AA?$AA@ 0000000140030888     libucrt:get_qualified_locale.obj
 0002:0000c8c0       ??_C@_1CA@JHAPGEGI@?$AAs?$AAp?$AAa?$AAn?$AAi?$AAs?$AAh?$AA?9?$AAe?$AAc?$AAu?$AAa?$AAd?$AAo?$AAr?$AA?$AA@ 00000001400308c0     libucrt:get_qualified_locale.obj
 0002:0000c8e0       ??_C@_1CI@LAPALJPP@?$AAs?$AAp?$AAa?$AAn?$AAi?$AAs?$AAh?$AA?9?$AAe?$AAl?$AA?5?$AAs?$AAa?$AAl?$AAv?$AAa?$AAd?$AAo?$AAr?$AA?$AA@ 00000001400308e0     libucrt:get_qualified_locale.obj
 0002:0000c908       ??_C@_1CE@PDGBOFOM@?$AAs?$AAp?$AAa?$AAn?$AAi?$AAs?$AAh?$AA?9?$AAg?$AAu?$AAa?$AAt?$AAe?$AAm?$AAa?$AAl?$AAa?$AA?$AA@ 0000000140030908     libucrt:get_qualified_locale.obj
 0002:0000c930       ??_C@_1CC@NBEBAODI@?$AAs?$AAp?$AAa?$AAn?$AAi?$AAs?$AAh?$AA?9?$AAh?$AAo?$AAn?$AAd?$AAu?$AAr?$AAa?$AAs?$AA?$AA@ 0000000140030930     libucrt:get_qualified_locale.obj
 0002:0000c958       ??_C@_1CA@LLKGHBMF@?$AAs?$AAp?$AAa?$AAn?$AAi?$AAs?$AAh?$AA?9?$AAm?$AAe?$AAx?$AAi?$AAc?$AAa?$AAn?$AA?$AA@ 0000000140030958     libucrt:get_qualified_locale.obj
 0002:0000c978       ??_C@_1BO@LKNDOIGD@?$AAs?$AAp?$AAa?$AAn?$AAi?$AAs?$AAh?$AA?9?$AAm?$AAo?$AAd?$AAe?$AAr?$AAn?$AA?$AA@ 0000000140030978     libucrt:get_qualified_locale.obj
 0002:0000c998       ??_C@_1CE@NMDMOEEB@?$AAs?$AAp?$AAa?$AAn?$AAi?$AAs?$AAh?$AA?9?$AAn?$AAi?$AAc?$AAa?$AAr?$AAa?$AAg?$AAu?$AAa?$AA?$AA@ 0000000140030998     libucrt:get_qualified_locale.obj
 0002:0000c9c0       ??_C@_1BO@LLCBEJGB@?$AAs?$AAp?$AAa?$AAn?$AAi?$AAs?$AAh?$AA?9?$AAp?$AAa?$AAn?$AAa?$AAm?$AAa?$AA?$AA@ 00000001400309c0     libucrt:get_qualified_locale.obj
 0002:0000c9e0       ??_C@_1CC@FKPGGIHO@?$AAs?$AAp?$AAa?$AAn?$AAi?$AAs?$AAh?$AA?9?$AAp?$AAa?$AAr?$AAa?$AAg?$AAu?$AAa?$AAy?$AA?$AA@ 00000001400309e0     libucrt:get_qualified_locale.obj
 0002:0000ca08       ??_C@_1BK@CDEIHOOP@?$AAs?$AAp?$AAa?$AAn?$AAi?$AAs?$AAh?$AA?9?$AAp?$AAe?$AAr?$AAu?$AA?$AA@ 0000000140030a08     libucrt:get_qualified_locale.obj
 0002:0000ca28       ??_C@_1CI@GAHAKKGP@?$AAs?$AAp?$AAa?$AAn?$AAi?$AAs?$AAh?$AA?9?$AAp?$AAu?$AAe?$AAr?$AAt?$AAo?$AA?5?$AAr?$AAi?$AAc?$AAo?$AA?$AA@ 0000000140030a28     libucrt:get_qualified_locale.obj
 0002:0000ca50       ??_C@_1CA@NKJBCAGP@?$AAs?$AAp?$AAa?$AAn?$AAi?$AAs?$AAh?$AA?9?$AAu?$AAr?$AAu?$AAg?$AAu?$AAa?$AAy?$AA?$AA@ 0000000140030a50     libucrt:get_qualified_locale.obj
 0002:0000ca70       ??_C@_1CE@ODILCONM@?$AAs?$AAp?$AAa?$AAn?$AAi?$AAs?$AAh?$AA?9?$AAv?$AAe?$AAn?$AAe?$AAz?$AAu?$AAe?$AAl?$AAa?$AA?$AA@ 0000000140030a70     libucrt:get_qualified_locale.obj
 0002:0000ca98       ??_C@_1CA@OBNMCGFO@?$AAs?$AAw?$AAe?$AAd?$AAi?$AAs?$AAh?$AA?9?$AAf?$AAi?$AAn?$AAl?$AAa?$AAn?$AAd?$AA?$AA@ 0000000140030a98     libucrt:get_qualified_locale.obj
 0002:0000cab8       ??_C@_1M@PIPDDPPI@?$AAs?$AAw?$AAi?$AAs?$AAs?$AA?$AA@ 0000000140030ab8     libucrt:get_qualified_locale.obj
 0002:0000cac4       ??_C@_15GMFIMNFM@?$AAu?$AAs?$AA?$AA@ 0000000140030ac4     libucrt:get_qualified_locale.obj
 0002:0000cad0       ??_C@_17HAEBFAGL@?$AAu?$AAs?$AAa?$AA?$AA@ 0000000140030ad0     libucrt:get_qualified_locale.obj
 0002:0000cad8       ??_C@_1BA@DPFJEPHB@?$AAa?$AAm?$AAe?$AAr?$AAi?$AAc?$AAa?$AA?$AA@ 0000000140030ad8     libucrt:get_qualified_locale.obj
 0002:0000cae8       ??_C@_1BA@ELOGGFK@?$AAb?$AAr?$AAi?$AAt?$AAa?$AAi?$AAn?$AA?$AA@ 0000000140030ae8     libucrt:get_qualified_locale.obj
 0002:0000caf8       ??_C@_1M@GHBGIGDA@?$AAc?$AAh?$AAi?$AAn?$AAa?$AA?$AA@ 0000000140030af8     libucrt:get_qualified_locale.obj
 0002:0000cb08       ??_C@_1M@NCHEJOPO@?$AAc?$AAz?$AAe?$AAc?$AAh?$AA?$AA@ 0000000140030b08     libucrt:get_qualified_locale.obj
 0002:0000cb18       ??_C@_1BA@BKPAPBLA@?$AAe?$AAn?$AAg?$AAl?$AAa?$AAn?$AAd?$AA?$AA@ 0000000140030b18     libucrt:get_qualified_locale.obj
 0002:0000cb28       ??_C@_1BM@HKBCKIPC@?$AAg?$AAr?$AAe?$AAa?$AAt?$AA?5?$AAb?$AAr?$AAi?$AAt?$AAa?$AAi?$AAn?$AA?$AA@ 0000000140030b28     libucrt:get_qualified_locale.obj
 0002:0000cb48       ??_C@_1BA@PPCHPGJB@?$AAh?$AAo?$AAl?$AAl?$AAa?$AAn?$AAd?$AA?$AA@ 0000000140030b48     libucrt:get_qualified_locale.obj
 0002:0000cb58       ??_C@_1BE@JBMPEGDG@?$AAh?$AAo?$AAn?$AAg?$AA?9?$AAk?$AAo?$AAn?$AAg?$AA?$AA@ 0000000140030b58     libucrt:get_qualified_locale.obj
 0002:0000cb70       ??_C@_1BI@KOELBBPJ@?$AAn?$AAe?$AAw?$AA?9?$AAz?$AAe?$AAa?$AAl?$AAa?$AAn?$AAd?$AA?$AA@ 0000000140030b70     libucrt:get_qualified_locale.obj
 0002:0000cb88       ??_C@_15HIEBHAIO@?$AAn?$AAz?$AA?$AA@ 0000000140030b88     libucrt:get_qualified_locale.obj
 0002:0000cb90       ??_C@_1BC@CHBCPFPI@?$AAp?$AAr?$AA?5?$AAc?$AAh?$AAi?$AAn?$AAa?$AA?$AA@ 0000000140030b90     libucrt:get_qualified_locale.obj
 0002:0000cba8       ??_C@_1BC@JAOIIFKD@?$AAp?$AAr?$AA?9?$AAc?$AAh?$AAi?$AAn?$AAa?$AA?$AA@ 0000000140030ba8     libucrt:get_qualified_locale.obj
 0002:0000cbc0       ??_C@_1BI@BEHPPHKC@?$AAp?$AAu?$AAe?$AAr?$AAt?$AAo?$AA?9?$AAr?$AAi?$AAc?$AAo?$AA?$AA@ 0000000140030bc0     libucrt:get_qualified_locale.obj
 0002:0000cbd8       ??_C@_1O@PAEOFKDI@?$AAs?$AAl?$AAo?$AAv?$AAa?$AAk?$AA?$AA@ 0000000140030bd8     libucrt:get_qualified_locale.obj
 0002:0000cbe8       ??_C@_1BK@FIHMCKAM@?$AAs?$AAo?$AAu?$AAt?$AAh?$AA?5?$AAa?$AAf?$AAr?$AAi?$AAc?$AAa?$AA?$AA@ 0000000140030be8     libucrt:get_qualified_locale.obj
 0002:0000cc08       ??_C@_1BI@NAEOODKB@?$AAs?$AAo?$AAu?$AAt?$AAh?$AA?5?$AAk?$AAo?$AAr?$AAe?$AAa?$AA?$AA@ 0000000140030c08     libucrt:get_qualified_locale.obj
 0002:0000cc20       ??_C@_1BK@FBDGGIFF@?$AAs?$AAo?$AAu?$AAt?$AAh?$AA?9?$AAa?$AAf?$AAr?$AAi?$AAc?$AAa?$AA?$AA@ 0000000140030c20     libucrt:get_qualified_locale.obj
 0002:0000cc40       ??_C@_1BI@GHLEJDPK@?$AAs?$AAo?$AAu?$AAt?$AAh?$AA?9?$AAk?$AAo?$AAr?$AAe?$AAa?$AA?$AA@ 0000000140030c40     libucrt:get_qualified_locale.obj
 0002:0000cc58       ??_C@_1CE@PLHLOMJF@?$AAt?$AAr?$AAi?$AAn?$AAi?$AAd?$AAa?$AAd?$AA?5?$AA?$CG?$AA?5?$AAt?$AAo?$AAb?$AAa?$AAg?$AAo?$AA?$AA@ 0000000140030c58     libucrt:get_qualified_locale.obj
 0002:0000cc80       ??_C@_1BO@MODIMHHI@?$AAu?$AAn?$AAi?$AAt?$AAe?$AAd?$AA?9?$AAk?$AAi?$AAn?$AAg?$AAd?$AAo?$AAm?$AA?$AA@ 0000000140030c80     libucrt:get_qualified_locale.obj
 0002:0000cca0       ??_C@_1BM@FFHJONBJ@?$AAu?$AAn?$AAi?$AAt?$AAe?$AAd?$AA?9?$AAs?$AAt?$AAa?$AAt?$AAe?$AAs?$AA?$AA@ 0000000140030ca0     libucrt:get_qualified_locale.obj
 0002:0000ccc0       ??_C@_17DNCLJFIF@?$AAA?$AAC?$AAP?$AA?$AA@ 0000000140030cc0     libucrt:get_qualified_locale.obj
 0002:0000ccc8       ??_C@_17CIKBIHLH@?$AAO?$AAC?$AAP?$AA?$AA@ 0000000140030cc8     libucrt:get_qualified_locale.obj
 0002:0000ccd0       __rglangidNotDefault       0000000140030cd0     libucrt:getqloc_downlevel.obj
 0002:0000e970       ??_C@_01GBGANLPD@0?$AA@    0000000140032970     libucrt:cfout.obj
 0002:0000e974       ??_C@_05DNEBIAHO@1?$CDINF?$AA@ 0000000140032974     libucrt:cfout.obj
 0002:0000e97c       ??_C@_06IMKFLFPG@1?$CDQNAN?$AA@ 000000014003297c     libucrt:cfout.obj
 0002:0000e984       ??_C@_06PGGFOGJG@1?$CDSNAN?$AA@ 0000000140032984     libucrt:cfout.obj
 0002:0000e98c       ??_C@_05PHHOCPM@1?$CDIND?$AA@ 000000014003298c     libucrt:cfout.obj
 0002:0000ec00       ??_C@_1BA@BALFACEM@?$AAC?$AAO?$AAN?$AAO?$AAU?$AAT?$AA$?$AA?$AA@ 0000000140032c00     libucrt:initcon.obj
 0002:0000ec10       __log10_256_lead           0000000140032c10     libucrt:log10_256_lead_tail_table.obj
 0002:0000f420       __log10_256_tail           0000000140033420     libucrt:log10_256_lead_tail_table.obj
 0002:0000fc28       ??_C@_0BC@BDKFLDHL@unknown?5exception?$AA@ 0000000140033c28     main.obj
 0002:0000fc40       ??_C@_0BA@ELKIONDK@bad?5locale?5name?$AA@ 0000000140033c40     main.obj
 0002:0000fc50       ??_C@_00CNPNBAHC@?$AA@     0000000140033c50     main.obj
 0002:0000fc54       ??_C@_02LMMGGCAJ@?3?5?$AA@ 0000000140033c54     main.obj
 0002:0000fc58       ??_C@_08LLGCOLLL@iostream?$AA@ 0000000140033c58     main.obj
 0002:0000fc68       ??_C@_0BG@PADBLCHM@iostream?5stream?5error?$AA@ 0000000140033c68     main.obj
 0002:0000fc80       ??_C@_0BF@PHHKMMFD@ios_base?3?3badbit?5set?$AA@ 0000000140033c80     main.obj
 0002:0000fc98       ??_C@_0BG@FMKFHCIL@ios_base?3?3failbit?5set?$AA@ 0000000140033c98     main.obj
 0002:0000fcb0       ??_C@_0BF@OOHOMBOF@ios_base?3?3eofbit?5set?$AA@ 0000000140033cb0     main.obj
 0002:0000fcc8       ??_C@_0DK@HPCIABIJ@ERROR?3?5Handle?5was?5not?5attached?4?5@ 0000000140033cc8     main.obj
 0002:0000fd08       ??_C@_08DPPJHEEB@ERROR?$CB?$CB?$CB?$AA@ 0000000140033d08     main.obj
 0002:0000fd18       ??_C@_0CI@NLDOKPJD@failed?5to?5get?5current?5serial?5par@ 0000000140033d18     main.obj
 0002:0000fd40       ??_C@_0CN@JDPFGBBP@ALERT?3?5could?5not?5set?5Serial?5port@ 0000000140033d40     main.obj
 0002:0000fd70       ??_C@_04GJNABJLD@COM3?$AA@ 0000000140033d70     main.obj
 0002:0000fd78       ??_C@_0BH@CKJGILCL@Connection?5Established?$AA@ 0000000140033d78     main.obj
 0002:0000fd90       ??_C@_0BH@IJECBHEP@ERROR?0?5check?5port?5name?$AA@ 0000000140033d90     main.obj
 0002:0000fda8       ??_C@_0BA@JFNIOLAK@string?5too?5long?$AA@ 0000000140033da8     main.obj
 0002:0000fdb8       ??_7exception@stdext@@6B@  0000000140033db8     main.obj
 0002:0000fdd0       ?port_name@@3PEADEA        0000000140033dd0     main.obj
 0002:0000fe40       _load_config_used          0000000140033e40     LIBCMT:loadcfg.obj
 0002:0000ff40       ??_R4exception@std@@6B@    0000000140033f40     libcpmt:xonce.obj
 0002:0000ff68       ??_R3exception@std@@8      0000000140033f68     libcpmt:xonce.obj
 0002:0000ff80       ??_R2exception@std@@8      0000000140033f80     libcpmt:xonce.obj
 0002:0000ff90       ??_R1A@?0A@EA@exception@std@@8 0000000140033f90     libcpmt:xonce.obj
 0002:0000ffb8       ??_R4runtime_error@std@@6B@ 0000000140033fb8     libcpmt:xonce.obj
 0002:0000ffe0       ??_R3runtime_error@std@@8  0000000140033fe0     libcpmt:xonce.obj
 0002:0000fff8       ??_R2runtime_error@std@@8  0000000140033ff8     libcpmt:xonce.obj
 0002:00010010       ??_R1A@?0A@EA@runtime_error@std@@8 0000000140034010     libcpmt:xonce.obj
 0002:00010038       ??_R3error_category@std@@8 0000000140034038     libcpmt:xonce.obj
 0002:00010050       ??_R2error_category@std@@8 0000000140034050     libcpmt:xonce.obj
 0002:00010060       ??_R1A@?0A@EA@error_category@std@@8 0000000140034060     libcpmt:xonce.obj
 0002:00010088       ??_R4_System_error@std@@6B@ 0000000140034088     libcpmt:xonce.obj
 0002:000100b0       ??_R3_System_error@std@@8  00000001400340b0     libcpmt:xonce.obj
 0002:000100c8       ??_R2_System_error@std@@8  00000001400340c8     libcpmt:xonce.obj
 0002:000100e8       ??_R1A@?0A@EA@_System_error@std@@8 00000001400340e8     libcpmt:xonce.obj
 0002:00010110       ??_R3system_error@std@@8   0000000140034110     libcpmt:xonce.obj
 0002:00010128       ??_R2system_error@std@@8   0000000140034128     libcpmt:xonce.obj
 0002:00010150       ??_R1A@?0A@EA@system_error@std@@8 0000000140034150     libcpmt:xonce.obj
 0002:00010178       ??_R3_Generic_error_category@std@@8 0000000140034178     libcpmt:xonce.obj
 0002:00010190       ??_R2_Generic_error_category@std@@8 0000000140034190     libcpmt:xonce.obj
 0002:000101a8       ??_R1A@?0A@EA@_Generic_error_category@std@@8 00000001400341a8     libcpmt:xonce.obj
 0002:000101d0       ??_R4ios_base@std@@6B@     00000001400341d0     libcpmt:cout.obj
 0002:000101f8       ??_R3ios_base@std@@8       00000001400341f8     libcpmt:cout.obj
 0002:00010210       ??_R2ios_base@std@@8       0000000140034210     libcpmt:cout.obj
 0002:00010228       ??_R1A@?0A@EA@ios_base@std@@8 0000000140034228     libcpmt:cout.obj
 0002:00010250       ??_R17?0A@EA@?$_Iosb@H@std@@8 0000000140034250     libcpmt:cout.obj
 0002:00010278       ??_R3?$_Iosb@H@std@@8      0000000140034278     libcpmt:cout.obj
 0002:00010290       ??_R2?$_Iosb@H@std@@8      0000000140034290     libcpmt:cout.obj
 0002:000102a0       ??_R1A@?0A@EA@?$_Iosb@H@std@@8 00000001400342a0     libcpmt:cout.obj
 0002:000102c8       ??_R4?$basic_ios@DU?$char_traits@D@std@@@std@@6B@ 00000001400342c8     libcpmt:cout.obj
 0002:000102f0       ??_R3?$basic_ios@DU?$char_traits@D@std@@@std@@8 00000001400342f0     libcpmt:cout.obj
 0002:00010308       ??_R2?$basic_ios@DU?$char_traits@D@std@@@std@@8 0000000140034308     libcpmt:cout.obj
 0002:00010328       ??_R1A@?0A@EA@?$basic_ios@DU?$char_traits@D@std@@@std@@8 0000000140034328     libcpmt:cout.obj
 0002:00010350       ??_R4?$basic_streambuf@DU?$char_traits@D@std@@@std@@6B@ 0000000140034350     libcpmt:cout.obj
 0002:00010378       ??_R3?$basic_streambuf@DU?$char_traits@D@std@@@std@@8 0000000140034378     libcpmt:cout.obj
 0002:00010390       ??_R2?$basic_streambuf@DU?$char_traits@D@std@@@std@@8 0000000140034390     libcpmt:cout.obj
 0002:000103a0       ??_R1A@?0A@EA@?$basic_streambuf@DU?$char_traits@D@std@@@std@@8 00000001400343a0     libcpmt:cout.obj
 0002:000103c8       ??_R1A@A@3FA@?$basic_ios@DU?$char_traits@D@std@@@std@@8 00000001400343c8     libcpmt:cout.obj
 0002:000103f0       ??_R1A@A@3EA@ios_base@std@@8 00000001400343f0     libcpmt:cout.obj
 0002:00010418       ??_R17A@3EA@?$_Iosb@H@std@@8 0000000140034418     libcpmt:cout.obj
 0002:00010440       ??_R4?$basic_ostream@DU?$char_traits@D@std@@@std@@6B@ 0000000140034440     libcpmt:cout.obj
 0002:00010468       ??_R3?$basic_ostream@DU?$char_traits@D@std@@@std@@8 0000000140034468     libcpmt:cout.obj
 0002:00010480       ??_R2?$basic_ostream@DU?$char_traits@D@std@@@std@@8 0000000140034480     libcpmt:cout.obj
 0002:000104a8       ??_R1A@?0A@EA@?$basic_ostream@DU?$char_traits@D@std@@@std@@8 00000001400344a8     libcpmt:cout.obj
 0002:000104d0       ??_R4?$basic_filebuf@DU?$char_traits@D@std@@@std@@6B@ 00000001400344d0     libcpmt:cout.obj
 0002:000104f8       ??_R3?$basic_filebuf@DU?$char_traits@D@std@@@std@@8 00000001400344f8     libcpmt:cout.obj
 0002:00010510       ??_R2?$basic_filebuf@DU?$char_traits@D@std@@@std@@8 0000000140034510     libcpmt:cout.obj
 0002:00010528       ??_R1A@?0A@EA@?$basic_filebuf@DU?$char_traits@D@std@@@std@@8 0000000140034528     libcpmt:cout.obj
 0002:00010550       ??_R4bad_cast@std@@6B@     0000000140034550     libcpmt:cout.obj
 0002:00010578       ??_R3bad_cast@std@@8       0000000140034578     libcpmt:cout.obj
 0002:00010590       ??_R2bad_cast@std@@8       0000000140034590     libcpmt:cout.obj
 0002:000105a8       ??_R1A@?0A@EA@bad_cast@std@@8 00000001400345a8     libcpmt:cout.obj
 0002:000105d0       ??_R4_Facet_base@std@@6B@  00000001400345d0     libcpmt:cout.obj
 0002:000105f8       ??_R3_Facet_base@std@@8    00000001400345f8     libcpmt:cout.obj
 0002:00010610       ??_R2_Facet_base@std@@8    0000000140034610     libcpmt:cout.obj
 0002:00010620       ??_R1A@?0A@EA@_Facet_base@std@@8 0000000140034620     libcpmt:cout.obj
 0002:00010648       ??_R1A@?0A@EA@facet@locale@std@@8 0000000140034648     libcpmt:cout.obj
 0002:00010670       ??_R3facet@locale@std@@8   0000000140034670     libcpmt:cout.obj
 0002:00010688       ??_R2facet@locale@std@@8   0000000140034688     libcpmt:cout.obj
 0002:000106a8       ??_R17?0A@EA@_Crt_new_delete@std@@8 00000001400346a8     libcpmt:cout.obj
 0002:000106d0       ??_R3_Crt_new_delete@std@@8 00000001400346d0     libcpmt:cout.obj
 0002:000106e8       ??_R2_Crt_new_delete@std@@8 00000001400346e8     libcpmt:cout.obj
 0002:000106f8       ??_R1A@?0A@EA@_Crt_new_delete@std@@8 00000001400346f8     libcpmt:cout.obj
 0002:00010720       ??_R3codecvt_base@std@@8   0000000140034720     libcpmt:cout.obj
 0002:00010738       ??_R2codecvt_base@std@@8   0000000140034738     libcpmt:cout.obj
 0002:00010760       ??_R1A@?0A@EA@codecvt_base@std@@8 0000000140034760     libcpmt:cout.obj
 0002:00010788       ??_R3ctype_base@std@@8     0000000140034788     libcpmt:cout.obj
 0002:000107a0       ??_R2ctype_base@std@@8     00000001400347a0     libcpmt:cout.obj
 0002:000107c8       ??_R1A@?0A@EA@ctype_base@std@@8 00000001400347c8     libcpmt:cout.obj
 0002:000107f0       ??_R4?$ctype@D@std@@6B@    00000001400347f0     libcpmt:cout.obj
 0002:00010818       ??_R3?$ctype@D@std@@8      0000000140034818     libcpmt:cout.obj
 0002:00010830       ??_R2?$ctype@D@std@@8      0000000140034830     libcpmt:cout.obj
 0002:00010860       ??_R1A@?0A@EA@?$ctype@D@std@@8 0000000140034860     libcpmt:cout.obj
 0002:00010888       ??_R4_Iostream_error_category@std@@6B@ 0000000140034888     libcpmt:cout.obj
 0002:000108b0       ??_R3_Iostream_error_category@std@@8 00000001400348b0     libcpmt:cout.obj
 0002:000108c8       ??_R2_Iostream_error_category@std@@8 00000001400348c8     libcpmt:cout.obj
 0002:000108e8       ??_R1A@?0A@EA@_Iostream_error_category@std@@8 00000001400348e8     libcpmt:cout.obj
 0002:00010910       ??_R4failure@ios_base@std@@6B@ 0000000140034910     libcpmt:cout.obj
 0002:00010938       ??_R3failure@ios_base@std@@8 0000000140034938     libcpmt:cout.obj
 0002:00010950       ??_R2failure@ios_base@std@@8 0000000140034950     libcpmt:cout.obj
 0002:00010980       ??_R1A@?0A@EA@failure@ios_base@std@@8 0000000140034980     libcpmt:cout.obj
 0002:000109a8       ??_R4?$codecvt@DDU_Mbstatet@@@std@@6B@ 00000001400349a8     libcpmt:cout.obj
 0002:000109d0       ??_R3?$codecvt@DDU_Mbstatet@@@std@@8 00000001400349d0     libcpmt:cout.obj
 0002:000109e8       ??_R2?$codecvt@DDU_Mbstatet@@@std@@8 00000001400349e8     libcpmt:cout.obj
 0002:00010a18       ??_R1A@?0A@EA@?$codecvt@DDU_Mbstatet@@@std@@8 0000000140034a18     libcpmt:cout.obj
 0002:00010a40       ??_R4_Locimp@locale@std@@6B@ 0000000140034a40     libcpmt:locale0.obj
 0002:00010a68       ??_R3_Locimp@locale@std@@8 0000000140034a68     libcpmt:locale0.obj
 0002:00010a80       ??_R2_Locimp@locale@std@@8 0000000140034a80     libcpmt:locale0.obj
 0002:00010aa8       ??_R1A@?0A@EA@_Locimp@locale@std@@8 0000000140034aa8     libcpmt:locale0.obj
 0002:00010ad0       ??_R4?$basic_istream@DU?$char_traits@D@std@@@std@@6B@ 0000000140034ad0     libcpmt:cin.obj
 0002:00010af8       ??_R3?$basic_istream@DU?$char_traits@D@std@@@std@@8 0000000140034af8     libcpmt:cin.obj
 0002:00010b10       ??_R2?$basic_istream@DU?$char_traits@D@std@@@std@@8 0000000140034b10     libcpmt:cin.obj
 0002:00010b38       ??_R1A@?0A@EA@?$basic_istream@DU?$char_traits@D@std@@@std@@8 0000000140034b38     libcpmt:cin.obj
 0002:00010b60       ??_R4bad_alloc@std@@6B@    0000000140034b60     libcpmt:xthrow.obj
 0002:00010b88       ??_R3bad_alloc@std@@8      0000000140034b88     libcpmt:xthrow.obj
 0002:00010ba0       ??_R2bad_alloc@std@@8      0000000140034ba0     libcpmt:xthrow.obj
 0002:00010bb8       ??_R1A@?0A@EA@bad_alloc@std@@8 0000000140034bb8     libcpmt:xthrow.obj
 0002:00010be0       ??_R4logic_error@std@@6B@  0000000140034be0     libcpmt:xthrow.obj
 0002:00010c08       ??_R3logic_error@std@@8    0000000140034c08     libcpmt:xthrow.obj
 0002:00010c20       ??_R2logic_error@std@@8    0000000140034c20     libcpmt:xthrow.obj
 0002:00010c38       ??_R1A@?0A@EA@logic_error@std@@8 0000000140034c38     libcpmt:xthrow.obj
 0002:00010c60       ??_R4length_error@std@@6B@ 0000000140034c60     libcpmt:xthrow.obj
 0002:00010c88       ??_R3length_error@std@@8   0000000140034c88     libcpmt:xthrow.obj
 0002:00010ca0       ??_R2length_error@std@@8   0000000140034ca0     libcpmt:xthrow.obj
 0002:00010cc0       ??_R1A@?0A@EA@length_error@std@@8 0000000140034cc0     libcpmt:xthrow.obj
 0002:00010ce8       ??_R4type_info@@6B@        0000000140034ce8     LIBCMT:std_type_info_static.obj
 0002:00010d10       ??_R3type_info@@8          0000000140034d10     LIBCMT:std_type_info_static.obj
 0002:00010d28       ??_R2type_info@@8          0000000140034d28     LIBCMT:std_type_info_static.obj
 0002:00010d38       ??_R1A@?0A@EA@type_info@@8 0000000140034d38     LIBCMT:std_type_info_static.obj
 0002:00010d60       ??_R4bad_array_new_length@std@@6B@ 0000000140034d60     LIBCMT:throw_bad_alloc.obj
 0002:00010d88       ??_R3bad_array_new_length@std@@8 0000000140034d88     LIBCMT:throw_bad_alloc.obj
 0002:00010da0       ??_R2bad_array_new_length@std@@8 0000000140034da0     LIBCMT:throw_bad_alloc.obj
 0002:00010dc0       ??_R1A@?0A@EA@bad_array_new_length@std@@8 0000000140034dc0     LIBCMT:throw_bad_alloc.obj
 0002:00010de8       ??_R4bad_exception@std@@6B@ 0000000140034de8     libvcruntime:frame.obj
 0002:00010e10       ??_R3bad_exception@std@@8  0000000140034e10     libvcruntime:frame.obj
 0002:00010e28       ??_R2bad_exception@std@@8  0000000140034e28     libvcruntime:frame.obj
 0002:00010e40       ??_R1A@?0A@EA@bad_exception@std@@8 0000000140034e40     libvcruntime:frame.obj
 0002:00011208       __rtc_iaa                  0000000140035208     LIBCMT:_initsect_.obj
 0002:00011210       __rtc_izz                  0000000140035210     LIBCMT:_initsect_.obj
 0002:00011218       __rtc_taa                  0000000140035218     LIBCMT:_initsect_.obj
 0002:00011220       __rtc_tzz                  0000000140035220     LIBCMT:_initsect_.obj
 0002:00012f18       _CT??_R0?AVexception@std@@@8??0exception@std@@QEAA@AEBV01@@Z24 0000000140036f18     libcpmt:xonce.obj
 0002:00012f40       _TI2?AVbad_cast@std@@      0000000140036f40     libcpmt:cout.obj
 0002:00012f60       _CTA2?AVbad_cast@std@@     0000000140036f60     libcpmt:cout.obj
 0002:00012f78       _CT??_R0?AVbad_cast@std@@@8??0bad_cast@std@@QEAA@AEBV01@@Z24 0000000140036f78     libcpmt:cout.obj
 0002:00012fa0       _TI2?AVbad_alloc@std@@     0000000140036fa0     libcpmt:xthrow.obj
 0002:00012fc0       _CTA2?AVbad_alloc@std@@    0000000140036fc0     libcpmt:xthrow.obj
 0002:00012fd8       _CT??_R0?AVbad_alloc@std@@@8??0bad_alloc@std@@QEAA@AEBV01@@Z24 0000000140036fd8     libcpmt:xthrow.obj
 0002:00013000       _CT??_R0?AVlogic_error@std@@@8??0logic_error@std@@QEAA@AEBV01@@Z24 0000000140037000     libcpmt:xthrow.obj
 0002:00013028       _TI3?AVlength_error@std@@  0000000140037028     libcpmt:xthrow.obj
 0002:00013048       _CTA3?AVlength_error@std@@ 0000000140037048     libcpmt:xthrow.obj
 0002:00013068       _CT??_R0?AVlength_error@std@@@8??0length_error@std@@QEAA@AEBV01@@Z24 0000000140037068     libcpmt:xthrow.obj
 0002:00013090       _TI3?AVbad_array_new_length@std@@ 0000000140037090     LIBCMT:throw_bad_alloc.obj
 0002:000130b0       _CTA3?AVbad_array_new_length@std@@ 00000001400370b0     LIBCMT:throw_bad_alloc.obj
 0002:000130d0       _CT??_R0?AVbad_array_new_length@std@@@8??0bad_array_new_length@std@@QEAA@AEBV01@@Z24 00000001400370d0     LIBCMT:throw_bad_alloc.obj
 0002:000130f8       _TI2?AVbad_exception@std@@ 00000001400370f8     libvcruntime:frame.obj
 0002:00013118       _CTA2?AVbad_exception@std@@ 0000000140037118     libvcruntime:frame.obj
 0002:00013130       _CT??_R0?AVbad_exception@std@@@8??0bad_exception@std@@QEAA@AEBV01@@Z24 0000000140037130     libvcruntime:frame.obj
 0002:00013154       __IMPORT_DESCRIPTOR_KERNEL32 0000000140037154     kernel32:KERNEL32.dll
 0002:00013168       __NULL_IMPORT_DESCRIPTOR   0000000140037168     kernel32:KERNEL32.dll
 0003:00000004       ?_Sync@ios_base@std@@0_NA  0000000140038004     libcpmt:ios.obj
 0003:00000020       ?_PJP_CPP_Copyright@@3PADA 0000000140038020     libcpmt:iosptrs.obj
 0003:00000080       __scrt_native_dllmain_reason 0000000140038080     LIBCMT:utility.obj
 0003:00000088       __security_cookie          0000000140038088     LIBCMT:gs_cookie.obj
 0003:00000090       __security_cookie_complement 0000000140038090     LIBCMT:gs_cookie.obj
 0003:00000098       _fltused                   0000000140038098     LIBCMT:fltused.obj
 0003:000000a0       __scrt_default_matherr     00000001400380a0     LIBCMT:matherr.obj
 0003:000000a8       __isa_available            00000001400380a8     LIBCMT:_cpu_disp_.obj
 0003:000000ac       __isa_enabled              00000001400380ac     LIBCMT:_cpu_disp_.obj
 0003:000000b0       __memcpy_nt_iters          00000001400380b0     LIBCMT:_cpu_disp_.obj
 0003:000000d0       __abort_behavior           00000001400380d0     libucrt:abort.obj
 0003:000000e0       _iob                       00000001400380e0     libucrt:_file.obj
 0003:000001f0       _pctype                    00000001400381f0     libucrt:ctype.obj
 0003:000001f8       _pwctype                   00000001400381f8     libucrt:ctype.obj
 0003:00000200       __acrt_lconv_c             0000000140038200     libucrt:localeconv.obj
 0003:00000298       __acrt_lconv               0000000140038298     libucrt:localeconv.obj
 0003:000002a0       __acrt_lconv_static_decimal 00000001400382a0     libucrt:localeconv.obj
 0003:000002a4       __acrt_lconv_static_W_decimal 00000001400382a4     libucrt:localeconv.obj
 0003:000002c0       __badioinfo                00000001400382c0     libucrt:ioinit.obj
 0003:00000304       __mb_cur_max               0000000140038304     libucrt:nlsdata.obj
 0003:00000310       __acrt_initial_locale_data 0000000140038310     libucrt:nlsdata.obj
 0003:00000468       __acrt_initial_locale_pointers 0000000140038468     libucrt:nlsdata.obj
 0003:00000478       __acrt_wide_c_locale_string 0000000140038478     libucrt:nlsdata.obj
 0003:0000047c       __globallocalestatus       000000014003847c     libucrt:glstatus.obj
 0003:00000620       __acrt_initial_multibyte_data 0000000140038620     libucrt:mbctype.obj
 0003:00000a60       _lookuptrailbytes          0000000140038a60     libucrt:read.obj
 0003:00000b70       ??_R0?AVsystem_error@std@@@8 0000000140038b70     libcpmt:xonce.obj
 0003:00000b98       ??_R0?AV_System_error@std@@@8 0000000140038b98     libcpmt:xonce.obj
 0003:00000bc0       ??_R0?AVruntime_error@std@@@8 0000000140038bc0     libcpmt:xonce.obj
 0003:00000be8       ??_R0?AVexception@std@@@8  0000000140038be8     libcpmt:xonce.obj
 0003:00000c10       ??_R0?AVerror_category@std@@@8 0000000140038c10     libcpmt:xonce.obj
 0003:00000c40       ??_R0?AV_Generic_error_category@std@@@8 0000000140038c40     libcpmt:xonce.obj
 0003:00000c78       ??_R0?AVfailure@ios_base@std@@@8 0000000140038c78     libcpmt:cout.obj
 0003:00000ca8       ??_R0?AVbad_cast@std@@@8   0000000140038ca8     libcpmt:cout.obj
 0003:00000cd0       ??_R0?AVios_base@std@@@8   0000000140038cd0     libcpmt:cout.obj
 0003:00000cf8       ??_R0?AV?$_Iosb@H@std@@@8  0000000140038cf8     libcpmt:cout.obj
 0003:00000d20       ??_R0?AV?$basic_ios@DU?$char_traits@D@std@@@std@@@8 0000000140038d20     libcpmt:cout.obj
 0003:00000d60       ??_R0?AV?$basic_streambuf@DU?$char_traits@D@std@@@std@@@8 0000000140038d60     libcpmt:cout.obj
 0003:00000db0       ??_R0?AV?$basic_ostream@DU?$char_traits@D@std@@@std@@@8 0000000140038db0     libcpmt:cout.obj
 0003:00000e00       ??_R0?AV?$basic_filebuf@DU?$char_traits@D@std@@@std@@@8 0000000140038e00     libcpmt:cout.obj
 0003:00000e48       ??_R0?AV_Facet_base@std@@@8 0000000140038e48     libcpmt:cout.obj
 0003:00000e70       ??_R0?AVfacet@locale@std@@@8 0000000140038e70     libcpmt:cout.obj
 0003:00000e98       ??_R0?AU_Crt_new_delete@std@@@8 0000000140038e98     libcpmt:cout.obj
 0003:00000ec8       ??_R0?AVcodecvt_base@std@@@8 0000000140038ec8     libcpmt:cout.obj
 0003:00000ef0       ??_R0?AUctype_base@std@@@8 0000000140038ef0     libcpmt:cout.obj
 0003:00000f18       ??_R0?AV?$ctype@D@std@@@8  0000000140038f18     libcpmt:cout.obj
 0003:00000f40       ??_R0?AV_Iostream_error_category@std@@@8 0000000140038f40     libcpmt:cout.obj
 0003:00000f78       ??_R0?AV?$codecvt@DDU_Mbstatet@@@std@@@8 0000000140038f78     libcpmt:cout.obj
 0003:00000fb0       ??_R0?AV_Locimp@locale@std@@@8 0000000140038fb0     libcpmt:locale0.obj
 0003:00000fe0       ??_R0?AV?$basic_istream@DU?$char_traits@D@std@@@std@@@8 0000000140038fe0     libcpmt:cin.obj
 0003:00001028       ??_R0?AVbad_alloc@std@@@8  0000000140039028     libcpmt:xthrow.obj
 0003:00001050       ??_R0?AVlogic_error@std@@@8 0000000140039050     libcpmt:xthrow.obj
 0003:00001078       ??_R0?AVlength_error@std@@@8 0000000140039078     libcpmt:xthrow.obj
 0003:000010a0       ??_R0?AVtype_info@@@8      00000001400390a0     LIBCMT:std_type_info_static.obj
 0003:000010c0       ??_R0?AVbad_array_new_length@std@@@8 00000001400390c0     LIBCMT:throw_bad_alloc.obj
 0003:000010f0       ??_R0?AVbad_exception@std@@@8 00000001400390f0     libvcruntime:frame.obj
 0003:00001280       ?cout@std@@3V?$basic_ostream@DU?$char_traits@D@std@@@1@A 0000000140039280     libcpmt:cout.obj
 0003:00001388       ?id@?$codecvt@DDU_Mbstatet@@@std@@2V0locale@2@A 0000000140039388     libcpmt:cout.obj
 0003:00001390       ?_Stinit@?1??_Init@?$basic_filebuf@DU?$char_traits@D@std@@@std@@IEAAXPEAU_iobuf@@W4_Initfl@23@@Z@4U_Mbstatet@@A 0000000140039390     libcpmt:cout.obj
 0003:00001398       ?_Psave@?$_Facetptr@V?$codecvt@DDU_Mbstatet@@@std@@@std@@2PEBVfacet@locale@2@EB 0000000140039398     libcpmt:cout.obj
 0003:000013a8       ?_Id_cnt@id@locale@std@@0HA 00000001400393a8     libcpmt:locale0.obj
 0003:000013b0       ?_Clocptr@_Locimp@locale@std@@0PEAV123@EA 00000001400393b0     libcpmt:locale0.obj
 0003:000013c0       ?id@?$ctype@_W@std@@2V0locale@2@A 00000001400393c0     libcpmt:locale0.obj
 0003:000013c8       ?id@?$ctype@D@std@@2V0locale@2@A 00000001400393c8     libcpmt:locale0.obj
 0003:000013d0       ?id@?$codecvt@GDU_Mbstatet@@@std@@2V0locale@2@A 00000001400393d0     libcpmt:locale0.obj
 0003:000013d8       ?id@?$ctype@G@std@@2V0locale@2@A 00000001400393d8     libcpmt:locale0.obj
 0003:000013f0       ?id@?$codecvt@_WDU_Mbstatet@@@std@@2V0locale@2@A 00000001400393f0     libcpmt:locale0.obj
 0003:000014b0       ?cin@std@@3V?$basic_istream@DU?$char_traits@D@std@@@1@A 00000001400394b0     libcpmt:cin.obj
 0003:00001528       ?_Raise_handler@std@@3P6AXAEBVexception@stdext@@@ZEA 0000000140039528     libcpmt:raisehan.obj
 0003:00001530       __encodedKERNEL32Functions 0000000140039530     libcpmt:winapisupp.obj
 0003:000016cc       ?_Index@ios_base@std@@0HA  00000001400396cc     libcpmt:ios.obj
 0003:000016d0       ?_Ptr_cin@std@@3PEAV?$basic_istream@DU?$char_traits@D@std@@@1@EA 00000001400396d0     libcpmt:iosptrs.obj
 0003:000016d8       ?_Ptr_cout@std@@3PEAV?$basic_ostream@DU?$char_traits@D@std@@@1@EA 00000001400396d8     libcpmt:iosptrs.obj
 0003:000016e0       ?_Ptr_cerr@std@@3PEAV?$basic_ostream@DU?$char_traits@D@std@@@1@EA 00000001400396e0     libcpmt:iosptrs.obj
 0003:000016e8       ?_Ptr_clog@std@@3PEAV?$basic_ostream@DU?$char_traits@D@std@@@1@EA 00000001400396e8     libcpmt:iosptrs.obj
 0003:000016f0       ?_Ptr_wcin@std@@3PEAV?$basic_istream@_WU?$char_traits@_W@std@@@1@EA 00000001400396f0     libcpmt:iosptrs.obj
 0003:000016f8       ?_Ptr_wcout@std@@3PEAV?$basic_ostream@_WU?$char_traits@_W@std@@@1@EA 00000001400396f8     libcpmt:iosptrs.obj
 0003:00001700       ?_Ptr_wcerr@std@@3PEAV?$basic_ostream@_WU?$char_traits@_W@std@@@1@EA 0000000140039700     libcpmt:iosptrs.obj
 0003:00001708       ?_Ptr_wclog@std@@3PEAV?$basic_ostream@_WU?$char_traits@_W@std@@@1@EA 0000000140039708     libcpmt:iosptrs.obj
 0003:00001768       ?id@?$num_get@DV?$istreambuf_iterator@DU?$char_traits@D@std@@@std@@@std@@2V0locale@2@A 0000000140039768     libcpmt:locale.obj
 0003:00001770       ?id@?$num_put@DV?$ostreambuf_iterator@DU?$char_traits@D@std@@@std@@@std@@2V0locale@2@A 0000000140039770     libcpmt:locale.obj
 0003:00001778       ?id@?$numpunct@D@std@@2V0locale@2@A 0000000140039778     libcpmt:locale.obj
 0003:00001780       ?id@?$time_put@_WV?$ostreambuf_iterator@_WU?$char_traits@_W@std@@@std@@@std@@2V0locale@2@A 0000000140039780     libcpmt:wlocale.obj
 0003:00001788       ?id@?$num_get@_WV?$istreambuf_iterator@_WU?$char_traits@_W@std@@@std@@@std@@2V0locale@2@A 0000000140039788     libcpmt:wlocale.obj
 0003:00001790       ?id@?$num_put@_WV?$ostreambuf_iterator@_WU?$char_traits@_W@std@@@std@@@std@@2V0locale@2@A 0000000140039790     libcpmt:wlocale.obj
 0003:00001798       ?id@?$numpunct@_W@std@@2V0locale@2@A 0000000140039798     libcpmt:wlocale.obj
 0003:000017a0       ?id@?$collate@_W@std@@2V0locale@2@A 00000001400397a0     libcpmt:wlocale.obj
 0003:000017a8       ?id@?$messages@_W@std@@2V0locale@2@A 00000001400397a8     libcpmt:wlocale.obj
 0003:000017b0       ?id@?$money_get@_WV?$istreambuf_iterator@_WU?$char_traits@_W@std@@@std@@@std@@2V0locale@2@A 00000001400397b0     libcpmt:wlocale.obj
 0003:000017b8       ?id@?$money_put@_WV?$ostreambuf_iterator@_WU?$char_traits@_W@std@@@std@@@std@@2V0locale@2@A 00000001400397b8     libcpmt:wlocale.obj
 0003:000017c0       ?id@?$moneypunct@_W$0A@@std@@2V0locale@2@A 00000001400397c0     libcpmt:wlocale.obj
 0003:000017c8       ?id@?$moneypunct@_W$00@std@@2V0locale@2@A 00000001400397c8     libcpmt:wlocale.obj
 0003:000017d0       ?id@?$time_get@_WV?$istreambuf_iterator@_WU?$char_traits@_W@std@@@std@@@std@@2V0locale@2@A 00000001400397d0     libcpmt:wlocale.obj
 0003:000017d8       ?id@?$num_get@GV?$istreambuf_iterator@GU?$char_traits@G@std@@@std@@@std@@2V0locale@2@A 00000001400397d8     libcpmt:wlocale.obj
 0003:000017e0       ?id@?$num_put@GV?$ostreambuf_iterator@GU?$char_traits@G@std@@@std@@@std@@2V0locale@2@A 00000001400397e0     libcpmt:wlocale.obj
 0003:000017e8       ?id@?$numpunct@G@std@@2V0locale@2@A 00000001400397e8     libcpmt:wlocale.obj
 0003:000017f0       ?id@?$collate@G@std@@2V0locale@2@A 00000001400397f0     libcpmt:wlocale.obj
 0003:000017f8       ?id@?$messages@G@std@@2V0locale@2@A 00000001400397f8     libcpmt:wlocale.obj
 0003:00001800       ?id@?$money_get@GV?$istreambuf_iterator@GU?$char_traits@G@std@@@std@@@std@@2V0locale@2@A 0000000140039800     libcpmt:wlocale.obj
 0003:00001808       ?id@?$money_put@GV?$ostreambuf_iterator@GU?$char_traits@G@std@@@std@@@std@@2V0locale@2@A 0000000140039808     libcpmt:wlocale.obj
 0003:00001810       ?id@?$moneypunct@G$0A@@std@@2V0locale@2@A 0000000140039810     libcpmt:wlocale.obj
 0003:00001818       ?id@?$moneypunct@G$00@std@@2V0locale@2@A 0000000140039818     libcpmt:wlocale.obj
 0003:00001820       ?id@?$time_get@GV?$istreambuf_iterator@GU?$char_traits@G@std@@@std@@@std@@2V0locale@2@A 0000000140039820     libcpmt:wlocale.obj
 0003:00001828       ?id@?$time_put@GV?$ostreambuf_iterator@GU?$char_traits@G@std@@@std@@@std@@2V0locale@2@A 0000000140039828     libcpmt:wlocale.obj
 0003:00001830       ?id@?$collate@D@std@@2V0locale@2@A 0000000140039830     libcpmt:xlocale.obj
 0003:00001838       ?id@?$messages@D@std@@2V0locale@2@A 0000000140039838     libcpmt:xlocale.obj
 0003:00001840       ?id@?$money_get@DV?$istreambuf_iterator@DU?$char_traits@D@std@@@std@@@std@@2V0locale@2@A 0000000140039840     libcpmt:xlocale.obj
 0003:00001848       ?id@?$money_put@DV?$ostreambuf_iterator@DU?$char_traits@D@std@@@std@@@std@@2V0locale@2@A 0000000140039848     libcpmt:xlocale.obj
 0003:00001850       ?id@?$moneypunct@D$0A@@std@@2V0locale@2@A 0000000140039850     libcpmt:xlocale.obj
 0003:00001858       ?id@?$moneypunct@D$00@std@@2V0locale@2@A 0000000140039858     libcpmt:xlocale.obj
 0003:00001860       ?id@?$time_get@DV?$istreambuf_iterator@DU?$char_traits@D@std@@@std@@@std@@2V0locale@2@A 0000000140039860     libcpmt:xlocale.obj
 0003:00001868       ?id@?$time_put@DV?$ostreambuf_iterator@DU?$char_traits@D@std@@@std@@@std@@2V0locale@2@A 0000000140039868     libcpmt:xlocale.obj
 0003:00001870       __scrt_current_native_startup_state 0000000140039870     LIBCMT:utility.obj
 0003:00001878       __scrt_native_startup_lock 0000000140039878     LIBCMT:utility.obj
 0003:00001e30       ?__type_info_root_node@@3U__type_info_node@@A 0000000140039e30     LIBCMT:tncleanup.obj
 0003:00001e40       ?_OptionsStorage@?1??__local_stdio_scanf_options@@9@4_KA 0000000140039e40     LIBCMT:default_local_stdio_options.obj
 0003:00001e48       __scrt_debugger_hook_flag  0000000140039e48     LIBCMT:utility_desktop.obj
 0003:00001e4c       __favor                    0000000140039e4c     LIBCMT:_cpu_disp_.obj
 0003:00001e50       ?__WinRTOutOfMemoryExceptionCallback@@3P6APEAXXZEA 0000000140039e50     libvcruntime:ehhelpers.obj
 0003:00001e58       __pPurecall                0000000140039e58     libvcruntime:purevirt_data.obj
 0003:00001f48       ?m_pGetParameter@UnDecorator@@0P6APEADJ@ZEA 0000000140039f48     libvcruntime:undname.obj
 0003:00001f50       ?m_CHPENameOffset@UnDecorator@@0KA 0000000140039f50     libvcruntime:undname.obj
 0003:00001f54       ?m_recursionLevel@UnDecorator@@0KA 0000000140039f54     libvcruntime:undname.obj
 0003:00001f58       ?pArgList@UnDecorator@@0PEAVReplicator@@EA 0000000140039f58     libvcruntime:undname.obj
 0003:00001f60       ?pZNameList@UnDecorator@@0PEAVReplicator@@EA 0000000140039f60     libvcruntime:undname.obj
 0003:00001f68       ?pTemplateArgList@UnDecorator@@0PEAVReplicator@@EA 0000000140039f68     libvcruntime:undname.obj
 0003:00001f70       ?gName@UnDecorator@@0PEBDEB 0000000140039f70     libvcruntime:undname.obj
 0003:00001f78       ?name@UnDecorator@@0PEBDEB 0000000140039f78     libvcruntime:undname.obj
 0003:00001f80       ?disableFlags@UnDecorator@@0KA 0000000140039f80     libvcruntime:undname.obj
 0003:00001f84       ?fExplicitTemplateParams@UnDecorator@@0_NA 0000000140039f84     libvcruntime:undname.obj
 0003:00001f85       ?fGetTemplateArgumentList@UnDecorator@@0_NA 0000000140039f85     libvcruntime:undname.obj
 0003:00001fb0       _nstream                   0000000140039fb0     libucrt:_file.obj
 0003:00001fb8       __piob                     0000000140039fb8     libucrt:_file.obj
 0003:00001fc0       _cflush                    0000000140039fc0     libucrt:_file.obj
 0003:00002204       __acrt_lconv_static_null   000000014003a204     libucrt:localeconv.obj
 0003:00002208       __acrt_lconv_static_W_null 000000014003a208     libucrt:localeconv.obj
 0003:00002338       _environ_table             000000014003a338     libucrt:environment_initialization.obj
 0003:00002340       _wenviron_table            000000014003a340     libucrt:environment_initialization.obj
 0003:00002348       __dcrt_initial_wide_environment 000000014003a348     libucrt:environment_initialization.obj
 0003:00002350       __dcrt_initial_narrow_environment 000000014003a350     libucrt:environment_initialization.obj
 0003:00002368       ?c_exit_complete@?1???R<lambda_6e4b09c48022b2350581041d5f6b0c4c>@@QEBA@XZ@4_NA 000000014003a368     libucrt:exit.obj
 0003:0000236c       __argc                     000000014003a36c     libucrt:argv_data.obj
 0003:00002370       __argv                     000000014003a370     libucrt:argv_data.obj
 0003:00002378       __wargv                    000000014003a378     libucrt:argv_data.obj
 0003:00002380       _acmdln                    000000014003a380     libucrt:argv_data.obj
 0003:00002388       _wcmdln                    000000014003a388     libucrt:argv_data.obj
 0003:00002390       _pgmptr                    000000014003a390     libucrt:argv_data.obj
 0003:00002398       __acrt_locale_changed_data 000000014003a398     libucrt:wsetlocale.obj
 0003:000023a0       _commode                   000000014003a3a0     libucrt:ncommode.obj
 0003:000023a8       __acrt_atexit_table        000000014003a3a8     libucrt:onexit.obj
 0003:000023c0       __acrt_at_quick_exit_table 000000014003a3c0     libucrt:onexit.obj
 0003:000025c0       __pioinfo                  000000014003a5c0     libucrt:ioinit.obj
 0003:000029c0       _nhandle                   000000014003a9c0     libucrt:ioinit.obj
 0003:000029d8       __acrt_stdout_buffer       000000014003a9d8     libucrt:_sftbuf.obj
 0003:000029e0       __acrt_stderr_buffer       000000014003a9e0     libucrt:_sftbuf.obj
 0003:000029e8       __acrt_current_locale_data 000000014003a9e8     libucrt:nlsdata.obj
 0003:000029f0       __fma3_is_available        000000014003a9f0     libucrt:fma3_available.obj
 0003:000029f4       __use_fma3_lib             000000014003a9f4     libucrt:fma3_available.obj
 0003:000029f8       ?_timezone@@3V?$dual_state_global@J@__crt_state_management@@A 000000014003a9f8     libucrt:timeset.obj
 0003:000029fc       ?_daylight@@3V?$dual_state_global@H@__crt_state_management@@A 000000014003a9fc     libucrt:timeset.obj
 0003:00002a00       ?_dstbias@@3V?$dual_state_global@J@__crt_state_management@@A 000000014003aa00     libucrt:timeset.obj
 0003:00002ad0       __acrt_current_multibyte_data 000000014003aad0     libucrt:mbctype.obj
 0003:00002ad8       _mbctype                   000000014003aad8     libucrt:mbctype.obj
 0003:00002ae0       _mbcasemap                 000000014003aae0     libucrt:mbctype.obj
 0003:00002af0       _fmode                     000000014003aaf0     libucrt:txtmode.obj
 0003:00002af8       __acrt_heap                000000014003aaf8     libucrt:heap_handle.obj
 0003:00002b10       ?_Psave@?$_Facetptr@V?$ctype@D@std@@@std@@2PEBVfacet@locale@2@EB 000000014003ab10     main.obj
 0003:00002b18       ?_Flag@?1???$_Immortalize@V_Iostream_error_category@std@@@std@@YAAEAV_Iostream_error_category@1@XZ@4PEAXEA 000000014003ab18     main.obj
 0003:00002b20       ?_Storage@?1???$_Immortalize@V_Iostream_error_category@std@@@std@@YAAEAV_Iostream_error_category@1@XZ@4T?$_Align_type@N$0BA@@1@A 000000014003ab20     main.obj
 0003:00002b30       ?_OptionsStorage@?1??__local_stdio_printf_options@@9@4_KA 000000014003ab30     main.obj
 0003:00002b38       __scrt_ucrt_dll_is_in_use  000000014003ab38     <common>
 0003:00002b40       __dyn_tls_dtor_callback    000000014003ab40     <common>
 0003:00002b48       __dyn_tls_init_callback    000000014003ab48     <common>

 entry point at        0001:00005978

 Static symbols

 0000:fffc1000       .debug$S                   0000000140000000     kernel32:KERNEL32.dll
 0000:fffc1000       .debug$S                   0000000140000000     kernel32:KERNEL32.dll
 0000:fffc1000       .debug$S                   0000000140000000     kernel32:KERNEL32.dll
 0000:fffc1000       .debug$S                   0000000140000000     kernel32:KERNEL32.dll
 0000:fffc1000       .debug$S                   0000000140000000     kernel32:KERNEL32.dll
 0000:fffc1000       .debug$S                   0000000140000000     kernel32:KERNEL32.dll
 0000:fffc1000       .debug$S                   0000000140000000     kernel32:KERNEL32.dll
 0000:fffc1000       .debug$S                   0000000140000000     kernel32:KERNEL32.dll
 0000:fffc1000       .debug$S                   0000000140000000     kernel32:KERNEL32.dll
 0000:fffc1000       .debug$S                   0000000140000000     kernel32:KERNEL32.dll
 0000:fffc1000       .debug$S                   0000000140000000     kernel32:KERNEL32.dll
 0000:fffc1000       .debug$S                   0000000140000000     kernel32:KERNEL32.dll
 0000:fffc1000       .debug$S                   0000000140000000     kernel32:KERNEL32.dll
 0000:fffc1000       .debug$S                   0000000140000000     kernel32:KERNEL32.dll
 0000:fffc1000       .debug$S                   0000000140000000     kernel32:KERNEL32.dll
 0000:fffc1000       .debug$S                   0000000140000000     kernel32:KERNEL32.dll
 0000:fffc1000       .debug$S                   0000000140000000     kernel32:KERNEL32.dll
 0000:fffc1000       .debug$S                   0000000140000000     kernel32:KERNEL32.dll
 0000:fffc1000       .debug$S                   0000000140000000     kernel32:KERNEL32.dll
 0000:fffc1000       .debug$S                   0000000140000000     kernel32:KERNEL32.dll
 0000:fffc1000       .debug$S                   0000000140000000     kernel32:KERNEL32.dll
 0000:fffc1000       .debug$S                   0000000140000000     kernel32:KERNEL32.dll
 0000:fffc1000       .debug$S                   0000000140000000     kernel32:KERNEL32.dll
 0000:fffc1000       .debug$S                   0000000140000000     kernel32:KERNEL32.dll
 0000:fffc1000       .debug$S                   0000000140000000     kernel32:KERNEL32.dll
 0000:fffc1000       .debug$S                   0000000140000000     kernel32:KERNEL32.dll
 0000:fffc1000       .debug$S                   0000000140000000     kernel32:KERNEL32.dll
 0000:fffc1000       .debug$S                   0000000140000000     kernel32:KERNEL32.dll
 0000:fffc1000       .debug$S                   0000000140000000     kernel32:KERNEL32.dll
 0000:fffc1000       .debug$S                   0000000140000000     kernel32:KERNEL32.dll
 0000:fffc1000       .debug$S                   0000000140000000     kernel32:KERNEL32.dll
 0000:fffc1000       .debug$S                   0000000140000000     kernel32:KERNEL32.dll
 0000:fffc1000       .debug$S                   0000000140000000     kernel32:KERNEL32.dll
 0000:fffc1000       .debug$S                   0000000140000000     kernel32:KERNEL32.dll
 0000:fffc1000       .debug$S                   0000000140000000     kernel32:KERNEL32.dll
 0000:fffc1000       .debug$S                   0000000140000000     kernel32:KERNEL32.dll
 0000:fffc1000       .debug$S                   0000000140000000     kernel32:KERNEL32.dll
 0000:fffc1000       .debug$S                   0000000140000000     kernel32:KERNEL32.dll
 0000:fffc1000       .debug$S                   0000000140000000     kernel32:KERNEL32.dll
 0000:fffc1000       .debug$S                   0000000140000000     kernel32:KERNEL32.dll
 0000:fffc1000       .debug$S                   0000000140000000     kernel32:KERNEL32.dll
 0000:fffc1000       .debug$S                   0000000140000000     kernel32:KERNEL32.dll
 0000:fffc1000       .debug$S                   0000000140000000     kernel32:KERNEL32.dll
 0000:fffc1000       .debug$S                   0000000140000000     kernel32:KERNEL32.dll
 0000:fffc1000       .debug$S                   0000000140000000     kernel32:KERNEL32.dll
 0000:fffc1000       .debug$S                   0000000140000000     kernel32:KERNEL32.dll
 0000:fffc1000       .debug$S                   0000000140000000     kernel32:KERNEL32.dll
 0000:fffc1000       .debug$S                   0000000140000000     kernel32:KERNEL32.dll
 0000:fffc1000       .debug$S                   0000000140000000     kernel32:KERNEL32.dll
 0000:fffc1000       .debug$S                   0000000140000000     kernel32:KERNEL32.dll
 0000:fffc1000       .debug$S                   0000000140000000     kernel32:KERNEL32.dll
 0000:fffc1000       .debug$S                   0000000140000000     kernel32:KERNEL32.dll
 0000:fffc1000       .debug$S                   0000000140000000     kernel32:KERNEL32.dll
 0000:fffc1000       .debug$S                   0000000140000000     kernel32:KERNEL32.dll
 0000:fffc1000       .debug$S                   0000000140000000     kernel32:KERNEL32.dll
 0000:fffc1000       .debug$S                   0000000140000000     kernel32:KERNEL32.dll
 0000:fffc1000       .debug$S                   0000000140000000     kernel32:KERNEL32.dll
 0000:fffc1000       .debug$S                   0000000140000000     kernel32:KERNEL32.dll
 0000:fffc1000       .debug$S                   0000000140000000     kernel32:KERNEL32.dll
 0000:fffc1000       .debug$S                   0000000140000000     kernel32:KERNEL32.dll
 0000:fffc1000       .debug$S                   0000000140000000     kernel32:KERNEL32.dll
 0000:fffc1000       .debug$S                   0000000140000000     kernel32:KERNEL32.dll
 0000:fffc1000       .debug$S                   0000000140000000     kernel32:KERNEL32.dll
 0000:fffc1000       .debug$S                   0000000140000000     kernel32:KERNEL32.dll
 0000:fffc1000       .debug$S                   0000000140000000     kernel32:KERNEL32.dll
 0000:fffc1000       .debug$S                   0000000140000000     kernel32:KERNEL32.dll
 0000:fffc1000       .debug$S                   0000000140000000     kernel32:KERNEL32.dll
 0000:fffc1000       .debug$S                   0000000140000000     kernel32:KERNEL32.dll
 0000:fffc1000       .debug$S                   0000000140000000     kernel32:KERNEL32.dll
 0000:fffc1000       .debug$S                   0000000140000000     kernel32:KERNEL32.dll
 0000:fffc1000       .debug$S                   0000000140000000     kernel32:KERNEL32.dll
 0000:fffc1000       .debug$S                   0000000140000000     kernel32:KERNEL32.dll
 0000:fffc1000       .debug$S                   0000000140000000     kernel32:KERNEL32.dll
 0000:fffc1000       .debug$S                   0000000140000000     kernel32:KERNEL32.dll
 0000:fffc1000       .debug$S                   0000000140000000     kernel32:KERNEL32.dll
 0000:fffc1000       .debug$S                   0000000140000000     kernel32:KERNEL32.dll
 0000:fffc1000       .debug$S                   0000000140000000     kernel32:KERNEL32.dll
 0000:fffc1000       .debug$S                   0000000140000000     kernel32:KERNEL32.dll
 0000:fffc1000       .debug$S                   0000000140000000     kernel32:KERNEL32.dll
 0000:fffc1000       .debug$S                   0000000140000000     kernel32:KERNEL32.dll
 0000:fffc1000       .debug$S                   0000000140000000     kernel32:KERNEL32.dll
 0000:fffc1000       .debug$S                   0000000140000000     kernel32:KERNEL32.dll
 0000:fffc1000       .debug$S                   0000000140000000     kernel32:KERNEL32.dll
 0000:fffc1000       .debug$S                   0000000140000000     kernel32:KERNEL32.dll
 0000:fffc1000       .debug$S                   0000000140000000     kernel32:KERNEL32.dll
 0000:fffc1000       .debug$S                   0000000140000000     kernel32:KERNEL32.dll
 0000:fffc1000       .debug$S                   0000000140000000     kernel32:KERNEL32.dll
 0000:fffc1000       .debug$S                   0000000140000000     kernel32:KERNEL32.dll
 0000:fffc1000       .debug$S                   0000000140000000     kernel32:KERNEL32.dll
 0000:fffc1000       .debug$S                   0000000140000000     kernel32:KERNEL32.dll
 0000:fffc1000       .debug$S                   0000000140000000     kernel32:KERNEL32.dll
 0000:fffc1000       .debug$S                   0000000140000000     kernel32:KERNEL32.dll
 0000:fffc1000       .debug$S                   0000000140000000     kernel32:KERNEL32.dll
 0000:fffc1000       .debug$S                   0000000140000000     kernel32:KERNEL32.dll
 0000:fffc1000       .debug$S                   0000000140000000     kernel32:KERNEL32.dll
 0001:00000000       ??__Einitlocks@std@@YAXXZ  0000000140001000 f   libcpmt:xlock.obj
 0001:00000020       ??__Ecout@std@@YAXXZ       0000000140001020 f   libcpmt:cout.obj
 0001:00000050       ??__Efout@std@@YAXXZ       0000000140001050 f   libcpmt:cout.obj
 0001:000000a0       ??__Einit_cout@std@@YAXXZ  00000001400010a0 f   libcpmt:cout.obj
 0001:000000ac       ??__Einitlocks@@YAXXZ      00000001400010ac f   libcpmt:cout.obj
 0001:000000cc       ??__E_Fac_tidy_reg@std@@YAXXZ 00000001400010cc f   libcpmt:locale0.obj
 0001:000000d8       ??__Eclassic_locale@std@@YAXXZ 00000001400010d8 f   libcpmt:locale0.obj
 0001:000000e4       ??__Ecin@std@@YAXXZ        00000001400010e4 f   libcpmt:cin.obj
 0001:00000114       ??__Efin@std@@YAXXZ        0000000140001114 f   libcpmt:cin.obj
 0001:00000164       ??__Einit_cin@std@@YAXXZ   0000000140001164 f   libcpmt:cin.obj
 0001:0000018c       ??__Einitlocks@@YAXXZ      000000014000118c f   libcpmt:cin.obj
 0001:000001ac       ??__Einit_atexit@@YAXXZ    00000001400011ac f   libcpmt:iosptrs.obj
 0001:000001b8       ??__Einitlocks@std@@YAXXZ  00000001400011b8 f   libcpmt:iosptrs.obj
 0001:00001910       ??$_Reallocate_grow_by@V<lambda_65e615be2a453ca0576c979606f46740>@@PEBD_K@?$basic_string@DU?$char_traits@D@std@@V?$allocator@D@2@@std@@QEAAAEAV01@_KV<lambda_65e615be2a453ca0576c979606f46740>@@PEBD_K@Z 0000000140002910 f   main.obj
 0001:00002618       ??$_Reallocate_for@V<lambda_138c3d7c38c85abb84c7fc7bfe5747b7>@@D@?$basic_string@DU?$char_traits@D@std@@V?$allocator@D@2@@std@@QEAAAEAV01@_KV<lambda_138c3d7c38c85abb84c7fc7bfe5747b7>@@D@Z 0000000140003618 f   libcpmt:xonce.obj
 0001:00002740       ??$_Reallocate_grow_by@V<lambda_e1befb086ad3257e3f042a63030725f7>@@_KD@?$basic_string@DU?$char_traits@D@std@@V?$allocator@D@2@@std@@QEAAAEAV01@_KV<lambda_e1befb086ad3257e3f042a63030725f7>@@_KD@Z 0000000140003740 f   libcpmt:xonce.obj
 0001:00003530       initialize_global_state_isolation 0000000140004530 f i libucrt:initialization.obj
 0001:00003530       uninitialize_global_state_isolation 0000000140004530 f i libucrt:initialization.obj
 0001:00003530       report_memory_leaks        0000000140004530 f i libucrt:initialization.obj
 0001:00003530       initialize_environment     0000000140004530 f i libucrt:initialization.obj
 0001:00003530       uninitialize_c             0000000140004530 f i libucrt:initialization.obj
 0001:00003b24       no_op_initialize           0000000140004b24 f i libucrt:wsetlocale.obj
 0001:00004444       tidy_global                0000000140005444 f   libcpmt:locale0.obj
 0001:00004a98       ?initialize_pointers@@YAHXZ 0000000140005a98 f   libcpmt:winapisupp.obj
 0001:000056a0       $$000000                   00000001400066a0     LIBCMT:_amdsecgs_.obj
 0001:00005720       ?pre_c_initialization@@YAHXZ 0000000140006720 f   LIBCMT:exe_main.obj
 0001:000057d0       ?post_pgo_initialization@@YAHXZ 00000001400067d0 f   LIBCMT:exe_main.obj
 0001:000057e0       ?pre_cpp_initialization@@YAXXZ 00000001400067e0 f   LIBCMT:exe_main.obj
 0001:000057fc       ?__scrt_common_main_seh@@YAHXZ 00000001400067fc f   LIBCMT:exe_main.obj
 0001:00005d70       $$000000                   0000000140006d70     LIBCMT:_chkstk_.obj
 0001:00005f8c       capture_current_context    0000000140006f8c f   LIBCMT:gs_report.obj
 0001:00005ffc       capture_previous_context   0000000140006ffc f   LIBCMT:gs_report.obj
 0001:00006de0       $$000000                   0000000140007de0     libvcruntime:memcpy.obj
 0001:00006e87       MoveSmall                  0000000140007e87     libvcruntime:memcpy.obj
 0001:00007240       $$000000                   0000000140008240     libvcruntime:memset.obj
 0001:0000733c       MsetTab                    000000014000833c     libvcruntime:memset.obj
 0001:00007530       $$000000                   0000000140008530     libvcruntime:memchr.obj
 0001:000075b0       $$000000                   00000001400085b0     libvcruntime:memcmp.obj
 0001:00007bf4       ?CatchIt@@YAXPEAUEHExceptionRecord@@PEA_KPEAU_CONTEXT@@PEAU_xDISPATCHER_CONTEXT@@PEBU_s_FuncInfo@@PEBU_s_HandlerType@@PEBU_s_CatchableType@@PEBU_s_TryBlockMapEntry@@H1EE@Z 0000000140008bf4 f   libvcruntime:frame.obj
 0001:00007cb8       ?ExFilterRethrow@@YAHPEAU_EXCEPTION_POINTERS@@PEAUEHExceptionRecord@@PEAH@Z 0000000140008cb8 f   libvcruntime:frame.obj
 0001:00007d40       ?FindHandler@@YAXPEAUEHExceptionRecord@@PEA_KPEAU_CONTEXT@@PEAU_xDISPATCHER_CONTEXT@@PEBU_s_FuncInfo@@EH1@Z 0000000140008d40 f   libvcruntime:frame.obj
 0001:000081f0       ?FindHandlerForForeignException@@YAXPEAUEHExceptionRecord@@PEA_KPEAU_CONTEXT@@PEAU_xDISPATCHER_CONTEXT@@PEBU_s_FuncInfo@@HH1@Z 00000001400091f0 f   libvcruntime:frame.obj
 0001:00008448       ?IsInExceptionSpec@@YAEPEAUEHExceptionRecord@@PEBU_s_ESTypeList@@@Z 0000000140009448 f   libvcruntime:frame.obj
 0001:00008f00       $$000000                   0000000140009f00     libvcruntime:_jmpuwind_.obj
 0001:0000902c       ?try_get_function@@YAPEAXW4function_id@?A0x89697e75@@QEBDQEBW4module_id@2@2@Z 000000014000a02c f   libvcruntime:winapi_downlevel.obj
 0001:00009410       $$000000                   000000014000a410     libvcruntime:handlers.obj
 0001:00009954       ??$?RV<lambda_a62c933ada0517137acf5807a1eeac1f>@@AEAV<lambda_a31071773b9a94e445cbd5d04ef99106>@@V<lambda_56065050dbf3ada7e59a83db45153de3>@@@?$__crt_seh_guarded_call@H@@QEAAH$$QEAV<lambda_a62c933ada0517137acf5807a1eeac1f>@@AEAV<lambda_a31071773b9a94e445cbd5d04ef99106>@@$$QEAV<lambda_56065050dbf3ada7e59a83db45153de3>@@@Z 000000014000a954 f   libucrt:output.obj
 0001:00009c9c       ??R<lambda_a31071773b9a94e445cbd5d04ef99106>@@QEBAHXZ 000000014000ac9c f   libucrt:output.obj
 0001:0000b2b8       ??$?RV<lambda_842d9ff0dc9ef11c61343bbaebe7f885>@@AEAV<lambda_c5860995281e5c4ce005b3de8f5874ee>@@V<lambda_d90129c13df834fdcbf8d2b88dafcf2d>@@@?$__crt_seh_guarded_call@X@@QEAAX$$QEAV<lambda_842d9ff0dc9ef11c61343bbaebe7f885>@@AEAV<lambda_c5860995281e5c4ce005b3de8f5874ee>@@$$QEAV<lambda_d90129c13df834fdcbf8d2b88dafcf2d>@@@Z 000000014000c2b8 f   libucrt:fflush.obj
 0001:0000b354       ??$?RV<lambda_886d6c58226a84441f68b9f2b8217b83>@@AEAV<lambda_ab61a845afdef5b7c387490eaf3616ee>@@V<lambda_f7f22ab5edc0698d5f6905b0d3f44752>@@@?$__crt_seh_guarded_call@X@@QEAAX$$QEAV<lambda_886d6c58226a84441f68b9f2b8217b83>@@AEAV<lambda_ab61a845afdef5b7c387490eaf3616ee>@@$$QEAV<lambda_f7f22ab5edc0698d5f6905b0d3f44752>@@@Z 000000014000c354 f   libucrt:fflush.obj
 0001:0000b434       ??$?RV<lambda_c376a267cfb53b6959b3b692ec76b120>@@AEAV<lambda_9a32fed5bf61b6b509b2d3f6003082a1>@@V<lambda_572fbb9fa0ab338edf41edfd4b5fcc8d>@@@?$__crt_seh_guarded_call@H@@QEAAH$$QEAV<lambda_c376a267cfb53b6959b3b692ec76b120>@@AEAV<lambda_9a32fed5bf61b6b509b2d3f6003082a1>@@$$QEAV<lambda_572fbb9fa0ab338edf41edfd4b5fcc8d>@@@Z 000000014000c434 f   libucrt:fflush.obj
 0001:0000b474       ?common_flush_all@@YAH_N@Z 000000014000c474 f   libucrt:fflush.obj
 0001:0000b8f8       ?common_fseek@@YAHV__crt_stdio_stream@@_JH@Z 000000014000c8f8 f   libucrt:fseek.obj
 0001:0000b964       ?common_fseek_binary_mode_read_only_fast_track_nolock@@YA_NV__crt_stdio_stream@@_JH@Z 000000014000c964 f   libucrt:fseek.obj
 0001:0000ba44       ?common_fseek_nolock@@YAHV__crt_stdio_stream@@_JH@Z 000000014000ca44 f   libucrt:fseek.obj
 0001:0000bb2c       ??$?RV<lambda_bdbcead8b570fa3d5ec6d9679862a6e5>@@AEAV<lambda_96f4279ff90247a4c5c5d9824f56f8c1>@@V<lambda_4606be27f17b5e5579e09050fab91818>@@@?$__crt_seh_guarded_call@_K@@QEAA_K$$QEAV<lambda_bdbcead8b570fa3d5ec6d9679862a6e5>@@AEAV<lambda_96f4279ff90247a4c5c5d9824f56f8c1>@@$$QEAV<lambda_4606be27f17b5e5579e09050fab91818>@@@Z 000000014000cb2c f   libucrt:fwrite.obj
 0001:0000bb6c       ??R<lambda_96f4279ff90247a4c5c5d9824f56f8c1>@@QEBA_KXZ 000000014000cb6c f   libucrt:fwrite.obj
 0001:0000bdfc       ??$?RV<lambda_84ec643ea9557e2f7dc01bb0e9624395>@@AEAV<lambda_ca71763b3c0644891230e4f79ea54fa6>@@V<lambda_439a761618c59b0600e24586724d733b>@@@?$__crt_seh_guarded_call@H@@QEAAH$$QEAV<lambda_84ec643ea9557e2f7dc01bb0e9624395>@@AEAV<lambda_ca71763b3c0644891230e4f79ea54fa6>@@$$QEAV<lambda_439a761618c59b0600e24586724d733b>@@@Z 000000014000cdfc f   libucrt:setvbuf.obj
 0001:0000be3c       ??R<lambda_ca71763b3c0644891230e4f79ea54fa6>@@QEBAHXZ 000000014000ce3c f   libucrt:setvbuf.obj
 0001:0000c140       ??$?RV<lambda_9bd929c17696992ce54f1d748594fc62>@@AEAV<lambda_082c17da81b0962e08c0587ee0fac50c>@@V<lambda_9c08ac857f4975304d44e9f601d9b878>@@@?$__crt_seh_guarded_call@PEAD@@QEAAPEAD$$QEAV<lambda_9bd929c17696992ce54f1d748594fc62>@@AEAV<lambda_082c17da81b0962e08c0587ee0fac50c>@@$$QEAV<lambda_9c08ac857f4975304d44e9f601d9b878>@@@Z 000000014000d140 f   libucrt:setlocale.obj
 0001:0000c180       ??R<lambda_082c17da81b0962e08c0587ee0fac50c>@@QEBAPEADXZ 000000014000d180 f   libucrt:setlocale.obj
 0001:0000d210       memcpy_s                   000000014000e210 f   libucrt:strtod.obj
 0001:0000d210       memcpy_s                   000000014000e210 f   libucrt:cfout.obj
 0001:0000d2a0       $$000000                   000000014000e2a0     libucrt:pow.obj
 0001:0000e940       $$000000                   000000014000f940     libucrt:powf.obj
 0001:0000f820       ?x_ismbbtype_l@@YAHPEAU__crt_locale_pointers@@IHH@Z 0000000140010820 f   libucrt:ismbbyte.obj
 0001:0000f8ac       ?internal_isupper_l@@YA_NHQEAU__crt_locale_pointers@@@Z 00000001400108ac f   libucrt:tolower_toupper.obj
 0001:0001007c       ??$parse_command_line@D@@YAXPEADPEAPEAD0PEA_K2@Z 000000014001107c f   libucrt:argv_parsing.obj
 0001:00010428       ??$common_initialize_environment_nolock@D@@YAHXZ 0000000140011428 f   libucrt:environment_initialization.obj
 0001:00010494       ??$create_environment@D@@YAQEAPEADQEAD@Z 0000000140011494 f   libucrt:environment_initialization.obj
 0001:0001059c       ??$free_environment@_W@@YAXQEAPEA_W@Z 000000014001159c f   libucrt:environment_initialization.obj
 0001:0001059c       ??$free_environment@D@@YAXQEAPEAD@Z 000000014001159c f   libucrt:environment_initialization.obj
 0001:000105e0       ??$initialize_environment_by_cloning_nolock@D@@YAHXZ 00000001400115e0 f   libucrt:environment_initialization.obj
 0001:000106b4       ??$uninitialize_environment_internal@D@@YAXAEAPEAPEAD@Z 00000001400116b4 f   libucrt:environment_initialization.obj
 0001:000106d0       ??$uninitialize_environment_internal@_W@@YAXAEAPEAPEA_W@Z 00000001400116d0 f   libucrt:environment_initialization.obj
 0001:0001085c       ??$?RV<lambda_d80eeec6fff315bfe5c115232f3240e3>@@AEAV<lambda_6e4b09c48022b2350581041d5f6b0c4c>@@V<lambda_2358e3775559c9db80273638284d5e45>@@@?$__crt_seh_guarded_call@X@@QEAAX$$QEAV<lambda_d80eeec6fff315bfe5c115232f3240e3>@@AEAV<lambda_6e4b09c48022b2350581041d5f6b0c4c>@@$$QEAV<lambda_2358e3775559c9db80273638284d5e45>@@@Z 000000014001185c f   libucrt:exit.obj
 0001:00010894       ??R<lambda_6e4b09c48022b2350581041d5f6b0c4c>@@QEBA@XZ 0000000140011894 f   libucrt:exit.obj
 0001:0001096c       ?atexit_exception_filter@@YAHK@Z 000000014001196c f   libucrt:exit.obj
 0001:00010978       ?common_exit@@YAXHW4_crt_exit_cleanup_mode@@W4_crt_exit_return_mode@@@Z 0000000140011978 f   libucrt:exit.obj
 0001:00010a34       ?exit_or_terminate_process@@YAXI@Z 0000000140011a34 f   libucrt:exit.obj
 0001:00010a80       ?try_cor_exit_process@@YAXI@Z 0000000140011a80 f   libucrt:exit.obj
 0001:00010bd8       ??$?RV<lambda_1d892b297fdedeee07ed8124eeb2f2fa>@@AEAV<lambda_ffc046909424fd52df0ac47e64813305>@@V<lambda_01a7098693036236037e7cdb9bca3d73>@@@?$__crt_seh_guarded_call@X@@QEAAX$$QEAV<lambda_1d892b297fdedeee07ed8124eeb2f2fa>@@AEAV<lambda_ffc046909424fd52df0ac47e64813305>@@$$QEAV<lambda_01a7098693036236037e7cdb9bca3d73>@@@Z 0000000140011bd8 f   libucrt:wsetlocale.obj
 0001:00010d14       ??$?RV<lambda_410d79af7f07d98d83a3f525b3859a53>@@AEAV<lambda_3e16ef9562a7dcce91392c22ab16ea36>@@V<lambda_38119f0e861e05405d8a144b9b982f0a>@@@?$__crt_seh_guarded_call@X@@QEAAX$$QEAV<lambda_410d79af7f07d98d83a3f525b3859a53>@@AEAV<lambda_3e16ef9562a7dcce91392c22ab16ea36>@@$$QEAV<lambda_38119f0e861e05405d8a144b9b982f0a>@@@Z 0000000140011d14 f   libucrt:wsetlocale.obj
 0001:00010d84       ??$?RV<lambda_7f2adfce497ff2baa965cd4f576ecfd1>@@AEAV<lambda_2a444430fde8c29194d880d93eed5e8f>@@AEAV<lambda_8dff2cf36a5417162780cd64fa2883ef>@@@?$__crt_seh_guarded_call@X@@QEAAX$$QEAV<lambda_7f2adfce497ff2baa965cd4f576ecfd1>@@AEAV<lambda_2a444430fde8c29194d880d93eed5e8f>@@AEAV<lambda_8dff2cf36a5417162780cd64fa2883ef>@@@Z 0000000140011d84 f   libucrt:wsetlocale.obj
 0001:00010db0       ??R<lambda_2a444430fde8c29194d880d93eed5e8f>@@QEBA@XZ 0000000140011db0 f   libucrt:wsetlocale.obj
 0001:000111d0       _copytlocinfo_nolock       00000001400121d0 f   libucrt:wsetlocale.obj
 0001:00011824       _wsetlocale_get_all        0000000140012824 f   libucrt:wsetlocale.obj
 0001:00011a08       _wsetlocale_nolock         0000000140012a08 f   libucrt:wsetlocale.obj
 0001:00011c9c       _wsetlocale_set_cat        0000000140012c9c f   libucrt:wsetlocale.obj
 0001:00012028       ??$?RV<lambda_7777bce6b2f8c936911f934f8298dc43>@@AEAV<lambda_f03950bc5685219e0bcd2087efbe011e>@@V<lambda_3883c3dff614d5e0c5f61bb1ac94921c>@@@?$__crt_seh_guarded_call@H@@QEAAH$$QEAV<lambda_7777bce6b2f8c936911f934f8298dc43>@@AEAV<lambda_f03950bc5685219e0bcd2087efbe011e>@@$$QEAV<lambda_3883c3dff614d5e0c5f61bb1ac94921c>@@@Z 0000000140013028 f   libucrt:onexit.obj
 0001:00012064       ??$?RV<lambda_8369fcb7c4df1e85de37618bd2b85f07>@@AEAV<lambda_a10e4b102d4a2c3aac6f4f48bbdf488f>@@V<lambda_5b7707bd6d7a0c4713179f36c7fd995d>@@@?$__crt_seh_guarded_call@H@@QEAAH$$QEAV<lambda_8369fcb7c4df1e85de37618bd2b85f07>@@AEAV<lambda_a10e4b102d4a2c3aac6f4f48bbdf488f>@@$$QEAV<lambda_5b7707bd6d7a0c4713179f36c7fd995d>@@@Z 0000000140013064 f   libucrt:onexit.obj
 0001:000120a0       ??R<lambda_a10e4b102d4a2c3aac6f4f48bbdf488f>@@QEBAHXZ 00000001400130a0 f   libucrt:onexit.obj
 0001:00012264       ??R<lambda_f03950bc5685219e0bcd2087efbe011e>@@QEBAHXZ 0000000140013264 f   libucrt:onexit.obj
 0001:00012484       initialize_global_variables 0000000140013484 f   libucrt:initialization.obj
 0001:00012498       initialize_c               0000000140013498 f   libucrt:initialization.obj
 0001:000124bc       uninitialize_environment   00000001400134bc f   libucrt:initialization.obj
 0001:000124cc       initialize_pointers        00000001400134cc f   libucrt:initialization.obj
 0001:00012520       uninitialize_vcruntime     0000000140013520 f   libucrt:initialization.obj
 0001:00012528       uninitialize_allocated_memory 0000000140013528 f   libucrt:initialization.obj
 0001:00012568       uninitialize_allocated_io_buffers 0000000140013568 f   libucrt:initialization.obj
 0001:000130d0       $$000000                   00000001400140d0     libucrt:strncmp.obj
 0001:00013160       ??$?RV<lambda_450d765d439847d4c735a33c368b5fc0>@@AEAV<lambda_44731a7d0e6d81c3e6aa82d741081786>@@V<lambda_601a2a7da3b7a96e9554ac7215c4b07c>@@@?$__crt_seh_guarded_call@P6AXH@Z@@QEAAP6AXH@Z$$QEAV<lambda_450d765d439847d4c735a33c368b5fc0>@@AEAV<lambda_44731a7d0e6d81c3e6aa82d741081786>@@$$QEAV<lambda_601a2a7da3b7a96e9554ac7215c4b07c>@@@Z 0000000140014160 f   libucrt:signal.obj
 0001:00013530       ?<lambda_invoker_cdecl>@<lambda_795c6bd18aed400428efeb9a5f0e1479>@@CAHPEA_W@Z 0000000140014530 f   libucrt:winapi_thunks.obj
 0001:00013558       ??$?RV<lambda_bd00b5aa228bd7e7e5b2b5db5fd2933b>@@AEAV<lambda_777d11615145f89ee95b9466d285deeb>@@V<lambda_6e5e48fbd24f9f8f81b203eb3d877683>@@@?$__crt_seh_guarded_call@H@@QEAAH$$QEAV<lambda_bd00b5aa228bd7e7e5b2b5db5fd2933b>@@AEAV<lambda_777d11615145f89ee95b9466d285deeb>@@$$QEAV<lambda_6e5e48fbd24f9f8f81b203eb3d877683>@@@Z 0000000140014558 f   libucrt:winapi_thunks.obj
 0001:000135f4       ??B<lambda_795c6bd18aed400428efeb9a5f0e1479>@@QEBAP6AHPEA_W@ZXZ 00000001400145f4 f   libucrt:winapi_thunks.obj
 0001:000135fc       ?try_get_function@@YAPEAXW4function_id@?A0x391cf84c@@QEBDQEBW4module_id@2@2@Z 00000001400145fc f   libucrt:winapi_thunks.obj
 0001:00014110       ?initialize_inherited_file_handles_nolock@@YAXXZ 0000000140015110 f   libucrt:ioinit.obj
 0001:000141fc       ?initialize_stdio_handles_nolock@@YAXXZ 00000001400151fc f   libucrt:ioinit.obj
 0001:00014374       ??$?RV<lambda_0ae27a3a962d80f24befdcbee591983d>@@AEAV<lambda_8d0ee55de4b1038c4002e0adecdf1839>@@V<lambda_dc504788e8f1664fe9b84e20bfb512f2>@@@?$__crt_seh_guarded_call@X@@QEAAX$$QEAV<lambda_0ae27a3a962d80f24befdcbee591983d>@@AEAV<lambda_8d0ee55de4b1038c4002e0adecdf1839>@@$$QEAV<lambda_dc504788e8f1664fe9b84e20bfb512f2>@@@Z 0000000140015374 f   libucrt:per_thread_data.obj
 0001:000143b4       ??$?RV<lambda_2d41944a1d46af3157314b8a01080d33>@@AEAV<lambda_8f455de75cd7d7f24b4096f044d8b9e6>@@V<lambda_aa500f224e6afead328df44964fe2772>@@@?$__crt_seh_guarded_call@X@@QEAAX$$QEAV<lambda_2d41944a1d46af3157314b8a01080d33>@@AEAV<lambda_8f455de75cd7d7f24b4096f044d8b9e6>@@$$QEAV<lambda_aa500f224e6afead328df44964fe2772>@@@Z 00000001400153b4 f   libucrt:per_thread_data.obj
 0001:000143f4       ??$?RV<lambda_aa87e3671a710a21b5dc78c0bdf72e11>@@AEAV<lambda_92619d2358a28f41a33ba319515a20b9>@@V<lambda_6992ecaafeb10aed2b74cb1fae11a551>@@@?$__crt_seh_guarded_call@X@@QEAAX$$QEAV<lambda_aa87e3671a710a21b5dc78c0bdf72e11>@@AEAV<lambda_92619d2358a28f41a33ba319515a20b9>@@$$QEAV<lambda_6992ecaafeb10aed2b74cb1fae11a551>@@@Z 00000001400153f4 f   libucrt:per_thread_data.obj
 0001:0001443c       ??$?RV<lambda_f2e299630e499de9f9a165e60fcd3db5>@@AEAV<lambda_2ae9d31cdba2644fcbeaf08da7c24588>@@V<lambda_40d01ff24d0e7b3814fdbdcee8eab3c7>@@@?$__crt_seh_guarded_call@X@@QEAAX$$QEAV<lambda_f2e299630e499de9f9a165e60fcd3db5>@@AEAV<lambda_2ae9d31cdba2644fcbeaf08da7c24588>@@$$QEAV<lambda_40d01ff24d0e7b3814fdbdcee8eab3c7>@@@Z 000000014001543c f   libucrt:per_thread_data.obj
 0001:0001449c       ?construct_ptd_array@@YAXQEAU__acrt_ptd@@@Z 000000014001549c f   libucrt:per_thread_data.obj
 0001:0001456c       ?destroy_fls@@YAXPEAX@Z    000000014001556c f   libucrt:per_thread_data.obj
 0001:0001458c       ?destroy_ptd_array@@YAXQEAU__acrt_ptd@@@Z 000000014001558c f   libucrt:per_thread_data.obj
 0001:00014684       ?replace_current_thread_locale_nolock@@YAXQEAU__acrt_ptd@@QEAU__crt_locale_data@@@Z 0000000140015684 f   libucrt:per_thread_data.obj
 0001:00014d80       ?fp_format_a@@YAHQEBNPEAD_KQEAD2H_NIQEAU__crt_locale_pointers@@@Z 0000000140015d80 f   libucrt:cvt.obj
 0001:000150e8       ?fp_format_e@@YAHQEBNQEAD_K12H_NIQEAU__crt_locale_pointers@@@Z 00000001400160e8 f   libucrt:cvt.obj
 0001:000151c4       ?fp_format_e_internal@@YAHQEAD_KH_NIQEAU_strflt@@2QEAU__crt_locale_pointers@@@Z 00000001400161c4 f   libucrt:cvt.obj
 0001:00015398       ?fp_format_f_internal@@YAHQEAD_KHQEAU_strflt@@_NQEAU__crt_locale_pointers@@@Z 0000000140016398 f   libucrt:cvt.obj
 0001:000154dc       ?fp_format_g@@YAHQEBNQEAD_K12H_NIQEAU__crt_locale_pointers@@@Z 00000001400164dc f   libucrt:cvt.obj
 0001:00015610       ?fp_format_nan_or_infinity@@YAHW4__acrt_fp_class@@_NPEAD_K1@Z 0000000140016610 f   libucrt:cvt.obj
 0001:00015b24       ??$?RV<lambda_751a882b2c74d4b022dec766aa51a29a>@@AEAV<lambda_628dfdc04ba53c8bfc02c9951375f3f5>@@V<lambda_f6c7be5f7998530c34de24c7437d6b54>@@@?$__crt_seh_guarded_call@H@@QEAAH$$QEAV<lambda_751a882b2c74d4b022dec766aa51a29a>@@AEAV<lambda_628dfdc04ba53c8bfc02c9951375f3f5>@@$$QEAV<lambda_f6c7be5f7998530c34de24c7437d6b54>@@@Z 0000000140016b24 f   libucrt:close.obj
 0001:00015d14       ??$?RV<lambda_a37b2b86f63e897a80ea819b0eb08c01>@@AEAV<lambda_38ce7e780aa69e748d6df282ebc68efe>@@V<lambda_99fb1378e971ab6e7edea83e3a7a83a2>@@@?$__crt_seh_guarded_call@H@@QEAAH$$QEAV<lambda_a37b2b86f63e897a80ea819b0eb08c01>@@AEAV<lambda_38ce7e780aa69e748d6df282ebc68efe>@@$$QEAV<lambda_99fb1378e971ab6e7edea83e3a7a83a2>@@@Z 0000000140016d14 f   libucrt:commit.obj
 0001:00015e34       ?write_double_translated_ansi_nolock@@YA?AUwrite_result@?A0x17268360@@HQEBDI@Z 0000000140016e34 f   libucrt:write.obj
 0001:0001604c       ?write_text_ansi_nolock@@YA?AUwrite_result@?A0x17268360@@HQEBDI@Z 000000014001704c f   libucrt:write.obj
 0001:00016150       ?write_text_utf16le_nolock@@YA?AUwrite_result@?A0x17268360@@HQEBDI@Z 0000000140017150 f   libucrt:write.obj
 0001:0001626c       ?write_text_utf8_nolock@@YA?AUwrite_result@?A0x17268360@@HQEBDI@Z 000000014001726c f   libucrt:write.obj
 0001:00016914       ??$common_ftell@_J@@YA_JV__crt_stdio_stream@@@Z 0000000140017914 f   libucrt:ftell.obj
 0001:00016968       ??$common_ftell_nolock@_J@@YA_JV__crt_stdio_stream@@@Z 0000000140017968 f   libucrt:ftell.obj
 0001:00016a98       ?common_ftell_read_mode_nolock@@YA_JV__crt_stdio_stream@@_J1@Z 0000000140017a98 f   libucrt:ftell.obj
 0001:00016be4       ?common_ftell_translated_utf8_nolock@@YA_JV__crt_stdio_stream@@_J@Z 0000000140017be4 f   libucrt:ftell.obj
 0001:00016d60       ?count_newline_bytes@@YA_JQEBD0W4__crt_lowio_text_mode@@@Z 0000000140017d60 f   libucrt:ftell.obj
 0001:00016df4       ??$write_buffer_nolock@D@@YA_NDV__crt_stdio_stream@@@Z 0000000140017df4 f   libucrt:_flsbuf.obj
 0001:00016fbc       ??$common_lseek@_J@@YA_JH_JH@Z 0000000140017fbc f   libucrt:lseek.obj
 0001:000170ac       ??$common_lseek_nolock@_J@@YA_JH_JH@Z 00000001400180ac f   libucrt:lseek.obj
 0001:000171c0       ?_mbstowcs_l_helper@@YA_KPEA_WPEBD_KPEAU__crt_locale_pointers@@@Z 00000001400181c0 f   libucrt:mbstowcs.obj
 0001:0001753c       ?_wcstombs_l_helper@@YA_KPEADPEB_W_KPEAU__crt_locale_pointers@@@Z 000000014001853c f   libucrt:wcstombs.obj
 0001:00017aac       ?InternalGetLocaleInfoA@@YAHQEAU__crt_locale_pointers@@QEB_WKQEADH@Z 0000000140018aac f   libucrt:getlocaleinfoa.obj
 0001:00017f80       ?__acrt_LCMapStringA_stat@@YAHPEAU__crt_locale_pointers@@PEB_WKPEBDHPEADHHH@Z 0000000140018f80 f   libucrt:lcmapstringa.obj
 0001:00019030       ?<lambda_invoker_cdecl>@<lambda_c2303d2482d7c3675ea2e24c4cfb6115>@@CAHPEBX0@Z 000000014001a030 f   libucrt:argv_wildcards.obj
 0001:00019044       ??$common_expand_argv_wildcards@D@@YAHQEAPEADQEAPEAPEAD@Z 000000014001a044 f   libucrt:argv_wildcards.obj
 0001:00019250       ??$copy_and_add_argument_to_buffer@D@@YAHQEBD0_KAEAV?$argument_list@D@?A0x5f5c8891@@@Z 000000014001a250 f   libucrt:argv_wildcards.obj
 0001:000193ec       ??$expand_argument_wildcards@D@@YAHQEAD0AEAV?$argument_list@D@?A0x5f5c8891@@@Z 000000014001a3ec f   libucrt:argv_wildcards.obj
 0001:0001961c       ??$?RV<lambda_efdfa57d1f175319df784efa44bb7b81>@@AEAV<lambda_5f0a4c1567f8adc6734073e5d1e1b35c>@@V<lambda_2e8a7d3640ea6ccb4c2413664c2db6fd>@@@?$__crt_seh_guarded_call@X@@QEAAX$$QEAV<lambda_efdfa57d1f175319df784efa44bb7b81>@@AEAV<lambda_5f0a4c1567f8adc6734073e5d1e1b35c>@@$$QEAV<lambda_2e8a7d3640ea6ccb4c2413664c2db6fd>@@@Z 000000014001a61c f   libucrt:mbctype.obj
 0001:000197d8       ?getSystemCP@@YAHH@Z       000000014001a7d8 f   libucrt:mbctype.obj
 0001:00019858       ?setSBCS@@YAXPEAU__crt_multibyte_data@@@Z 000000014001a858 f   libucrt:mbctype.obj
 0001:000198e8       ?setSBUpLow@@YAXPEAU__crt_multibyte_data@@@Z 000000014001a8e8 f   libucrt:mbctype.obj
 0001:00019acc       ?setmbcp_internal@@YAHH_NQEAU__acrt_ptd@@QEAPEAU__crt_multibyte_data@@@Z 000000014001aacc f   libucrt:mbctype.obj
 0001:00019c90       ?update_thread_multibyte_data_internal@@YAPEAU__crt_multibyte_data@@QEAU__acrt_ptd@@QEAPEAU1@@Z 000000014001ac90 f   libucrt:mbctype.obj
 0001:0001a180       ??$common_set_variable_in_environment_nolock@D@@YAHQEADH@Z 000000014001b180 f   libucrt:setenv.obj
 0001:0001a4a0       ??$copy_environment@D@@YAPEAPEADQEAPEAD@Z 000000014001b4a0 f   libucrt:setenv.obj
 0001:0001b270       ?free_crt_array_internal@@YAXQEAPEBX_K@Z 000000014001c270 f   libucrt:inittime.obj
 0001:0001b2c4       ?initialize_lc_time@@YA_NQEAU__crt_lc_time_data@@QEAU__crt_locale_data@@@Z 000000014001c2c4 f   libucrt:inittime.obj
 0001:0001bc28       GetLocaleNameFromDefault   000000014001cc28 f   libucrt:get_qualified_locale.obj
 0001:0001bcd0       GetLocaleNameFromLangCountry 000000014001ccd0 f   libucrt:get_qualified_locale.obj
 0001:0001bda0       GetLocaleNameFromLanguage  000000014001cda0 f   libucrt:get_qualified_locale.obj
 0001:0001be3c       LangCountryEnumProcEx      000000014001ce3c f   libucrt:get_qualified_locale.obj
 0001:0001c1f8       LanguageEnumProcEx         000000014001d1f8 f   libucrt:get_qualified_locale.obj
 0001:0001c2e4       ProcessCodePage            000000014001d2e4 f   libucrt:get_qualified_locale.obj
 0001:0001c3b0       TestDefaultCountry         000000014001d3b0 f   libucrt:get_qualified_locale.obj
 0001:0001c418       TranslateName              000000014001d418 f   libucrt:get_qualified_locale.obj
 0001:0001c72c       CountryEnumProc            000000014001d72c f   libucrt:getqloc_downlevel.obj
 0001:0001c814       GetLcidFromLangCountry     000000014001d814 f   libucrt:getqloc_downlevel.obj
 0001:0001c8e4       GetLcidFromLanguage        000000014001d8e4 f   libucrt:getqloc_downlevel.obj
 0001:0001c97c       LangCountryEnumProc        000000014001d97c f   libucrt:getqloc_downlevel.obj
 0001:0001cbc4       LanguageEnumProc           000000014001dbc4 f   libucrt:getqloc_downlevel.obj
 0001:0001cccc       LcidFromHexString          000000014001dccc f   libucrt:getqloc_downlevel.obj
 0001:0001cd1c       ProcessCodePage            000000014001dd1c f   libucrt:getqloc_downlevel.obj
 0001:0001cdcc       TestDefaultLanguage        000000014001ddcc f   libucrt:getqloc_downlevel.obj
 0001:0001ce78       TranslateName              000000014001de78 f   libucrt:getqloc_downlevel.obj
 0001:0001d2fc       ?GetTableIndexFromLocaleName@@YAHPEB_W@Z 000000014001e2fc f   libucrt:lcidtoname_downlevel.obj
 0001:0001eb0c       ??$translate_text_mode_nolock@D@@YAHHQEAD_K@Z 000000014001fb0c f   libucrt:read.obj
 0001:0001eccc       ??$translate_text_mode_nolock@_W@@YAHHQEA_W_K@Z 000000014001fccc f   libucrt:read.obj
 0001:0001ef50       ?translate_ansi_or_utf8_nolock@@YAHHQEAD_KQEA_W1@Z 000000014001ff50 f   libucrt:read.obj
 0001:0001fba0       $$000000                   0000000140020ba0     libucrt:fpsr.obj
 0001:0001fc00       _call_matherr              0000000140020c00 f   libucrt:libm_error.obj
 0001:0001fc68       _exception_enabled         0000000140020c68 f   libucrt:libm_error.obj
 0001:00020420       fallbackMethod             0000000140021420 f   libucrt:strpbrk.obj
 0001:000207e4       $LN78                      00000001400217e4     libucrt:strpbrk.obj
 0001:00020820       $LN77                      0000000140021820     libucrt:strpbrk.obj
 0001:00020860       $LN76                      0000000140021860     libucrt:strpbrk.obj
 0001:00020ce8       ?initialize_multibyte@@YAHXZ 0000000140021ce8 f   libucrt:multibyte_initializer.obj
 0001:00020f18       ??$common_xtox@K_W@@YAHKQEA_W_KI_N@Z 0000000140021f18 f   libucrt:xtoa.obj
 0001:00020fdc       ??$common_xtox_s@K_W@@YAHKQEA_W_KI_N@Z 0000000140021fdc f   libucrt:xtoa.obj
 0001:00021620       $$000000                   0000000140022620     libucrt:log10.obj
 0001:00021fb4       ?InternalCompareStringA@@YAHPEAU__crt_locale_pointers@@PEB_WKPEBDH2HH@Z 0000000140022fb4 f   libucrt:comparestringa.obj
 0001:00022420       _log_special_common        0000000140023420 f   libucrt:log_special.obj
 0001:000228d0       $$000000                   00000001400238d0     LIBCMT:_guard_dispatch_.obj
 0001:000228f0       ?dtor$0@?0???$use_facet@V?$codecvt@DDU_Mbstatet@@@std@@@std@@YAAEBV?$codecvt@DDU_Mbstatet@@@0@AEBVlocale@0@@Z@4HA 00000001400238f0 f   libcpmt:cout.obj
 0001:000228fc       ?dtor$1@?0???$use_facet@V?$codecvt@DDU_Mbstatet@@@std@@@std@@YAAEBV?$codecvt@DDU_Mbstatet@@@0@AEBVlocale@0@@Z@4HA 00000001400238fc f   libcpmt:cout.obj
 0001:00022908       ?dtor$0@?0???0?$basic_ostream@DU?$char_traits@D@std@@@std@@QEAA@PEAV?$basic_streambuf@DU?$char_traits@D@std@@@1@_N@Z@4HA 0000000140023908 f   libcpmt:cout.obj
 0001:00022932       ?dtor$0@?0??_Endwrite@?$basic_filebuf@DU?$char_traits@D@std@@@std@@IEAA_NXZ@4HA 0000000140023932 f   libcpmt:cout.obj
 0001:0002293e       ?dtor$0@?0??_Getcat@?$codecvt@DDU_Mbstatet@@@std@@SA_KPEAPEBVfacet@locale@2@PEBV42@@Z@4HA 000000014002393e f   libcpmt:cout.obj
 0001:0002295e       ?dtor$0@?0??overflow@?$basic_filebuf@DU?$char_traits@D@std@@@std@@MEAAHH@Z@4HA 000000014002395e f   libcpmt:cout.obj
 0001:0002295e       ?dtor$0@?0??uflow@?$basic_filebuf@DU?$char_traits@D@std@@@std@@MEAAHXZ@4HA 000000014002395e f   libcpmt:cout.obj
 0001:0002296a       ?dtor$0@?0??_Locimp_dtor@_Locimp@locale@std@@CAXPEAV123@@Z@4HA 000000014002396a f   libcpmt:locale0.obj
 0001:0002296a       ?dtor$0@?0??_Init@locale@std@@CAPEAV_Locimp@12@_N@Z@4HA 000000014002396a f   libcpmt:locale0.obj
 0001:00022976       ?dtor$0@?0???0?$basic_istream@DU?$char_traits@D@std@@@std@@QEAA@PEAV?$basic_streambuf@DU?$char_traits@D@std@@@1@_N@Z@4HA 0000000140023976 f   libcpmt:cin.obj
 0001:000229a0       ?filt$0@?0??__scrt_common_main_seh@@YAHXZ@4HA 00000001400239a0 f   LIBCMT:exe_main.obj
 0001:000229be       __scrt_is_nonwritable_in_current_image$filt$0 00000001400239be f   LIBCMT:utility.obj
 0001:000229d6       _CallSETranslator$filt$0   00000001400239d6 f   libvcruntime:risctrnsctrl.obj
 0001:00022a67       __DestructExceptionObject$filt$0 0000000140023a67 f   libvcruntime:ehhelpers.obj
 0001:00022a7f       __CxxCallCatchBlock$filt$0 0000000140023a7f f   libvcruntime:frame.obj
 0001:00022aa4       __CxxCallCatchBlock$fin$1  0000000140023aa4 f   libvcruntime:frame.obj
 0001:00022b1c       __FrameUnwindToState$filt$0 0000000140023b1c f   libvcruntime:frame.obj
 0001:00022b32       __FrameUnwindToState$fin$1 0000000140023b32 f   libvcruntime:frame.obj
 0001:00022b55       ?fin$0@?0???$?RV<lambda_842d9ff0dc9ef11c61343bbaebe7f885>@@AEAV<lambda_c5860995281e5c4ce005b3de8f5874ee>@@V<lambda_d90129c13df834fdcbf8d2b88dafcf2d>@@@?$__crt_seh_guarded_call@X@@QEAAX$$QEAV<lambda_842d9ff0dc9ef11c61343bbaebe7f885>@@AEAV<lambda_c5860995281e5c4ce005b3de8f5874ee>@@$$QEAV<lambda_d90129c13df834fdcbf8d2b88dafcf2d>@@@Z@4HA 0000000140023b55 f   libucrt:fflush.obj
 0001:00022b55       ?fin$0@?0???$?RV<lambda_c376a267cfb53b6959b3b692ec76b120>@@AEAV<lambda_9a32fed5bf61b6b509b2d3f6003082a1>@@V<lambda_572fbb9fa0ab338edf41edfd4b5fcc8d>@@@?$__crt_seh_guarded_call@H@@QEAAH$$QEAV<lambda_c376a267cfb53b6959b3b692ec76b120>@@AEAV<lambda_9a32fed5bf61b6b509b2d3f6003082a1>@@$$QEAV<lambda_572fbb9fa0ab338edf41edfd4b5fcc8d>@@@Z@4HA 0000000140023b55 f   libucrt:fflush.obj
 0001:00022b55       ?fin$0@?0???$?RV<lambda_84ec643ea9557e2f7dc01bb0e9624395>@@AEAV<lambda_ca71763b3c0644891230e4f79ea54fa6>@@V<lambda_439a761618c59b0600e24586724d733b>@@@?$__crt_seh_guarded_call@H@@QEAAH$$QEAV<lambda_84ec643ea9557e2f7dc01bb0e9624395>@@AEAV<lambda_ca71763b3c0644891230e4f79ea54fa6>@@$$QEAV<lambda_439a761618c59b0600e24586724d733b>@@@Z@4HA 0000000140023b55 f   libucrt:setvbuf.obj
 0001:00022b55       ?fin$0@?0???$?RV<lambda_bdbcead8b570fa3d5ec6d9679862a6e5>@@AEAV<lambda_96f4279ff90247a4c5c5d9824f56f8c1>@@V<lambda_4606be27f17b5e5579e09050fab91818>@@@?$__crt_seh_guarded_call@_K@@QEAA_K$$QEAV<lambda_bdbcead8b570fa3d5ec6d9679862a6e5>@@AEAV<lambda_96f4279ff90247a4c5c5d9824f56f8c1>@@$$QEAV<lambda_4606be27f17b5e5579e09050fab91818>@@@Z@4HA 0000000140023b55 f   libucrt:fwrite.obj
 0001:00022b55       ?fin$0@?0???$?RV<lambda_a62c933ada0517137acf5807a1eeac1f>@@AEAV<lambda_a31071773b9a94e445cbd5d04ef99106>@@V<lambda_56065050dbf3ada7e59a83db45153de3>@@@?$__crt_seh_guarded_call@H@@QEAAH$$QEAV<lambda_a62c933ada0517137acf5807a1eeac1f>@@AEAV<lambda_a31071773b9a94e445cbd5d04ef99106>@@$$QEAV<lambda_56065050dbf3ada7e59a83db45153de3>@@@Z@4HA 0000000140023b55 f   libucrt:output.obj
 0001:00022b70       ?fin$0@?0??common_fseek@@YAHV__crt_stdio_stream@@_JH@Z@4HA 0000000140023b70 f   libucrt:fseek.obj
 0001:00022b70       ?fin$0@?0???$common_ftell@_J@@YA_JV__crt_stdio_stream@@@Z@4HA 0000000140023b70 f   libucrt:ftell.obj
 0001:00022b70       fclose$fin$0               0000000140023b70 f   libucrt:fclose.obj
 0001:00022b88       ?fin$0@?0???$?RV<lambda_886d6c58226a84441f68b9f2b8217b83>@@AEAV<lambda_ab61a845afdef5b7c387490eaf3616ee>@@V<lambda_f7f22ab5edc0698d5f6905b0d3f44752>@@@?$__crt_seh_guarded_call@X@@QEAAX$$QEAV<lambda_886d6c58226a84441f68b9f2b8217b83>@@AEAV<lambda_ab61a845afdef5b7c387490eaf3616ee>@@$$QEAV<lambda_f7f22ab5edc0698d5f6905b0d3f44752>@@@Z@4HA 0000000140023b88 f   libucrt:fflush.obj
 0001:00022ba5       fgetc$fin$0                0000000140023ba5 f   libucrt:fgetc.obj
 0001:00022bbf       fputc$fin$0                0000000140023bbf f   libucrt:fputc.obj
 0001:00022bd9       ungetc$fin$0               0000000140023bd9 f   libucrt:ungetc.obj
 0001:00022bf1       ?fin$0@?0???$?RV<lambda_1d892b297fdedeee07ed8124eeb2f2fa>@@AEAV<lambda_ffc046909424fd52df0ac47e64813305>@@V<lambda_01a7098693036236037e7cdb9bca3d73>@@@?$__crt_seh_guarded_call@X@@QEAAX$$QEAV<lambda_1d892b297fdedeee07ed8124eeb2f2fa>@@AEAV<lambda_ffc046909424fd52df0ac47e64813305>@@$$QEAV<lambda_01a7098693036236037e7cdb9bca3d73>@@@Z@4HA 0000000140023bf1 f   libucrt:wsetlocale.obj
 0001:00022bf1       ?fin$0@?0???$?RV<lambda_bd00b5aa228bd7e7e5b2b5db5fd2933b>@@AEAV<lambda_777d11615145f89ee95b9466d285deeb>@@V<lambda_6e5e48fbd24f9f8f81b203eb3d877683>@@@?$__crt_seh_guarded_call@H@@QEAAH$$QEAV<lambda_bd00b5aa228bd7e7e5b2b5db5fd2933b>@@AEAV<lambda_777d11615145f89ee95b9466d285deeb>@@$$QEAV<lambda_6e5e48fbd24f9f8f81b203eb3d877683>@@@Z@4HA 0000000140023bf1 f   libucrt:winapi_thunks.obj
 0001:00022bf1       ?fin$0@?0???$?RV<lambda_450d765d439847d4c735a33c368b5fc0>@@AEAV<lambda_44731a7d0e6d81c3e6aa82d741081786>@@V<lambda_601a2a7da3b7a96e9554ac7215c4b07c>@@@?$__crt_seh_guarded_call@P6AXH@Z@@QEAAP6AXH@Z$$QEAV<lambda_450d765d439847d4c735a33c368b5fc0>@@AEAV<lambda_44731a7d0e6d81c3e6aa82d741081786>@@$$QEAV<lambda_601a2a7da3b7a96e9554ac7215c4b07c>@@@Z@4HA 0000000140023bf1 f   libucrt:signal.obj
 0001:00022bf1       ?fin$0@?0???$?RV<lambda_7777bce6b2f8c936911f934f8298dc43>@@AEAV<lambda_f03950bc5685219e0bcd2087efbe011e>@@V<lambda_3883c3dff614d5e0c5f61bb1ac94921c>@@@?$__crt_seh_guarded_call@H@@QEAAH$$QEAV<lambda_7777bce6b2f8c936911f934f8298dc43>@@AEAV<lambda_f03950bc5685219e0bcd2087efbe011e>@@$$QEAV<lambda_3883c3dff614d5e0c5f61bb1ac94921c>@@@Z@4HA 0000000140023bf1 f   libucrt:onexit.obj
 0001:00022bf1       ?fin$0@?0???$?RV<lambda_efdfa57d1f175319df784efa44bb7b81>@@AEAV<lambda_5f0a4c1567f8adc6734073e5d1e1b35c>@@V<lambda_2e8a7d3640ea6ccb4c2413664c2db6fd>@@@?$__crt_seh_guarded_call@X@@QEAAX$$QEAV<lambda_efdfa57d1f175319df784efa44bb7b81>@@AEAV<lambda_5f0a4c1567f8adc6734073e5d1e1b35c>@@$$QEAV<lambda_2e8a7d3640ea6ccb4c2413664c2db6fd>@@@Z@4HA 0000000140023bf1 f   libucrt:mbctype.obj
 0001:00022bf1       ?fin$0@?0???$?RV<lambda_d80eeec6fff315bfe5c115232f3240e3>@@AEAV<lambda_6e4b09c48022b2350581041d5f6b0c4c>@@V<lambda_2358e3775559c9db80273638284d5e45>@@@?$__crt_seh_guarded_call@X@@QEAAX$$QEAV<lambda_d80eeec6fff315bfe5c115232f3240e3>@@AEAV<lambda_6e4b09c48022b2350581041d5f6b0c4c>@@$$QEAV<lambda_2358e3775559c9db80273638284d5e45>@@@Z@4HA 0000000140023bf1 f   libucrt:exit.obj
 0001:00022bf1       ?fin$0@?0???$?RV<lambda_f2e299630e499de9f9a165e60fcd3db5>@@AEAV<lambda_2ae9d31cdba2644fcbeaf08da7c24588>@@V<lambda_40d01ff24d0e7b3814fdbdcee8eab3c7>@@@?$__crt_seh_guarded_call@X@@QEAAX$$QEAV<lambda_f2e299630e499de9f9a165e60fcd3db5>@@AEAV<lambda_2ae9d31cdba2644fcbeaf08da7c24588>@@$$QEAV<lambda_40d01ff24d0e7b3814fdbdcee8eab3c7>@@@Z@4HA 0000000140023bf1 f   libucrt:per_thread_data.obj
 0001:00022bf1       ?fin$0@?0???$?RV<lambda_9bd929c17696992ce54f1d748594fc62>@@AEAV<lambda_082c17da81b0962e08c0587ee0fac50c>@@V<lambda_9c08ac857f4975304d44e9f601d9b878>@@@?$__crt_seh_guarded_call@PEAD@@QEAAPEAD$$QEAV<lambda_9bd929c17696992ce54f1d748594fc62>@@AEAV<lambda_082c17da81b0962e08c0587ee0fac50c>@@$$QEAV<lambda_9c08ac857f4975304d44e9f601d9b878>@@@Z@4HA 0000000140023bf1 f   libucrt:setlocale.obj
 0001:00022bf1       ?fin$0@?0???$?RV<lambda_0ae27a3a962d80f24befdcbee591983d>@@AEAV<lambda_8d0ee55de4b1038c4002e0adecdf1839>@@V<lambda_dc504788e8f1664fe9b84e20bfb512f2>@@@?$__crt_seh_guarded_call@X@@QEAAX$$QEAV<lambda_0ae27a3a962d80f24befdcbee591983d>@@AEAV<lambda_8d0ee55de4b1038c4002e0adecdf1839>@@$$QEAV<lambda_dc504788e8f1664fe9b84e20bfb512f2>@@@Z@4HA 0000000140023bf1 f   libucrt:per_thread_data.obj
 0001:00022bf1       ?fin$0@?0???$?RV<lambda_8369fcb7c4df1e85de37618bd2b85f07>@@AEAV<lambda_a10e4b102d4a2c3aac6f4f48bbdf488f>@@V<lambda_5b7707bd6d7a0c4713179f36c7fd995d>@@@?$__crt_seh_guarded_call@H@@QEAAH$$QEAV<lambda_8369fcb7c4df1e85de37618bd2b85f07>@@AEAV<lambda_a10e4b102d4a2c3aac6f4f48bbdf488f>@@$$QEAV<lambda_5b7707bd6d7a0c4713179f36c7fd995d>@@@Z@4HA 0000000140023bf1 f   libucrt:onexit.obj
 0001:00022bf1       ?fin$0@?0???$?RV<lambda_aa87e3671a710a21b5dc78c0bdf72e11>@@AEAV<lambda_92619d2358a28f41a33ba319515a20b9>@@V<lambda_6992ecaafeb10aed2b74cb1fae11a551>@@@?$__crt_seh_guarded_call@X@@QEAAX$$QEAV<lambda_aa87e3671a710a21b5dc78c0bdf72e11>@@AEAV<lambda_92619d2358a28f41a33ba319515a20b9>@@$$QEAV<lambda_6992ecaafeb10aed2b74cb1fae11a551>@@@Z@4HA 0000000140023bf1 f   libucrt:per_thread_data.obj
 0001:00022bf1       ?fin$0@?0???$?RV<lambda_2d41944a1d46af3157314b8a01080d33>@@AEAV<lambda_8f455de75cd7d7f24b4096f044d8b9e6>@@V<lambda_aa500f224e6afead328df44964fe2772>@@@?$__crt_seh_guarded_call@X@@QEAAX$$QEAV<lambda_2d41944a1d46af3157314b8a01080d33>@@AEAV<lambda_8f455de75cd7d7f24b4096f044d8b9e6>@@$$QEAV<lambda_aa500f224e6afead328df44964fe2772>@@@Z@4HA 0000000140023bf1 f   libucrt:per_thread_data.obj
 0001:00022c0b       _query_new_handler$fin$0   0000000140023c0b f   libucrt:new_handler.obj
 0001:00022c21       ?filt$0@?0???R<lambda_6e4b09c48022b2350581041d5f6b0c4c>@@QEBA@XZ@4HA 0000000140023c21 f   libucrt:exit.obj
 0001:00022c3c       ?fin$0@?0???$?RV<lambda_410d79af7f07d98d83a3f525b3859a53>@@AEAV<lambda_3e16ef9562a7dcce91392c22ab16ea36>@@V<lambda_38119f0e861e05405d8a144b9b982f0a>@@@?$__crt_seh_guarded_call@X@@QEAAX$$QEAV<lambda_410d79af7f07d98d83a3f525b3859a53>@@AEAV<lambda_3e16ef9562a7dcce91392c22ab16ea36>@@$$QEAV<lambda_38119f0e861e05405d8a144b9b982f0a>@@@Z@4HA 0000000140023c3c f   libucrt:wsetlocale.obj
 0001:00022c56       ?fin$0@?0???$?RV<lambda_7f2adfce497ff2baa965cd4f576ecfd1>@@AEAV<lambda_2a444430fde8c29194d880d93eed5e8f>@@AEAV<lambda_8dff2cf36a5417162780cd64fa2883ef>@@@?$__crt_seh_guarded_call@X@@QEAAX$$QEAV<lambda_7f2adfce497ff2baa965cd4f576ecfd1>@@AEAV<lambda_2a444430fde8c29194d880d93eed5e8f>@@AEAV<lambda_8dff2cf36a5417162780cd64fa2883ef>@@@Z@4HA 0000000140023c56 f   libucrt:wsetlocale.obj
 0001:00022c77       raise$fin$0                0000000140023c77 f   libucrt:signal.obj
 0001:00022c98       _fcloseall$fin$0           0000000140023c98 f   libucrt:closeall.obj
 0001:00022cb1       __acrt_initialize_lowio$fin$0 0000000140023cb1 f   libucrt:ioinit.obj
 0001:00022cb1       __acrt_lowio_ensure_fh_exists$fin$0 0000000140023cb1 f   libucrt:osfinfo.obj
 0001:00022cca       ?fin$0@?0???$?RV<lambda_751a882b2c74d4b022dec766aa51a29a>@@AEAV<lambda_628dfdc04ba53c8bfc02c9951375f3f5>@@V<lambda_f6c7be5f7998530c34de24c7437d6b54>@@@?$__crt_seh_guarded_call@H@@QEAAH$$QEAV<lambda_751a882b2c74d4b022dec766aa51a29a>@@AEAV<lambda_628dfdc04ba53c8bfc02c9951375f3f5>@@$$QEAV<lambda_f6c7be5f7998530c34de24c7437d6b54>@@@Z@4HA 0000000140023cca f   libucrt:close.obj
 0001:00022cca       ?fin$0@?0???$?RV<lambda_a37b2b86f63e897a80ea819b0eb08c01>@@AEAV<lambda_38ce7e780aa69e748d6df282ebc68efe>@@V<lambda_99fb1378e971ab6e7edea83e3a7a83a2>@@@?$__crt_seh_guarded_call@H@@QEAAH$$QEAV<lambda_a37b2b86f63e897a80ea819b0eb08c01>@@AEAV<lambda_38ce7e780aa69e748d6df282ebc68efe>@@$$QEAV<lambda_99fb1378e971ab6e7edea83e3a7a83a2>@@@Z@4HA 0000000140023cca f   libucrt:commit.obj
 0001:00022ce4       _write$fin$0               0000000140023ce4 f   libucrt:write.obj
 0001:00022ce4       ?fin$0@?0???$common_lseek@_J@@YA_JH_JH@Z@4HA 0000000140023ce4 f   libucrt:lseek.obj
 0001:00022cfb       ?dtor$0@?0??_wcstombs_l_helper@@YA_KPEADPEB_W_KPEAU__crt_locale_pointers@@@Z@4HA 0000000140023cfb f   libucrt:wcstombs.obj
 0001:00022d07       _ctrlfp$filt$0             0000000140023d07 f   libucrt:fpctrl.obj
 0001:00022d33       ?fin$0@?0??update_thread_multibyte_data_internal@@YAPEAU__crt_multibyte_data@@QEAU__acrt_ptd@@QEAPEAU1@@Z@4HA 0000000140023d33 f   libucrt:mbctype.obj
 0001:00022d4c       __acrt_update_thread_locale_data$fin$0 0000000140023d4c f   libucrt:locale_refcounting.obj
 0001:00022d65       _read$fin$0                0000000140023d65 f   libucrt:read.obj
 0001:00022d80       _IsNonwritableInCurrentImage$filt$0 0000000140023d80 f   LIBCMT:pesect.obj
 0001:00022da0       ??__Finitlocks@std@@YAXXZ  0000000140023da0 f   libcpmt:xlock.obj
 0001:00022dac       ??__Fcout@std@@YAXXZ       0000000140023dac f   libcpmt:cout.obj
 0001:00022e0c       ??__Ffout@std@@YAXXZ       0000000140023e0c f   libcpmt:cout.obj
 0001:00022e18       ??__Finitlocks@@YAXXZ      0000000140023e18 f   libcpmt:cout.obj
 0001:00022e24       ??__F_Fac_tidy_reg@std@@YAXXZ 0000000140023e24 f   libcpmt:locale0.obj
 0001:00022e30       ??__Fclassic_locale@std@@YAXXZ 0000000140023e30 f   libcpmt:locale0.obj
 0001:00022e78       ??__Fcin@std@@YAXXZ        0000000140023e78 f   libcpmt:cin.obj
 0001:00022ed8       ??__Ffin@std@@YAXXZ        0000000140023ed8 f   libcpmt:cin.obj
 0001:00022ee4       ??__Finitlocks@@YAXXZ      0000000140023ee4 f   libcpmt:cin.obj
 0001:00022ef0       ??__Finit_atexit@@YAXXZ    0000000140023ef0 f   libcpmt:iosptrs.obj
 0001:00022f38       ??__Finitlocks@std@@YAXXZ  0000000140023f38 f   libcpmt:iosptrs.obj
 0002:000002b8       ?pre_cpp_initializer@@3P6AXXZEA 00000001400242b8     LIBCMT:exe_main.obj
 0002:000002c0       ?initlocks$initializer$@std@@3P6AXXZEA 00000001400242c0     libcpmt:xlock.obj
 0002:000002c8       ?initlocks$initializer$@@3P6AXXZEA 00000001400242c8     libcpmt:cout.obj
 0002:000002d0       ?fout$initializer$@std@@3P6AXXZEA 00000001400242d0     libcpmt:cout.obj
 0002:000002d8       ?cout$initializer$@std@@3P6AXXZEA 00000001400242d8     libcpmt:cout.obj
 0002:000002e0       ?init_cout$initializer$@std@@3P6AXXZEA 00000001400242e0     libcpmt:cout.obj
 0002:000002e8       ?initlocks$initializer$@@3P6AXXZEA 00000001400242e8     libcpmt:cin.obj
 0002:000002f0       ?fin$initializer$@std@@3P6AXXZEA 00000001400242f0     libcpmt:cin.obj
 0002:000002f8       ?cin$initializer$@std@@3P6AXXZEA 00000001400242f8     libcpmt:cin.obj
 0002:00000300       ?init_cin$initializer$@std@@3P6AXXZEA 0000000140024300     libcpmt:cin.obj
 0002:00000308       ?initlocks$initializer$@std@@3P6AXXZEA 0000000140024308     libcpmt:iosptrs.obj
 0002:00000310       ?init_atexit$initializer$@@3P6AXXZEA 0000000140024310     libcpmt:iosptrs.obj
 0002:00000318       ?_Fac_tidy_reg$initializer$@std@@3P6AXXZEA 0000000140024318     libcpmt:locale0.obj
 0002:00000320       ?classic_locale$initializer$@std@@3P6AXXZEA 0000000140024320     libcpmt:locale0.obj
 0002:00000338       ?pre_c_initializer@@3P6AHXZEA 0000000140024338     LIBCMT:exe_main.obj
 0002:00000340       ?post_pgo_initializer@@3P6AHXZEA 0000000140024340     LIBCMT:exe_main.obj
 0002:00000348       ?pinit@@3P6AHXZEA          0000000140024348     libcpmt:winapisupp.obj
 0002:00000420       $cppxdata$?_Init@ios_base@std@@IEAAXXZ 0000000140024420     libcpmt:cout.obj
 0002:00000448       $cppxdata$??_Gios_base@std@@UEAAPEAXI@Z 0000000140024448     libcpmt:cout.obj
 0002:00000470       $cppxdata$??0?$basic_streambuf@DU?$char_traits@D@std@@@std@@IEAA@XZ 0000000140024470     libcpmt:cout.obj
 0002:00000498       $cppxdata$??1?$basic_streambuf@DU?$char_traits@D@std@@@std@@UEAA@XZ 0000000140024498     libcpmt:cout.obj
 0002:000004c0       $cppxdata$??1?$basic_filebuf@DU?$char_traits@D@std@@@std@@UEAA@XZ 00000001400244c0     libcpmt:cout.obj
 0002:000004e8       $cppxdata$?overflow@?$basic_filebuf@DU?$char_traits@D@std@@@std@@MEAAHH@Z 00000001400244e8     libcpmt:cout.obj
 0002:00000510       $cppxdata$?uflow@?$basic_filebuf@DU?$char_traits@D@std@@@std@@MEAAHXZ 0000000140024510     libcpmt:cout.obj
 0002:00000538       $cppxdata$?_Endwrite@?$basic_filebuf@DU?$char_traits@D@std@@@std@@IEAA_NXZ 0000000140024538     libcpmt:cout.obj
 0002:00000560       $cppxdata$??1?$basic_ios@DU?$char_traits@D@std@@@std@@UEAA@XZ 0000000140024560     libcpmt:cout.obj
 0002:00000588       $cppxdata$??_G?$basic_ios@DU?$char_traits@D@std@@@std@@UEAAPEAXI@Z 0000000140024588     libcpmt:cout.obj
 0002:000005b0       $cppxdata$??0?$basic_ostream@DU?$char_traits@D@std@@@std@@QEAA@PEAV?$basic_streambuf@DU?$char_traits@D@std@@@1@_N@Z 00000001400245b0     libcpmt:cout.obj
 0002:000005d8       $cppxdata$??_G?$basic_ostream@DU?$char_traits@D@std@@@std@@UEAAPEAXI@Z 00000001400245d8     libcpmt:cout.obj
 0002:00000600       $cppxdata$??__Fcout@std@@YAXXZ 0000000140024600     libcpmt:cout.obj
 0002:00000628       $cppxdata$??$use_facet@V?$codecvt@DDU_Mbstatet@@@std@@@std@@YAAEBV?$codecvt@DDU_Mbstatet@@@0@AEBVlocale@0@@Z 0000000140024628     libcpmt:cout.obj
 0002:00000650       $cppxdata$?_Getcat@?$codecvt@DDU_Mbstatet@@@std@@SA_KPEAPEBVfacet@locale@2@PEBV42@@Z 0000000140024650     libcpmt:cout.obj
 0002:00000900       $cppxdata$??1_Fac_tidy_reg_t@std@@QEAA@XZ 0000000140024900     libcpmt:locale0.obj
 0002:00000928       $cppxdata$?_Locimp_dtor@_Locimp@locale@std@@CAXPEAV123@@Z 0000000140024928     libcpmt:locale0.obj
 0002:00000950       $cppxdata$??_G_Locimp@locale@std@@MEAAPEAXI@Z 0000000140024950     libcpmt:locale0.obj
 0002:00000978       $cppxdata$?_Init@locale@std@@CAPEAV_Locimp@12@_N@Z 0000000140024978     libcpmt:locale0.obj
 0002:000009a0       $cppxdata$??__Fclassic_locale@std@@YAXXZ 00000001400249a0     libcpmt:locale0.obj
 0002:000009f0       $cppxdata$??0?$basic_istream@DU?$char_traits@D@std@@@std@@QEAA@PEAV?$basic_streambuf@DU?$char_traits@D@std@@@1@_N@Z 00000001400249f0     libcpmt:cin.obj
 0002:00000a18       $cppxdata$??_G?$basic_istream@DU?$char_traits@D@std@@@std@@UEAAPEAXI@Z 0000000140024a18     libcpmt:cin.obj
 0002:00000a40       $cppxdata$??__Fcin@std@@YAXXZ 0000000140024a40     libcpmt:cin.obj
 0002:00000ae0       ?_Sys_errtab@std@@3QBU_Sys_errtab_t@1@B 0000000140024ae0     libcpmt:syserror.obj
 0002:00000fc0       ?_Win_errtab@std@@3QBU_Win_errtab_t@1@B 0000000140024fc0     libcpmt:syserror.obj
 0002:00001cd8       $cppxdata$?_Ios_base_dtor@ios_base@std@@CAXPEAV12@@Z 0000000140025cd8     libcpmt:ios.obj
 0002:00001d00       $cppxdata$??__Finit_atexit@@YAXXZ 0000000140025d00     libcpmt:iosptrs.obj
 0002:00001d30       digits                     0000000140025d30     libcpmt:xstoul.obj
 0002:00001d58       ndigs                      0000000140025d58     libcpmt:xstoul.obj
 0002:00001d80       digits                     0000000140025d80     libcpmt:xstoull.obj
 0002:00001da8       ndigs                      0000000140025da8     libcpmt:xstoull.obj
 0002:00001dd0       ?LcidToLocaleNameTable@@3QBULcidToLocaleName@@B 0000000140025dd0     libcpmt:winapinls.obj
 0002:00002c10       ?LocaleNameToIndexTable@@3QBULocaleNameIndex@@B 0000000140026c10     libcpmt:winapinls.obj
 0002:00005120       GS_ExceptionPointers       0000000140029120     LIBCMT:gs_report.obj
 0002:00005160       ?ExceptionTemplate@?1??_CxxThrowException@@9@4UEHExceptionRecord@@B 0000000140029160     libvcruntime:throw.obj
 0002:000051a0       ?ExceptionTemplate@?1??_UnwindNestedFrames@@9@4U_EXCEPTION_RECORD@@B 00000001400291a0     libvcruntime:risctrnsctrl.obj
 0002:00005268       ?module_names@?A0x89697e75@@3QBQEB_WB 0000000140029268     libvcruntime:winapi_downlevel.obj
 0002:00005338       ?candidate_modules@?1??try_get_FlsAlloc@@YAP6AKP6AXPEAX@Z@ZXZ@4QBW4module_id@?A0x89697e75@@B 0000000140029338     libvcruntime:winapi_downlevel.obj
 0002:00005340       ?candidate_modules@?1??try_get_FlsFree@@YAP6AHK@ZXZ@4QBW4module_id@?A0x89697e75@@B 0000000140029340     libvcruntime:winapi_downlevel.obj
 0002:00005348       ?candidate_modules@?1??try_get_FlsGetValue@@YAP6APEAXK@ZXZ@4QBW4module_id@?A0x89697e75@@B 0000000140029348     libvcruntime:winapi_downlevel.obj
 0002:00005350       ?candidate_modules@?1??try_get_FlsSetValue@@YAP6AHKPEAX@ZXZ@4QBW4module_id@?A0x89697e75@@B 0000000140029350     libvcruntime:winapi_downlevel.obj
 0002:00005358       ?candidate_modules@?1??try_get_InitializeCriticalSectionEx@@YAP6AHPEAU_RTL_CRITICAL_SECTION@@KK@ZXZ@4QBW4module_id@?A0x89697e75@@B 0000000140029358     libvcruntime:winapi_downlevel.obj
 0002:00005360       ?tokenTable@@3QBQEBDB      0000000140029360     libvcruntime:undname.obj
 0002:000053d8       ?rttiTable@@3QBQEBDB       00000001400293d8     libvcruntime:undname.obj
 0002:00005400       ?nameTable@@3QBQEBDB       0000000140029400     libvcruntime:undname.obj
 0002:00005d80       ?errtable@@3QBUerrentry@?A0x31fdb9ec@@B 0000000140029d80     libucrt:errno.obj
 0002:000070d0       __flag_x_one_y_snan        000000014002b0d0     libucrt:pow.obj
 0002:000070d4       __flag_x_zero_z_inf        000000014002b0d4     libucrt:pow.obj
 0002:000070d8       __flag_x_nan               000000014002b0d8     libucrt:pow.obj
 0002:000070dc       __flag_y_nan               000000014002b0dc     libucrt:pow.obj
 0002:000070e0       __flag_x_nan_y_nan         000000014002b0e0     libucrt:pow.obj
 0002:000070e4       __flag_x_neg_y_notint      000000014002b0e4     libucrt:pow.obj
 0002:000070e8       __flag_z_zero              000000014002b0e8     libucrt:pow.obj
 0002:000070ec       __flag_z_denormal          000000014002b0ec     libucrt:pow.obj
 0002:000070f0       __flag_z_inf               000000014002b0f0     libucrt:pow.obj
 0002:00007100       __ay_max_bound             000000014002b100     libucrt:pow.obj
 0002:00007108       __ay_min_bound             000000014002b108     libucrt:pow.obj
 0002:00007110       __sign_mask                000000014002b110     libucrt:pow.obj
 0002:00007118       __sign_and_exp_mask        000000014002b118     libucrt:pow.obj
 0002:00007120       __exp_mask                 000000014002b120     libucrt:pow.obj
 0002:00007128       __neg_inf                  000000014002b128     libucrt:pow.obj
 0002:00007130       __pos_inf                  000000014002b130     libucrt:pow.obj
 0002:00007138       __pos_one                  000000014002b138     libucrt:pow.obj
 0002:00007140       __pos_zero                 000000014002b140     libucrt:pow.obj
 0002:00007148       __exp_mant_mask            000000014002b148     libucrt:pow.obj
 0002:00007150       __mant_mask                000000014002b150     libucrt:pow.obj
 0002:00007158       __ind_pattern              000000014002b158     libucrt:pow.obj
 0002:00007160       __neg_qnan                 000000014002b160     libucrt:pow.obj
 0002:00007168       __qnan                     000000014002b168     libucrt:pow.obj
 0002:00007170       __qnan_set                 000000014002b170     libucrt:pow.obj
 0002:00007178       __neg_one                  000000014002b178     libucrt:pow.obj
 0002:00007180       __neg_zero                 000000014002b180     libucrt:pow.obj
 0002:00007188       __exp_shift                000000014002b188     libucrt:pow.obj
 0002:00007190       __exp_bias                 000000014002b190     libucrt:pow.obj
 0002:00007198       __exp_bias_m1              000000014002b198     libucrt:pow.obj
 0002:000071a0       __yexp_53                  000000014002b1a0     libucrt:pow.obj
 0002:000071a8       __mant_full                000000014002b1a8     libucrt:pow.obj
 0002:000071b0       __1_before_mant            000000014002b1b0     libucrt:pow.obj
 0002:000071b8       __mask_mant_all8           000000014002b1b8     libucrt:pow.obj
 0002:000071c0       __mask_mant9               000000014002b1c0     libucrt:pow.obj
 0002:000071d0       __real_fffffffff8000000    000000014002b1d0     libucrt:pow.obj
 0002:000071e0       __mask_8000000000000000    000000014002b1e0     libucrt:pow.obj
 0002:000071f0       __real_4090040000000000    000000014002b1f0     libucrt:pow.obj
 0002:00007200       __real_C090C80000000000    000000014002b200     libucrt:pow.obj
 0002:00007210       __real_ninf                000000014002b210     libucrt:pow.obj
 0002:00007220       __real_inf                 000000014002b220     libucrt:pow.obj
 0002:00007230       __real_nan                 000000014002b230     libucrt:pow.obj
 0002:00007240       __real_mant                000000014002b240     libucrt:pow.obj
 0002:00007250       __mask_1023                000000014002b250     libucrt:pow.obj
 0002:00007260       __mask_001                 000000014002b260     libucrt:pow.obj
 0002:00007270       __real_log2_lead           000000014002b270     libucrt:pow.obj
 0002:00007280       __real_log2_tail           000000014002b280     libucrt:pow.obj
 0002:00007290       __real_two                 000000014002b290     libucrt:pow.obj
 0002:000072a0       __real_one                 000000014002b2a0     libucrt:pow.obj
 0002:000072b0       __real_half                000000014002b2b0     libucrt:pow.obj
 0002:000072c0       __mask_100                 000000014002b2c0     libucrt:pow.obj
 0002:000072d0       __real_1_over_2            000000014002b2d0     libucrt:pow.obj
 0002:000072e0       __real_1_over_3            000000014002b2e0     libucrt:pow.obj
 0002:000072f0       __real_1_over_4            000000014002b2f0     libucrt:pow.obj
 0002:00007300       __real_1_over_5            000000014002b300     libucrt:pow.obj
 0002:00007310       __real_1_over_6            000000014002b310     libucrt:pow.obj
 0002:00007320       __real_1_over_7            000000014002b320     libucrt:pow.obj
 0002:00007330       __mask_1023_f              000000014002b330     libucrt:pow.obj
 0002:00007340       __mask_2045                000000014002b340     libucrt:pow.obj
 0002:00007350       __real_threshold           000000014002b350     libucrt:pow.obj
 0002:00007360       __real_notsign             000000014002b360     libucrt:pow.obj
 0002:00007370       __log_F_inv_head           000000014002b370     libucrt:pow.obj
 0002:00007b80       __log_F_inv_tail           000000014002bb80     libucrt:pow.obj
 0002:00008390       __denormal_threshold       000000014002c390     libucrt:pow.obj
 0002:000083a0       __enable_almost_inf        000000014002c3a0     libucrt:pow.obj
 0002:000083b0       __real_zero                000000014002c3b0     libucrt:pow.obj
 0002:000083c0       __real_smallest_denormal   000000014002c3c0     libucrt:pow.obj
 0002:000083d0       __denormal_tiny_threshold  000000014002c3d0     libucrt:pow.obj
 0002:000083e0       __real_p65536              000000014002c3e0     libucrt:pow.obj
 0002:000083f0       __real_m68800              000000014002c3f0     libucrt:pow.obj
 0002:00008400       __real_64_by_log2          000000014002c400     libucrt:pow.obj
 0002:00008410       __real_log2_by_64_head     000000014002c410     libucrt:pow.obj
 0002:00008420       __real_log2_by_64_tail     000000014002c420     libucrt:pow.obj
 0002:00008430       __real_1_by_720            000000014002c430     libucrt:pow.obj
 0002:00008440       __real_1_by_120            000000014002c440     libucrt:pow.obj
 0002:00008450       __real_1_by_24             000000014002c450     libucrt:pow.obj
 0002:00008460       __real_1_by_6              000000014002c460     libucrt:pow.obj
 0002:00008470       __real_1_by_2              000000014002c470     libucrt:pow.obj
 0002:00008480       __flag_x_one_y_snan        000000014002c480     libucrt:powf.obj
 0002:00008484       __flag_x_zero_z_inf        000000014002c484     libucrt:powf.obj
 0002:00008488       __flag_x_nan               000000014002c488     libucrt:powf.obj
 0002:0000848c       __flag_y_nan               000000014002c48c     libucrt:powf.obj
 0002:00008490       __flag_x_nan_y_nan         000000014002c490     libucrt:powf.obj
 0002:00008494       __flag_x_neg_y_notint      000000014002c494     libucrt:powf.obj
 0002:00008498       __flag_z_zero              000000014002c498     libucrt:powf.obj
 0002:0000849c       __flag_z_denormal          000000014002c49c     libucrt:powf.obj
 0002:000084a0       __flag_z_inf               000000014002c4a0     libucrt:powf.obj
 0002:000084a4       L__1_by_3                  000000014002c4a4     libucrt:powf.obj
 0002:000084ac       L__log2                    000000014002c4ac     libucrt:powf.obj
 0002:000084b4       L__max_exp_arg             000000014002c4b4     libucrt:powf.obj
 0002:000084bc       L__min_exp_arg             000000014002c4bc     libucrt:powf.obj
 0002:000084c4       L__real_log2_by_64         000000014002c4c4     libucrt:powf.obj
 0002:000084cc       L__1_by_6                  000000014002c4cc     libucrt:powf.obj
 0002:000084d4       L__real_threshold          000000014002c4d4     libucrt:powf.obj
 0002:000084dc       L__real_one                000000014002c4dc     libucrt:powf.obj
 0002:000084e4       L__real_two                000000014002c4e4     libucrt:powf.obj
 0002:000084ec       L__neg_zero                000000014002c4ec     libucrt:powf.obj
 0002:00008500       L__real_ca42               000000014002c500     libucrt:powf.obj
 0002:00008508       L__real_ca4                000000014002c508     libucrt:powf.obj
 0002:00008510       L__real_ca31               000000014002c510     libucrt:powf.obj
 0002:00008518       L__real_ca3                000000014002c518     libucrt:powf.obj
 0002:00008520       L__clear_sign              000000014002c520     libucrt:powf.obj
 0002:00008530       L__real_64_by_log2         000000014002c530     libucrt:powf.obj
 0002:00008540       L__1_by_2                  000000014002c540     libucrt:powf.obj
 0002:00008550       L__1023                    000000014002c550     libucrt:powf.obj
 0002:00008560       L__xexp_bits_xmantissa_bits 000000014002c560     libucrt:powf.obj
 0002:00008e80       _first_127char             000000014002ce80     libucrt:wsetlocale.obj
 0002:00009060       __acrt_initializers        000000014002d060     libucrt:initialization.obj
 0002:00009160       ?module_names@?A0x391cf84c@@3QBQEB_WB 000000014002d160     libucrt:winapi_thunks.obj
 0002:00009658       ?candidate_modules@?1??try_get_AreFileApisANSI@@YAP6AHXZXZ@4QBW4module_id@?A0x391cf84c@@B 000000014002d658     libucrt:winapi_thunks.obj
 0002:00009670       ?candidate_modules@?1??try_get_CompareStringEx@@YAP6AHPEB_WK0H0HPEAU_nlsversioninfo@@PEAX_J@ZXZ@4QBW4module_id@?A0x391cf84c@@B 000000014002d670     libucrt:winapi_thunks.obj
 0002:00009678       ?candidate_modules@?1??try_get_EnumSystemLocalesEx@@YAP6AHP6AHPEA_WK_J@ZK1PEAX@ZXZ@4QBW4module_id@?A0x391cf84c@@B 000000014002d678     libucrt:winapi_thunks.obj
 0002:00009698       ?candidate_modules@?1??try_get_FlsAlloc@@YAP6AKP6AXPEAX@Z@ZXZ@4QBW4module_id@?A0x391cf84c@@B 000000014002d698     libucrt:winapi_thunks.obj
 0002:000096a0       ?candidate_modules@?1??try_get_FlsFree@@YAP6AHK@ZXZ@4QBW4module_id@?A0x391cf84c@@B 000000014002d6a0     libucrt:winapi_thunks.obj
 0002:000096a8       ?candidate_modules@?1??try_get_FlsGetValue@@YAP6APEAXK@ZXZ@4QBW4module_id@?A0x391cf84c@@B 000000014002d6a8     libucrt:winapi_thunks.obj
 0002:000096b0       ?candidate_modules@?1??try_get_FlsSetValue@@YAP6AHKPEAX@ZXZ@4QBW4module_id@?A0x391cf84c@@B 000000014002d6b0     libucrt:winapi_thunks.obj
 0002:000096b8       ?candidate_modules@?1??try_get_GetDateFormatEx@@YAP6AHPEB_WKPEBU_SYSTEMTIME@@0PEA_WH0@ZXZ@4QBW4module_id@?A0x391cf84c@@B 000000014002d6b8     libucrt:winapi_thunks.obj
 0002:000096d0       ?candidate_modules@?1??try_get_GetLocaleInfoEx@@YAP6AHPEB_WKPEA_WH@ZXZ@4QBW4module_id@?A0x391cf84c@@B 000000014002d6d0     libucrt:winapi_thunks.obj
 0002:000096d8       ?candidate_modules@?1??try_get_GetTimeFormatEx@@YAP6AHPEB_WKPEBU_SYSTEMTIME@@0PEA_WH@ZXZ@4QBW4module_id@?A0x391cf84c@@B 000000014002d6d8     libucrt:winapi_thunks.obj
 0002:000096f0       ?candidate_modules@?1??try_get_GetUserDefaultLocaleName@@YAP6AHPEA_WH@ZXZ@4QBW4module_id@?A0x391cf84c@@B 000000014002d6f0     libucrt:winapi_thunks.obj
 0002:00009718       ?candidate_modules@?1??try_get_InitializeCriticalSectionEx@@YAP6AHPEAU_RTL_CRITICAL_SECTION@@KK@ZXZ@4QBW4module_id@?A0x391cf84c@@B 000000014002d718     libucrt:winapi_thunks.obj
 0002:00009720       ?candidate_modules@?1??try_get_IsValidLocaleName@@YAP6AHPEB_W@ZXZ@4QBW4module_id@?A0x391cf84c@@B 000000014002d720     libucrt:winapi_thunks.obj
 0002:00009740       ?candidate_modules@?1??try_get_LCMapStringEx@@YAP6AHPEB_WK0HPEA_WHPEAU_nlsversioninfo@@PEAX_J@ZXZ@4QBW4module_id@?A0x391cf84c@@B 000000014002d740     libucrt:winapi_thunks.obj
 0002:00009748       ?candidate_modules@?1??try_get_LCIDToLocaleName@@YAP6AHKPEA_WHK@ZXZ@4QBW4module_id@?A0x391cf84c@@B 000000014002d748     libucrt:winapi_thunks.obj
 0002:00009768       ?candidate_modules@?1??try_get_LocaleNameToLCID@@YAP6AKPEB_WK@ZXZ@4QBW4module_id@?A0x391cf84c@@B 000000014002d768     libucrt:winapi_thunks.obj
 0002:00009784       ?candidate_modules@?1??try_get_AppPolicyGetProcessTerminationMethod@@YAP6AJPEAXPEAW4AppPolicyProcessTerminationMethod@@@ZXZ@4QBW4module_id@?A0x391cf84c@@B 000000014002d784     libucrt:winapi_thunks.obj
 0002:00009e80       $cppxdata$?_wcstombs_l_helper@@YA_KPEADPEB_W_KPEAU__crt_locale_pointers@@@Z 000000014002de80     libucrt:wcstombs.obj
 0002:0000bd00       ?_mb_locale_names@@3QBQEB_WB 000000014002fd00     libucrt:mbctype.obj
 0002:0000ccf0       ?LcidToLocaleNameTable@?A0x881e4c05@@3QBULcidToLocaleName@1@B 0000000140030cf0     libucrt:lcidtoname_downlevel.obj
 0002:0000db30       ?LocaleNameToIndexTable@?A0x881e4c05@@3QBULocaleNameIndex@1@B 0000000140031b30     libucrt:lcidtoname_downlevel.obj
 0002:0000e9a0       __real@433fffffffffffff    00000001400329a0     libucrt:fpsr.obj
 0002:0000e9a8       __real@c33fffffffffffff    00000001400329a8     libucrt:fpsr.obj
 0002:0000e9b0       __real_ninf                00000001400329b0     libucrt:log10.obj
 0002:0000e9c0       __real_inf                 00000001400329c0     libucrt:log10.obj
 0002:0000e9d0       __real_neg_qnan            00000001400329d0     libucrt:log10.obj
 0002:0000e9e0       __real_qnanbit             00000001400329e0     libucrt:log10.obj
 0002:0000e9f0       __int_1023                 00000001400329f0     libucrt:log10.obj
 0002:0000ea00       __mask_001                 0000000140032a00     libucrt:log10.obj
 0002:0000ea10       __mask_mant                0000000140032a10     libucrt:log10.obj
 0002:0000ea20       __mask_mant_top8           0000000140032a20     libucrt:log10.obj
 0002:0000ea30       __mask_mant9               0000000140032a30     libucrt:log10.obj
 0002:0000ea40       __real_log10_e             0000000140032a40     libucrt:log10.obj
 0002:0000ea50       __real_log10_e_lead        0000000140032a50     libucrt:log10.obj
 0002:0000ea60       __real_log10_e_tail        0000000140032a60     libucrt:log10.obj
 0002:0000ea70       __real_log10_2_lead        0000000140032a70     libucrt:log10.obj
 0002:0000ea80       __real_log10_2_tail        0000000140032a80     libucrt:log10.obj
 0002:0000ea90       __real_two                 0000000140032a90     libucrt:log10.obj
 0002:0000eaa0       __real_one                 0000000140032aa0     libucrt:log10.obj
 0002:0000eab0       __real_half                0000000140032ab0     libucrt:log10.obj
 0002:0000eac0       __mask_100                 0000000140032ac0     libucrt:log10.obj
 0002:0000ead0       __real_1_over_512          0000000140032ad0     libucrt:log10.obj
 0002:0000eae0       __real_1_over_2            0000000140032ae0     libucrt:log10.obj
 0002:0000eaf0       __real_1_over_3            0000000140032af0     libucrt:log10.obj
 0002:0000eb00       __real_1_over_4            0000000140032b00     libucrt:log10.obj
 0002:0000eb10       __real_1_over_5            0000000140032b10     libucrt:log10.obj
 0002:0000eb20       __real_1_over_6            0000000140032b20     libucrt:log10.obj
 0002:0000eb30       __real_neg_1023            0000000140032b30     libucrt:log10.obj
 0002:0000eb40       __mask_2045                0000000140032b40     libucrt:log10.obj
 0002:0000eb50       __real_threshold           0000000140032b50     libucrt:log10.obj
 0002:0000eb60       __real_near_one_lt         0000000140032b60     libucrt:log10.obj
 0002:0000eb70       __real_near_one_gt         0000000140032b70     libucrt:log10.obj
 0002:0000eb80       __real_min_norm            0000000140032b80     libucrt:log10.obj
 0002:0000eb90       __real_notsign             0000000140032b90     libucrt:log10.obj
 0002:0000eba0       __real_ca1                 0000000140032ba0     libucrt:log10.obj
 0002:0000ebb0       __real_ca2                 0000000140032bb0     libucrt:log10.obj
 0002:0000ebc0       __real_ca3                 0000000140032bc0     libucrt:log10.obj
 0002:0000ebd0       __real_ca4                 0000000140032bd0     libucrt:log10.obj
 0002:0000ebe0       __mask_lower               0000000140032be0     libucrt:log10.obj
 0002:0000ebf0       __flag_x_zero              0000000140032bf0     libucrt:log10.obj
 0002:0000ebf4       __flag_x_neg               0000000140032bf4     libucrt:log10.obj
 0002:0000ebf8       __flag_x_nan               0000000140032bf8     libucrt:log10.obj
 0002:00011230       $unwind$printf             0000000140035230     main.obj
 0002:0001123c       $unwind$?equivalent@error_category@std@@UEBA_NHAEBVerror_condition@2@@Z 000000014003523c     main.obj
 0002:0001123c       $unwind$?_Raise@exception@stdext@@QEBAXXZ 000000014003523c     main.obj
 0002:0001123c       $unwind$?__mbrtowc_utf8@__crt_mbstring@@YA_KPEA_WPEBD_KPEAU_Mbstatet@@@Z 000000014003523c     libucrt:mbrtowc.obj
 0002:0001123c       $unwind$??$common_xtox_s@K_W@@YAHKQEA_W_KI_N@Z 000000014003523c     libucrt:xtoa.obj
 0002:0001123c       $unwind$??0length_error@std@@QEAA@PEBD@Z 000000014003523c     libcpmt:xthrow.obj
 0002:00011244       $unwind$_malloc_base       0000000140035244     libucrt:malloc_base.obj
 0002:00011244       $unwind$?do_narrow@?$ctype@D@std@@MEBAPEBDPEBD0DPEAD@Z 0000000140035244     main.obj
 0002:00011244       $unwind$??0bad_alloc@std@@QEAA@AEBV01@@Z 0000000140035244     libcpmt:xthrow.obj
 0002:00011244       $unwind$_clrfp             0000000140035244     libucrt:fpctrl.obj
 0002:00011244       $unwind$wcscat_s           0000000140035244     libucrt:wcscat_s.obj
 0002:00011244       $unwind$?_Addstd@ios_base@std@@SAXPEAV12@@Z 0000000140035244     libcpmt:ios.obj
 0002:00011244       $unwind$_IsExceptionObjectToBeDestroyed 0000000140035244     libvcruntime:ehhelpers.obj
 0002:00011244       $unwind$??__Efout@std@@YAXXZ 0000000140035244     libcpmt:cout.obj
 0002:00011244       $unwind$??0bad_exception@std@@QEAA@AEBV01@@Z 0000000140035244     libvcruntime:frame.obj
 0002:00011244       $unwind$__acrt_FlsFree     0000000140035244     libucrt:winapi_thunks.obj
 0002:00011244       $unwind$??0logic_error@std@@QEAA@AEBV01@@Z 0000000140035244     libcpmt:xthrow.obj
 0002:00011244       $unwind$__acrt_uninitialize_stdio 0000000140035244     libucrt:_file.obj
 0002:00011244       $unwind$??_G_Iostream_error_category@std@@UEAAPEAXI@Z 0000000140035244     main.obj
 0002:00011244       $unwind$?exit_or_terminate_process@@YAXI@Z 0000000140035244     libucrt:exit.obj
 0002:00011244       $unwind$?_Facet_Register@std@@YAXPEAV_Facet_base@1@@Z 0000000140035244     libcpmt:locale0.obj
 0002:00011244       $unwind$__acrt_FlsAlloc    0000000140035244     libucrt:winapi_thunks.obj
 0002:00011244       $unwind$_CreateFrameInfo   0000000140035244     libvcruntime:risctrnsctrl.obj
 0002:00011244       $unwind$_SetThrowImageBase 0000000140035244     libvcruntime:risctrnsctrl.obj
 0002:00011244       $unwind$_set_statfp        0000000140035244     libucrt:fpctrl.obj
 0002:00011244       $unwind$__vcrt_FlsGetValue 0000000140035244     libvcruntime:winapi_downlevel.obj
 0002:00011244       $unwind$_SetImageBase      0000000140035244     libvcruntime:risctrnsctrl.obj
 0002:00011244       $unwind$?state_case_normal@?$output_processor@DV?$stream_output_adapter@D@__crt_stdio_output@@V?$standard_base@DV?$stream_output_adapter@D@__crt_stdio_output@@@2@@__crt_stdio_output@@AEAA_NXZ 0000000140035244     libucrt:output.obj
 0002:00011244       $unwind$??_G?$codecvt@DDU_Mbstatet@@@std@@MEAAPEAXI@Z 0000000140035244     libcpmt:cout.obj
 0002:00011244       $unwind$??0_Lockit@std@@QEAA@H@Z 0000000140035244     libcpmt:xlock.obj
 0002:00011244       $unwind$__acrt_get_process_end_policy 0000000140035244     libucrt:win_policies.obj
 0002:00011244       $unwind$__std_exception_destroy 0000000140035244     libvcruntime:std_exception.obj
 0002:00011244       $unwind$__vcrt_FlsFree     0000000140035244     libvcruntime:winapi_downlevel.obj
 0002:00011244       $unwind$?type_case_s@?$output_processor@DV?$stream_output_adapter@D@__crt_stdio_output@@V?$standard_base@DV?$stream_output_adapter@D@__crt_stdio_output@@@2@@__crt_stdio_output@@AEAA_NXZ 0000000140035244     libucrt:output.obj
 0002:00011244       $unwind$__vcrt_FlsAlloc    0000000140035244     libvcruntime:winapi_downlevel.obj
 0002:00011244       $unwind$?__c16rtomb_utf8@__crt_mbstring@@YA_KPEAD_SPEAU_Mbstatet@@@Z 0000000140035244     libucrt:c16rtomb.obj
 0002:00011244       $unwind$_configthreadlocale 0000000140035244     libucrt:wsetlocale.obj
 0002:00011244       $unwind$__acrt_update_multibyte_info 0000000140035244     libucrt:locale_update.obj
 0002:00011244       $unwind$__acrt_initialize_locks 0000000140035244     libucrt:locks.obj
 0002:00011244       $unwind$__acrt_uninitialize_locks 0000000140035244     libucrt:locks.obj
 0002:00011244       $unwind$??0bad_array_new_length@std@@QEAA@AEBV01@@Z 0000000140035244     LIBCMT:throw_bad_alloc.obj
 0002:00011244       $unwind$__raise_securityfailure 0000000140035244     LIBCMT:gs_report.obj
 0002:00011244       $unwind$__acrt_getptd_head 0000000140035244     libucrt:per_thread_data.obj
 0002:00011244       $unwind$?try_cor_exit_process@@YAXI@Z 0000000140035244     libucrt:exit.obj
 0002:00011244       $unwind$__vcrt_uninitialize_locks 0000000140035244     libvcruntime:locks.obj
 0002:00011244       $unwind$?message@_Iostream_error_category@std@@UEBA?AV?$basic_string@DU?$char_traits@D@std@@V?$allocator@D@2@@2@H@Z 0000000140035244     main.obj
 0002:00011244       $unwind$?imbue@?$basic_filebuf@DU?$char_traits@D@std@@@std@@MEAAXAEBVlocale@2@@Z 0000000140035244     libcpmt:cout.obj
 0002:00011244       $unwind$??0exception@std@@QEAA@AEBV01@@Z 0000000140035244     libcpmt:xonce.obj
 0002:00011244       $unwind$??_Gtype_info@@UEAAPEAXI@Z 0000000140035244     LIBCMT:std_type_info_static.obj
 0002:00011244       $unwind$?setbuf@?$basic_filebuf@DU?$char_traits@D@std@@@std@@MEAAPEAV?$basic_streambuf@DU?$char_traits@D@std@@@2@PEAD_J@Z 0000000140035244     libcpmt:cout.obj
 0002:00011244       $unwind$__acrt_uninitialize_winapi_thunks 0000000140035244     libucrt:winapi_thunks.obj
 0002:00011244       $unwind$__vcrt_initialize_locks 0000000140035244     libvcruntime:locks.obj
 0002:00011244       $unwind$??_G_Facet_base@std@@UEAAPEAXI@Z 0000000140035244     main.obj
 0002:00011244       $unwind$?do_widen@?$ctype@D@std@@MEBAPEBDPEBD0PEAD@Z 0000000140035244     main.obj
 0002:00011244       $unwind$??__Efin@std@@YAXXZ 0000000140035244     libcpmt:cin.obj
 0002:00011244       $unwind$_clearfp           0000000140035244     libucrt:ieee.obj
 0002:00011244       $unwind$__scrt_uninitialize_crt 0000000140035244     LIBCMT:utility.obj
 0002:00011244       $unwind$__scrt_initialize_crt 0000000140035244     LIBCMT:utility.obj
 0002:00011244       $unwind$__scrt_release_startup_lock 0000000140035244     LIBCMT:utility.obj
 0002:00011244       $unwind$?__StateFromIp@@YAHPEBU_s_FuncInfo@@PEAU_xDISPATCHER_CONTEXT@@_K@Z 0000000140035244     libvcruntime:riscehstate.obj
 0002:00011244       $unwind$_onexit            0000000140035244     LIBCMT:utility.obj
 0002:00011244       $unwind$_calloc_base       0000000140035244     libucrt:calloc_base.obj
 0002:00011244       $unwind$??1?$basic_string@DU?$char_traits@D@std@@V?$allocator@D@2@@std@@QEAA@XZ 0000000140035244     main.obj
 0002:00011244       $unwind$??0bad_cast@std@@QEAA@AEBV01@@Z 0000000140035244     libcpmt:cout.obj
 0002:00011244       $unwind$__acrt_FlsGetValue 0000000140035244     libucrt:winapi_thunks.obj
 0002:00011244       $unwind$_fflush_nolock     0000000140035244     libucrt:fflush.obj
 0002:00011244       $unwind$?__GetUnwindTryBlock@@YAHPEA_KPEAU_xDISPATCHER_CONTEXT@@PEBU_s_FuncInfo@@@Z 0000000140035244     libvcruntime:riscehstate.obj
 0002:00011244       $unwind$initialize_pointers 0000000140035244     libucrt:initialization.obj
 0002:00011244       $unwind$uninitialize_allocated_memory 0000000140035244     libucrt:initialization.obj
 0002:00011244       $unwind$??0length_error@std@@QEAA@AEBV01@@Z 0000000140035244     libcpmt:xthrow.obj
 0002:00011244       $unwind$strcpy_s           0000000140035244     libucrt:strcpy_s.obj
 0002:00011244       $unwind$__acrt_allocate_buffer_for_argv 0000000140035244     libucrt:argv_parsing.obj
 0002:00011244       $unwind$_callnewh          0000000140035244     libucrt:new_handler.obj
 0002:00011244       $unwind$wcscpy_s           0000000140035244     libucrt:wcscpy_s.obj
 0002:00011244       $unwind$??2@YAPEAX_K@Z     0000000140035244     LIBCMT:new_scalar.obj
 0002:00011244       $unwind$?snextc@?$basic_streambuf@DU?$char_traits@D@std@@@std@@QEAAHXZ 0000000140035244     main.obj
 0002:00011244       $unwind$?internal_isupper_l@@YA_NHQEAU__crt_locale_pointers@@@Z 0000000140035244     libucrt:tolower_toupper.obj
 0002:00011244       $unwind$__acrt_stdio_free_buffer_nolock 0000000140035244     libucrt:_freebuf.obj
 0002:00011244       $unwind$feholdexcept       0000000140035244     libucrt:feholdexcept.obj
 0002:00011244       $unwind$fesetenv           0000000140035244     libucrt:fesetenv.obj
 0002:00011244       $unwind$?uflow@?$basic_streambuf@DU?$char_traits@D@std@@@std@@MEAAHXZ 0000000140035244     libcpmt:cout.obj
 0002:00011244       $unwind$fegetenv           0000000140035244     libucrt:fegetenv.obj
 0002:00011244       $unwind$?pre_c_initialization@@YAHXZ 0000000140035244     LIBCMT:exe_main.obj
 0002:00011244       $unwind$??_G_System_error@std@@UEAAPEAXI@Z 0000000140035244     main.obj
 0002:00011244       $unwind$?ExFilterRethrow@@YAHPEAU_EXCEPTION_POINTERS@@PEAUEHExceptionRecord@@PEAH@Z 0000000140035244     libvcruntime:frame.obj
 0002:00011244       $unwind$?initialize_pointers@@YAHXZ 0000000140035244     libcpmt:winapisupp.obj
 0002:00011244       $unwind$??_Gruntime_error@std@@UEAAPEAXI@Z 0000000140035244     main.obj
 0002:00011244       $unwind$??_Gexception@stdext@@UEAAPEAXI@Z 0000000140035244     main.obj
 0002:00011244       $unwind$__acrt_AppPolicyGetProcessTerminationMethodInternal 0000000140035244     libucrt:winapi_thunks.obj
 0002:00011244       $unwind$__acrt_update_locale_info 0000000140035244     libucrt:locale_update.obj
 0002:00011244       $unwind$__acrt_IsValidLocaleName 0000000140035244     libucrt:winapi_thunks.obj
 0002:00011244       $unwind$??_Gfailure@ios_base@std@@UEAAPEAXI@Z 0000000140035244     main.obj
 0002:0001124c       $unwind$??0_Locinfo@std@@QEAA@PEBD@Z 000000014003524c     main.obj
 0002:0001124c       $unwind$?widen@?$basic_ios@DU?$char_traits@D@std@@@std@@QEBADD@Z 000000014003524c     main.obj
 0002:00011258       $unwind$?common_fseek_binary_mode_read_only_fast_track_nolock@@YA_NV__crt_stdio_stream@@_JH@Z 0000000140035258     libucrt:fseek.obj
 0002:00011258       $unwind$??_G?$basic_filebuf@DU?$char_traits@D@std@@@std@@UEAAPEAXI@Z 0000000140035258     libcpmt:cout.obj
 0002:00011258       $unwind$??1_Locinfo@std@@QEAA@XZ 0000000140035258     main.obj
 0002:00011258       $unwind$?underflow@?$basic_filebuf@DU?$char_traits@D@std@@@std@@MEAAHXZ 0000000140035258     libcpmt:cout.obj
 0002:00011258       $unwind$?pbackfail@?$basic_filebuf@DU?$char_traits@D@std@@@std@@MEAAHH@Z 0000000140035258     libcpmt:cout.obj
 0002:00011258       $unwind$__acrt_FlsSetValue 0000000140035258     libucrt:winapi_thunks.obj
 0002:00011258       $unwind$fgetpos            0000000140035258     libucrt:fgetpos.obj
 0002:00011258       $unwind$__acrt_GetUserDefaultLocaleName 0000000140035258     libucrt:winapi_thunks.obj
 0002:00011258       $unwind$??_G?$basic_streambuf@DU?$char_traits@D@std@@@std@@UEAAPEAXI@Z 0000000140035258     libcpmt:cout.obj
 0002:00011258       $unwind$?sync@?$basic_filebuf@DU?$char_traits@D@std@@@std@@MEAAHXZ 0000000140035258     libcpmt:cout.obj
 0002:00011258       $unwind$__acrt_LocaleNameToLCID 0000000140035258     libucrt:winapi_thunks.obj
 0002:00011258       $unwind$??0sentry@?$basic_ostream@DU?$char_traits@D@std@@@std@@QEAA@AEAV12@@Z 0000000140035258     main.obj
 0002:00011258       $unwind$?_Locinfo_ctor@_Locinfo@std@@SAXPEAV12@PEBD@Z 0000000140035258     libcpmt:locale0.obj
 0002:00011258       $unwind$?_New_Locimp@_Locimp@locale@std@@CAPEAV123@_N@Z 0000000140035258     libcpmt:locale0.obj
 0002:00011258       $unwind$strncpy_s          0000000140035258     libucrt:strncpy_s.obj
 0002:00011258       $unwind$??_Gbad_cast@std@@UEAAPEAXI@Z 0000000140035258     libcpmt:cout.obj
 0002:00011258       $unwind$??_Gbad_alloc@std@@UEAAPEAXI@Z 0000000140035258     libcpmt:xthrow.obj
 0002:00011258       $unwind$__acrt_fp_strflt_to_string 0000000140035258     libucrt:_fptostr.obj
 0002:00011258       $unwind$??1_Init_locks@std@@QEAA@XZ 0000000140035258     libcpmt:xlock.obj
 0002:00011258       $unwind$??_Glogic_error@std@@UEAAPEAXI@Z 0000000140035258     libcpmt:xthrow.obj
 0002:00011258       $unwind$??_G?$ctype@D@std@@MEAAPEAXI@Z 0000000140035258     main.obj
 0002:00011258       $unwind$??_Glength_error@std@@UEAAPEAXI@Z 0000000140035258     libcpmt:xthrow.obj
 0002:00011258       $unwind$_Getctype          0000000140035258     libcpmt:_tolower.obj
 0002:00011258       $unwind$__acrt_stdio_allocate_buffer_nolock 0000000140035258     libucrt:_getbuf.obj
 0002:00011258       $unwind$_fclose_nolock     0000000140035258     libucrt:fclose.obj
 0002:00011258       $unwind$__acrt_execute_uninitializers 0000000140035258     libucrt:shared_initialization.obj
 0002:00011258       $unwind$_close_nolock      0000000140035258     libucrt:close.obj
 0002:00011258       $unwind$?_Tidy@ios_base@std@@AEAAXXZ 0000000140035258     libcpmt:ios.obj
 0002:00011258       $unwind$GetLcidFromLanguage 0000000140035258     libucrt:getqloc_downlevel.obj
 0002:00011258       $unwind$__acrt_uninitialize_lowio 0000000140035258     libucrt:ioinit.obj
 0002:00011258       $unwind$__acrt_errno_map_os_error 0000000140035258     libucrt:errno.obj
 0002:00011258       $unwind$GetLcidFromLangCountry 0000000140035258     libucrt:getqloc_downlevel.obj
 0002:00011258       $unwind$GetLocaleNameFromLanguage 0000000140035258     libucrt:get_qualified_locale.obj
 0002:00011258       $unwind$GetLocaleNameFromLangCountry 0000000140035258     libucrt:get_qualified_locale.obj
 0002:00011258       $unwind$__acrt_stdio_begin_temporary_buffering_nolock 0000000140035258     libucrt:_sftbuf.obj
 0002:00011258       $unwind$_updatetlocinfoEx_nolock 0000000140035258     libucrt:locale_refcounting.obj
 0002:00011258       $unwind$__acrt_getptd      0000000140035258     libucrt:per_thread_data.obj
 0002:00011258       $unwind$??$common_initialize_environment_nolock@D@@YAHXZ 0000000140035258     libucrt:environment_initialization.obj
 0002:00011258       $unwind$__acrt_getptd_noexit 0000000140035258     libucrt:per_thread_data.obj
 0002:00011258       $unwind$??_Gbad_array_new_length@std@@UEAAPEAXI@Z 0000000140035258     LIBCMT:throw_bad_alloc.obj
 0002:00011258       $unwind$?_Initcvt@?$basic_filebuf@DU?$char_traits@D@std@@@std@@IEAAXAEBV?$codecvt@DDU_Mbstatet@@@2@@Z 0000000140035258     libcpmt:cout.obj
 0002:00011258       $unwind$?type_case_c_tchar@?$output_processor@DV?$stream_output_adapter@D@__crt_stdio_output@@V?$standard_base@DV?$stream_output_adapter@D@__crt_stdio_output@@@2@@__crt_stdio_output@@AEAA_ND@Z 0000000140035258     libucrt:output.obj
 0002:00011258       $unwind$?replace_current_thread_locale_nolock@@YAXQEAU__acrt_ptd@@QEAU__crt_locale_data@@@Z 0000000140035258     libucrt:per_thread_data.obj
 0002:00011258       $unwind$_RTC_Initialize    0000000140035258     LIBCMT:_initsect_.obj
 0002:00011258       $unwind$?state_case_normal_tchar@?$output_processor@DV?$stream_output_adapter@D@__crt_stdio_output@@V?$standard_base@DV?$stream_output_adapter@D@__crt_stdio_output@@@2@@__crt_stdio_output@@AEAA_ND@Z 0000000140035258     libucrt:output.obj
 0002:00011258       $unwind$?force_decimal_point@__crt_stdio_output@@YAXPEADQEAU__crt_locale_pointers@@@Z 0000000140035258     libucrt:output.obj
 0002:00011258       $unwind$_RTC_Terminate     0000000140035258     LIBCMT:_initsect_.obj
 0002:00011258       $unwind$_FindAndUnlinkFrame 0000000140035258     libvcruntime:risctrnsctrl.obj
 0002:00011258       $unwind$_realloc_base      0000000140035258     libucrt:realloc_base.obj
 0002:00011258       $unwind$_initterm_e        0000000140035258     libucrt:initterm.obj
 0002:00011258       $unwind$?__SetUnwindTryBlock@@YAXPEA_KPEAU_xDISPATCHER_CONTEXT@@PEBU_s_FuncInfo@@H@Z 0000000140035258     libvcruntime:riscehstate.obj
 0002:00011258       $unwind$wcsncpy_s          0000000140035258     libucrt:wcsncpy_s.obj
 0002:00011258       $unwind$??_Gbad_exception@std@@UEAAPEAXI@Z 0000000140035258     libvcruntime:frame.obj
 0002:00011258       $unwind$??_Gexception@std@@UEAAPEAXI@Z 0000000140035258     libcpmt:xonce.obj
 0002:00011258       $unwind$__vcrt_FlsSetValue 0000000140035258     libvcruntime:winapi_downlevel.obj
 0002:00011264       $unwind$TestDefaultLanguage 0000000140035264     libucrt:getqloc_downlevel.obj
 0002:00011264       $unwind$ProcessCodePage    0000000140035264     libucrt:getqloc_downlevel.obj
 0002:00011264       $unwind$??R<lambda_ca71763b3c0644891230e4f79ea54fa6>@@QEBAHXZ 0000000140035264     libucrt:setvbuf.obj
 0002:00011264       $unwind$?do_toupper@?$ctype@D@std@@MEBAPEBDPEADPEBD@Z 0000000140035264     main.obj
 0002:00011264       $unwind$?do_tolower@?$ctype@D@std@@MEBAPEBDPEADPEBD@Z 0000000140035264     main.obj
 0002:00011264       $unwind$ProcessCodePage    0000000140035264     libucrt:get_qualified_locale.obj
 0002:00011274       $chain$0$?do_tolower@?$ctype@D@std@@MEBAPEBDPEADPEBD@Z 0000000140035274     main.obj
 0002:00011288       $chain$1$?do_tolower@?$ctype@D@std@@MEBAPEBDPEADPEBD@Z 0000000140035288     main.obj
 0002:00011298       $chain$0$?do_toupper@?$ctype@D@std@@MEBAPEBDPEADPEBD@Z 0000000140035298     main.obj
 0002:000112ac       $chain$1$?do_toupper@?$ctype@D@std@@MEBAPEBDPEADPEBD@Z 00000001400352ac     main.obj
 0002:000112bc       $unwind$??$common_ftell_nolock@_J@@YA_JV__crt_stdio_stream@@@Z 00000001400352bc     libucrt:ftell.obj
 0002:000112bc       $unwind$__acrt_InitializeCriticalSectionEx 00000001400352bc     libucrt:winapi_thunks.obj
 0002:000112bc       $unwind$memcpy_s           00000001400352bc     libucrt:strtod.obj
 0002:000112bc       $unwind$?free_crt_array_internal@@YAXQEAPEBX_K@Z 00000001400352bc     libucrt:inittime.obj
 0002:000112bc       $unwind$??0?$basic_string@DU?$char_traits@D@std@@V?$allocator@D@2@@std@@QEAA@_KD@Z 00000001400352bc     libcpmt:xonce.obj
 0002:000112bc       $unwind$??4?$_Yarn@D@std@@QEAAAEAV01@PEBD@Z 00000001400352bc     libcpmt:locale0.obj
 0002:000112bc       $unwind$__vcrt_getptd_noexit 00000001400352bc     libvcruntime:per_thread_data.obj
 0002:000112bc       $unwind$__acrt_stdio_flush_and_write_narrow_nolock 00000001400352bc     libucrt:_flsbuf.obj
 0002:000112bc       $unwind$_exception_enabled 00000001400352bc     libucrt:libm_error.obj
 0002:000112bc       $unwind$??0_LocaleUpdate@@QEAA@QEAU__crt_locale_pointers@@@Z 00000001400352bc     libucrt:output.obj
 0002:000112bc       $unwind$__acrt_locale_initialize_time 00000001400352bc     libucrt:inittime.obj
 0002:000112bc       $unwind$__vcrt_InitializeCriticalSectionEx 00000001400352bc     libvcruntime:winapi_downlevel.obj
 0002:000112bc       $unwind$memcpy_s           00000001400352bc     libucrt:cfout.obj
 0002:000112bc       $unwind$?type_case_n@?$output_processor@DV?$stream_output_adapter@D@__crt_stdio_output@@V?$standard_base@DV?$stream_output_adapter@D@__crt_stdio_output@@@2@@__crt_stdio_output@@AEAA_NXZ 00000001400352bc     libucrt:output.obj
 0002:000112bc       $unwind$??0_Init_locks@std@@QEAA@XZ 00000001400352bc     libcpmt:xlock.obj
 0002:000112bc       $unwind$??R<lambda_96f4279ff90247a4c5c5d9824f56f8c1>@@QEBA_KXZ 00000001400352bc     libucrt:fwrite.obj
 0002:000112bc       $unwind$__acrt_stdio_flush_nolock 00000001400352bc     libucrt:fflush.obj
 0002:000112bc       $unwind$__acrt_execute_initializers 00000001400352bc     libucrt:shared_initialization.obj
 0002:000112bc       $unwind$??$common_lseek_nolock@_J@@YA_JH_JH@Z 00000001400352bc     libucrt:lseek.obj
 0002:000112bc       $unwind$?make_error_code@std@@YA?AVerror_code@1@W4io_errc@1@@Z 00000001400352bc     main.obj
 0002:000112cc       $unwind$?_Makestr@_System_error@std@@CA?AV?$basic_string@DU?$char_traits@D@std@@V?$allocator@D@2@@2@Verror_code@2@V32@@Z 00000001400352cc     main.obj
 0002:000112e0       $chain$0$?_Makestr@_System_error@std@@CA?AV?$basic_string@DU?$char_traits@D@std@@V?$allocator@D@2@@2@Verror_code@2@V32@@Z 00000001400352e0     main.obj
 0002:000112f4       $chain$1$?_Makestr@_System_error@std@@CA?AV?$basic_string@DU?$char_traits@D@std@@V?$allocator@D@2@@2@Verror_code@2@V32@@Z 00000001400352f4     main.obj
 0002:00011304       $unwind$??0failure@ios_base@std@@QEAA@PEBDAEBVerror_code@2@@Z 0000000140035304     main.obj
 0002:0001131c       $unwind$?clear@ios_base@std@@QEAAXH_N@Z 000000014003531c     main.obj
 0002:00011324       $unwind$main               0000000140035324     main.obj
 0002:0001133c       $chain$2$main              000000014003533c     main.obj
 0002:00011358       $chain$4$main              0000000140035358     main.obj
 0002:00011370       $chain$5$main              0000000140035370     main.obj
 0002:00011380       $chain$6$main              0000000140035380     main.obj
 0002:00011398       $unwind$??0?$basic_string@DU?$char_traits@D@std@@V?$allocator@D@2@@std@@QEAA@QEBD@Z 0000000140035398     main.obj
 0002:000113b0       $unwind$??0?$basic_string@DU?$char_traits@D@std@@V?$allocator@D@2@@std@@QEAA@AEBV01@@Z 00000001400353b0     main.obj
 0002:000113c4       $unwind$?append@?$basic_string@DU?$char_traits@D@std@@V?$allocator@D@2@@std@@QEAAAEAV12@QEBD_K@Z 00000001400353c4     main.obj
 0002:000113d0       $chain$0$?append@?$basic_string@DU?$char_traits@D@std@@V?$allocator@D@2@@std@@QEAAAEAV12@QEBD_K@Z 00000001400353d0     main.obj
 0002:000113e4       $chain$1$?append@?$basic_string@DU?$char_traits@D@std@@V?$allocator@D@2@@std@@QEAAAEAV12@QEBD_K@Z 00000001400353e4     main.obj
 0002:000113f4       $unwind$??$use_facet@V?$ctype@D@std@@@std@@YAAEBV?$ctype@D@0@AEBVlocale@0@@Z 00000001400353f4     main.obj
 0002:0001140c       $unwind$??$?6U?$char_traits@D@std@@@std@@YAAEAV?$basic_ostream@DU?$char_traits@D@std@@@0@AEAV10@PEBD@Z 000000014003540c     main.obj
 0002:00011418       $chain$2$??$?6U?$char_traits@D@std@@@std@@YAAEAV?$basic_ostream@DU?$char_traits@D@std@@@0@AEAV10@PEBD@Z 0000000140035418     main.obj
 0002:00011434       $chain$3$??$?6U?$char_traits@D@std@@@std@@YAAEAV?$basic_ostream@DU?$char_traits@D@std@@@0@AEAV10@PEBD@Z 0000000140035434     main.obj
 0002:00011444       $unwind$??$_Reallocate_grow_by@V<lambda_65e615be2a453ca0576c979606f46740>@@PEBD_K@?$basic_string@DU?$char_traits@D@std@@V?$allocator@D@2@@std@@QEAAAEAV01@_KV<lambda_65e615be2a453ca0576c979606f46740>@@PEBD_K@Z 0000000140035444     main.obj
 0002:00011454       $chain$3$??$_Reallocate_grow_by@V<lambda_65e615be2a453ca0576c979606f46740>@@PEBD_K@?$basic_string@DU?$char_traits@D@std@@V?$allocator@D@2@@std@@QEAAAEAV01@_KV<lambda_65e615be2a453ca0576c979606f46740>@@PEBD_K@Z 0000000140035454     main.obj
 0002:00011474       $chain$4$??$_Reallocate_grow_by@V<lambda_65e615be2a453ca0576c979606f46740>@@PEBD_K@?$basic_string@DU?$char_traits@D@std@@V?$allocator@D@2@@std@@QEAAAEAV01@_KV<lambda_65e615be2a453ca0576c979606f46740>@@PEBD_K@Z 0000000140035474     main.obj
 0002:00011484       $chain$5$??$_Reallocate_grow_by@V<lambda_65e615be2a453ca0576c979606f46740>@@PEBD_K@?$basic_string@DU?$char_traits@D@std@@V?$allocator@D@2@@std@@QEAAAEAV01@_KV<lambda_65e615be2a453ca0576c979606f46740>@@PEBD_K@Z 0000000140035484     main.obj
 0002:000114a4       $unwind$?state_case_size@?$output_processor@DV?$stream_output_adapter@D@__crt_stdio_output@@V?$standard_base@DV?$stream_output_adapter@D@__crt_stdio_output@@@2@@__crt_stdio_output@@AEAA_NXZ 00000001400354a4     libucrt:output.obj
 0002:000114a4       $unwind$atexit             00000001400354a4     LIBCMT:utility.obj
 0002:000114a4       $unwind$__acrt_release_locale_ref 00000001400354a4     libucrt:locale_refcounting.obj
 0002:000114a4       $unwind$mainCRTStartup     00000001400354a4     LIBCMT:exe_main.obj
 0002:000114a4       $unwind$__dcrt_get_or_create_narrow_environment_nolock 00000001400354a4     libucrt:environment_initialization.obj
 0002:000114a4       $unwind$?pre_cpp_initialization@@YAXXZ 00000001400354a4     LIBCMT:exe_main.obj
 0002:000114a4       $unwind$?post_pgo_initialization@@YAHXZ 00000001400354a4     LIBCMT:exe_main.obj
 0002:000114a4       $unwind$_set_new_mode      00000001400354a4     libucrt:new_mode.obj
 0002:000114a4       $unwind$_errno             00000001400354a4     libucrt:errno.obj
 0002:000114a4       $unwind$?validate_stream_is_ansi_if_required@?$__acrt_stdio_char_traits@D@@SA_NQEAU_iobuf@@@Z 00000001400354a4     libucrt:output.obj
 0002:000114a4       $unwind$__doserrno         00000001400354a4     libucrt:errno.obj
 0002:000114a4       $unwind$__crtDownlevelLocaleNameToLCID 00000001400354a4     libcpmt:winapinls.obj
 0002:000114a4       $unwind$_purecall          00000001400354a4     libvcruntime:purevirt.obj
 0002:000114a4       $unwind$_get_osfhandle     00000001400354a4     libucrt:osfinfo.obj
 0002:000114a4       $unwind$_GetImageBase      00000001400354a4     libvcruntime:risctrnsctrl.obj
 0002:000114a4       $unwind$_statfp            00000001400354a4     libucrt:fpctrl.obj
 0002:000114a4       $unwind$___lc_codepage_func 00000001400354a4     libucrt:initctype.obj
 0002:000114a4       $unwind$_set_fmode         00000001400354a4     libucrt:setmode.obj
 0002:000114a4       $unwind$??__Einitlocks@std@@YAXXZ 00000001400354a4     libcpmt:iosptrs.obj
 0002:000114a4       $unwind$_GetThrowImageBase 00000001400354a4     libvcruntime:risctrnsctrl.obj
 0002:000114a4       $unwind$?_Atexit@@YAXP6AXXZ@Z 00000001400354a4     libcpmt:iosptrs.obj
 0002:000114a4       $unwind$___lc_locale_name_func 00000001400354a4     libucrt:initctype.obj
 0002:000114a4       $unwind$__acrt_initialize_ptd 00000001400354a4     libucrt:per_thread_data.obj
 0002:000114a4       $unwind$??$uninitialize_environment_internal@D@@YAXAEAPEAPEAD@Z 00000001400354a4     libucrt:environment_initialization.obj
 0002:000114a4       $unwind$??$uninitialize_environment_internal@_W@@YAXAEAPEAPEA_W@Z 00000001400354a4     libucrt:environment_initialization.obj
 0002:000114a4       $unwind$__pctype_func      00000001400354a4     libucrt:ctype.obj
 0002:000114a4       $unwind$__acrt_initialize_heap 00000001400354a4     libucrt:heap_handle.obj
 0002:000114a4       $unwind$__GSHandlerCheck   00000001400354a4     LIBCMT:_gshandler_.obj
 0002:000114a4       $unwind$_lock_locales      00000001400354a4     libucrt:locks.obj
 0002:000114a4       $unwind$__std_terminate    00000001400354a4     libvcruntime:ehhelpers.obj
 0002:000114a4       $unwind$__acrt_initialize_command_line 00000001400354a4     libucrt:argv_data.obj
 0002:000114a4       $unwind$__acrt_DownlevelLocaleNameToLCID 00000001400354a4     libucrt:lcidtoname_downlevel.obj
 0002:000114a4       $unwind$??__Einitlocks@std@@YAXXZ 00000001400354a4     libcpmt:xlock.obj
 0002:000114a4       $unwind$_set_errno_from_matherr 00000001400354a4     libucrt:fpexcept.obj
 0002:000114a4       $unwind$__FrameUnwindFilter 00000001400354a4     libvcruntime:ehhelpers.obj
 0002:000114a4       $unwind$__vcrt_initialize  00000001400354a4     libvcruntime:initialization.obj
 0002:000114a4       $unwind$??1_Lockit@std@@QEAA@XZ 00000001400354a4     libcpmt:xlock.obj
 0002:000114a4       $unwind$__vcrt_uninitialize 00000001400354a4     libvcruntime:initialization.obj
 0002:000114a4       $unwind$_isatty            00000001400354a4     libucrt:isatty.obj
 0002:000114a4       $unwind$__dcrt_uninitialize_environments_nolock 00000001400354a4     libucrt:environment_initialization.obj
 0002:000114a4       $unwind$??__Ecin@std@@YAXXZ 00000001400354a4     libcpmt:cin.obj
 0002:000114a4       $unwind$__vcrt_initialize_ptd 00000001400354a4     libvcruntime:per_thread_data.obj
 0002:000114a4       $unwind$__report_rangecheckfailure 00000001400354a4     LIBCMT:gs_report.obj
 0002:000114a4       $unwind$__scrt_acquire_startup_lock 00000001400354a4     LIBCMT:utility.obj
 0002:000114a4       $unwind$??__Einitlocks@@YAXXZ 00000001400354a4     libcpmt:cin.obj
 0002:000114a4       $unwind$__vcrt_uninitialize_ptd 00000001400354a4     libvcruntime:per_thread_data.obj
 0002:000114a4       $unwind$__acrt_uninitialize_ptd 00000001400354a4     libucrt:per_thread_data.obj
 0002:000114a4       $unwind$__vcrt_getptd      00000001400354a4     libvcruntime:per_thread_data.obj
 0002:000114a4       $unwind$__scrt_unhandled_exception_filter 00000001400354a4     LIBCMT:utility_desktop.obj
 0002:000114a4       $unwind$_Deletegloballocale 00000001400354a4     libcpmt:locale0.obj
 0002:000114a4       $unwind$__acrt_uninitialize 00000001400354a4     libucrt:initialization.obj
 0002:000114a4       $unwind$__acrt_initialize_multibyte 00000001400354a4     libucrt:mbctype.obj
 0002:000114a4       $unwind$__acrt_update_thread_multibyte_data 00000001400354a4     libucrt:mbctype.obj
 0002:000114a4       $unwind$_get_initial_narrow_environment 00000001400354a4     libucrt:environment_initialization.obj
 0002:000114a4       $unwind$?_Locinfo_dtor@_Locinfo@std@@SAXPEAV12@@Z 00000001400354a4     libcpmt:locale0.obj
 0002:000114a4       $unwind$_copytlocinfo_nolock 00000001400354a4     libucrt:wsetlocale.obj
 0002:000114a4       $unwind$initialize_c       00000001400354a4     libucrt:initialization.obj
 0002:000114a4       $unwind$uninitialize_environment 00000001400354a4     libucrt:initialization.obj
 0002:000114a4       $unwind$__scrt_initialize_default_local_stdio_options 00000001400354a4     LIBCMT:default_local_stdio_options.obj
 0002:000114a4       $unwind$__acrt_eagerly_load_locale_apis 00000001400354a4     libucrt:winapi_thunks.obj
 0002:000114a4       $unwind$?initialize_multibyte@@YAHXZ 00000001400354a4     libucrt:multibyte_initializer.obj
 0002:000114a4       $unwind$__acrt_can_use_vista_locale_apis 00000001400354a4     libucrt:winapi_thunks.obj
 0002:000114a4       $unwind$__crtInitializeCriticalSectionEx 00000001400354a4     libcpmt:winapisupp.obj
 0002:000114a4       $unwind$__vcrt_freefls     00000001400354a4     libvcruntime:per_thread_data.obj
 0002:000114a4       $unwind$??__Ecout@std@@YAXXZ 00000001400354a4     libcpmt:cout.obj
 0002:000114a4       $unwind$?__GetCurrentState@@YAHPEA_KPEAU_xDISPATCHER_CONTEXT@@PEBU_s_FuncInfo@@@Z 00000001400354a4     libvcruntime:riscehstate.obj
 0002:000114a4       $unwind$uninitialize_allocated_io_buffers 00000001400354a4     libucrt:initialization.obj
 0002:000114a4       $unwind$?_Xlen@?$basic_string@DU?$char_traits@D@std@@V?$allocator@D@2@@std@@SAXXZ 00000001400354a4     main.obj
 0002:000114a4       $unwind$??__Einitlocks@@YAXXZ 00000001400354a4     libcpmt:cout.obj
 0002:000114a4       $unwind$_wcsnicmp          00000001400354a4     libucrt:wcsnicmp.obj
 0002:000114a4       $unwind$_invoke_watson     00000001400354a4     libucrt:invalid_parameter.obj
 0002:000114a4       $unwind$tolower            00000001400354a4     libucrt:tolower_toupper.obj
 0002:000114a4       $unwind$_msize_base        00000001400354a4     libucrt:msize.obj
 0002:000114a4       $unwind$_register_thread_local_exe_atexit_callback 00000001400354a4     libucrt:exit.obj
 0002:000114a4       $unwind$_get_stream_buffer_pointers 00000001400354a4     libucrt:_file.obj
 0002:000114a4       $unwind$_fgetc_nolock      00000001400354a4     libucrt:fgetc.obj
 0002:000114a4       $unwind$?_Lock@?$basic_filebuf@DU?$char_traits@D@std@@@std@@UEAAXXZ 00000001400354a4     libcpmt:cout.obj
 0002:000114a4       $unwind$?__c32rtomb_utf8@__crt_mbstring@@YA_KPEAD_UPEAU_Mbstatet@@@Z 00000001400354a4     libucrt:c32rtomb.obj
 0002:000114a4       $unwind$?_Unlock@?$basic_filebuf@DU?$char_traits@D@std@@@std@@UEAAXXZ 00000001400354a4     libcpmt:cout.obj
 0002:000114a4       $unwind$abort              00000001400354a4     libucrt:abort.obj
 0002:000114a4       $unwind$_wcsicmp           00000001400354a4     libucrt:wcsicmp.obj
 0002:000114a4       $unwind$_fileno            00000001400354a4     libucrt:fileno.obj
 0002:000114a4       $unwind$fsetpos            00000001400354a4     libucrt:fsetpos.obj
 0002:000114a4       $unwind$__scrt_is_managed_app 00000001400354a4     LIBCMT:utility_desktop.obj
 0002:000114a4       $unwind$_strnicmp          00000001400354a4     libucrt:strnicmp.obj
 0002:000114a4       $unwind$tidy_global        00000001400354a4     libcpmt:locale0.obj
 0002:000114a4       $unwind$__dcrt_terminate_console_output 00000001400354a4     libucrt:initcon.obj
 0002:000114ac       $unwind$?flush@?$basic_ostream@DU?$char_traits@D@std@@@std@@QEAAAEAV12@XZ 00000001400354ac     main.obj
 0002:000114b8       $unwind$?put@?$basic_ostream@DU?$char_traits@D@std@@@std@@QEAAAEAV12@D@Z 00000001400354b8     main.obj
 0002:000114c4       $unwind$??$getline@DU?$char_traits@D@std@@V?$allocator@D@2@@std@@YAAEAV?$basic_istream@DU?$char_traits@D@std@@@0@$$QEAV10@AEAV?$basic_string@DU?$char_traits@D@std@@V?$allocator@D@2@@0@D@Z 00000001400354c4     main.obj
 0002:000114e0       $unwind$?push_back@?$basic_string@DU?$char_traits@D@std@@V?$allocator@D@2@@std@@QEAAXD@Z 00000001400354e0     main.obj
 0002:000114f0       $chain$2$?push_back@?$basic_string@DU?$char_traits@D@std@@V?$allocator@D@2@@std@@QEAAXD@Z 00000001400354f0     main.obj
 0002:0001150c       $chain$4$?push_back@?$basic_string@DU?$char_traits@D@std@@V?$allocator@D@2@@std@@QEAAXD@Z 000000014003550c     main.obj
 0002:00011520       $chain$5$?push_back@?$basic_string@DU?$char_traits@D@std@@V?$allocator@D@2@@std@@QEAAXD@Z 0000000140035520     main.obj
 0002:0001153c       $unwind$__acrt_copy_locale_name 000000014003553c     libucrt:wsetlocale.obj
 0002:0001153c       $unwind$?append@?$basic_string@DU?$char_traits@D@std@@V?$allocator@D@2@@std@@QEAAAEAV12@_KD@Z 000000014003553c     libcpmt:xonce.obj
 0002:0001153c       $unwind$strpbrk            000000014003553c     libucrt:strpbrk.obj
 0002:0001154c       $unwind$?type_case_integer@?$output_processor@DV?$stream_output_adapter@D@__crt_stdio_output@@V?$standard_base@DV?$stream_output_adapter@D@__crt_stdio_output@@@2@@__crt_stdio_output@@AEAA_NI_N@Z 000000014003554c     libucrt:output.obj
 0002:0001154c       $unwind$TranslateName      000000014003554c     libucrt:getqloc_downlevel.obj
 0002:0001154c       $unwind$GetTableIndexFromLocaleName 000000014003554c     libcpmt:winapinls.obj
 0002:0001154c       $unwind$??$_Reallocate_for@V<lambda_138c3d7c38c85abb84c7fc7bfe5747b7>@@D@?$basic_string@DU?$char_traits@D@std@@V?$allocator@D@2@@std@@QEAAAEAV01@_KV<lambda_138c3d7c38c85abb84c7fc7bfe5747b7>@@D@Z 000000014003554c     libcpmt:xonce.obj
 0002:00011564       $unwind$?IsInExceptionSpec@@YAEPEAUEHExceptionRecord@@PEBU_s_ESTypeList@@@Z 0000000140035564     libvcruntime:frame.obj
 0002:00011564       $unwind$?try_get_function@@YAPEAXW4function_id@?A0x391cf84c@@QEBDQEBW4module_id@2@2@Z 0000000140035564     libucrt:winapi_thunks.obj
 0002:00011564       $unwind$??$_Reallocate_grow_by@V<lambda_e1befb086ad3257e3f042a63030725f7>@@_KD@?$basic_string@DU?$char_traits@D@std@@V?$allocator@D@2@@std@@QEAAAEAV01@_KV<lambda_e1befb086ad3257e3f042a63030725f7>@@_KD@Z 0000000140035564     libcpmt:xonce.obj
 0002:00011564       $unwind$??R<lambda_f03950bc5685219e0bcd2087efbe011e>@@QEBAHXZ 0000000140035564     libucrt:onexit.obj
 0002:00011564       $unwind$?try_get_function@@YAPEAXW4function_id@?A0x89697e75@@QEBDQEBW4module_id@2@2@Z 0000000140035564     libvcruntime:winapi_downlevel.obj
 0002:00011580       $unwind$?_Init@ios_base@std@@IEAAXXZ 0000000140035580     libcpmt:cout.obj
 0002:00011594       $stateUnwindMap$??_Gios_base@std@@UEAAPEAXI@Z 0000000140035594     libcpmt:cout.obj
 0002:00011594       $stateUnwindMap$??__Fcin@std@@YAXXZ 0000000140035594     libcpmt:cin.obj
 0002:00011594       $stateUnwindMap$??__Fclassic_locale@std@@YAXXZ 0000000140035594     libcpmt:locale0.obj
 0002:00011594       $stateUnwindMap$?_Ios_base_dtor@ios_base@std@@CAXPEAV12@@Z 0000000140035594     libcpmt:ios.obj
 0002:00011594       $stateUnwindMap$??0?$basic_streambuf@DU?$char_traits@D@std@@@std@@IEAA@XZ 0000000140035594     libcpmt:cout.obj
 0002:00011594       $stateUnwindMap$??1?$basic_streambuf@DU?$char_traits@D@std@@@std@@UEAA@XZ 0000000140035594     libcpmt:cout.obj
 0002:00011594       $stateUnwindMap$??_G_Locimp@locale@std@@MEAAPEAXI@Z 0000000140035594     libcpmt:locale0.obj
 0002:00011594       $stateUnwindMap$??__Finit_atexit@@YAXXZ 0000000140035594     libcpmt:iosptrs.obj
 0002:00011594       $stateUnwindMap$??1?$basic_ios@DU?$char_traits@D@std@@@std@@UEAA@XZ 0000000140035594     libcpmt:cout.obj
 0002:00011594       $stateUnwindMap$??1_Fac_tidy_reg_t@std@@QEAA@XZ 0000000140035594     libcpmt:locale0.obj
 0002:00011594       $stateUnwindMap$??_G?$basic_ostream@DU?$char_traits@D@std@@@std@@UEAAPEAXI@Z 0000000140035594     libcpmt:cout.obj
 0002:00011594       $stateUnwindMap$??__Fcout@std@@YAXXZ 0000000140035594     libcpmt:cout.obj
 0002:00011594       $stateUnwindMap$??_G?$basic_ios@DU?$char_traits@D@std@@@std@@UEAAPEAXI@Z 0000000140035594     libcpmt:cout.obj
 0002:00011594       $stateUnwindMap$??_G?$basic_istream@DU?$char_traits@D@std@@@std@@UEAAPEAXI@Z 0000000140035594     libcpmt:cin.obj
 0002:00011594       $stateUnwindMap$?_Init@ios_base@std@@IEAAXXZ 0000000140035594     libcpmt:cout.obj
 0002:000115a0       $ip2state$?_Init@ios_base@std@@IEAAXXZ 00000001400355a0     libcpmt:cout.obj
 0002:000115b8       $unwind$??_Gios_base@std@@UEAAPEAXI@Z 00000001400355b8     libcpmt:cout.obj
 0002:000115d0       $ip2state$??_Gios_base@std@@UEAAPEAXI@Z 00000001400355d0     libcpmt:cout.obj
 0002:000115d8       $unwind$??0?$basic_streambuf@DU?$char_traits@D@std@@@std@@IEAA@XZ 00000001400355d8     libcpmt:cout.obj
 0002:000115f0       $ip2state$??0?$basic_streambuf@DU?$char_traits@D@std@@@std@@IEAA@XZ 00000001400355f0     libcpmt:cout.obj
 0002:00011600       $unwind$??1?$basic_streambuf@DU?$char_traits@D@std@@@std@@UEAA@XZ 0000000140035600     libcpmt:cout.obj
 0002:00011610       $ip2state$??1?$basic_streambuf@DU?$char_traits@D@std@@@std@@UEAA@XZ 0000000140035610     libcpmt:cout.obj
 0002:00011618       $unwind$?common_fseek_nolock@@YAHV__crt_stdio_stream@@_JH@Z 0000000140035618     libucrt:fseek.obj
 0002:00011618       $unwind$__GSHandlerCheck_EH 0000000140035618     LIBCMT:gshandlereh.obj
 0002:00011618       $unwind$__TypeMatch        0000000140035618     libvcruntime:frame.obj
 0002:00011618       $unwind$__acrt_initialize_stdio 0000000140035618     libucrt:_file.obj
 0002:00011618       $unwind$?xsputn@?$basic_streambuf@DU?$char_traits@D@std@@@std@@MEAA_JPEBD_J@Z 0000000140035618     libcpmt:cout.obj
 0002:00011618       $unwind$?xsgetn@?$basic_streambuf@DU?$char_traits@D@std@@@std@@MEAA_JPEAD_J@Z 0000000140035618     libcpmt:cout.obj
 0002:00011630       $unwind$??1?$basic_filebuf@DU?$char_traits@D@std@@@std@@UEAA@XZ 0000000140035630     libcpmt:cout.obj
 0002:00011640       $ip2state$??1?$basic_filebuf@DU?$char_traits@D@std@@@std@@UEAA@XZ 0000000140035640     libcpmt:cout.obj
 0002:00011648       $unwind$?overflow@?$basic_filebuf@DU?$char_traits@D@std@@@std@@MEAAHH@Z 0000000140035648     libcpmt:cout.obj
 0002:00011670       $stateUnwindMap$?overflow@?$basic_filebuf@DU?$char_traits@D@std@@@std@@MEAAHH@Z 0000000140035670     libcpmt:cout.obj
 0002:00011670       $stateUnwindMap$?uflow@?$basic_filebuf@DU?$char_traits@D@std@@@std@@MEAAHXZ 0000000140035670     libcpmt:cout.obj
 0002:00011678       $ip2state$?overflow@?$basic_filebuf@DU?$char_traits@D@std@@@std@@MEAAHH@Z 0000000140035678     libcpmt:cout.obj
 0002:00011690       $unwind$?uflow@?$basic_filebuf@DU?$char_traits@D@std@@@std@@MEAAHXZ 0000000140035690     libcpmt:cout.obj
 0002:000116b8       $ip2state$?uflow@?$basic_filebuf@DU?$char_traits@D@std@@@std@@MEAAHXZ 00000001400356b8     libcpmt:cout.obj
 0002:000116c8       $unwind$?parse_int_from_format_string@?$output_processor@DV?$stream_output_adapter@D@__crt_stdio_output@@V?$standard_base@DV?$stream_output_adapter@D@__crt_stdio_output@@@2@@__crt_stdio_output@@AEAA_NQEAH@Z 00000001400356c8     libucrt:output.obj
 0002:000116c8       $unwind$?seekoff@?$basic_filebuf@DU?$char_traits@D@std@@@std@@MEAA?AV?$fpos@U_Mbstatet@@@2@_JHH@Z 00000001400356c8     libcpmt:cout.obj
 0002:000116dc       $unwind$?seekpos@?$basic_filebuf@DU?$char_traits@D@std@@@std@@MEAA?AV?$fpos@U_Mbstatet@@@2@V32@H@Z 00000001400356dc     libcpmt:cout.obj
 0002:000116f0       $unwind$?_Init@?$basic_filebuf@DU?$char_traits@D@std@@@std@@IEAAXPEAU_iobuf@@W4_Initfl@12@@Z 00000001400356f0     libcpmt:cout.obj
 0002:000116fc       $unwind$?_Endwrite@?$basic_filebuf@DU?$char_traits@D@std@@@std@@IEAA_NXZ 00000001400356fc     libcpmt:cout.obj
 0002:00011720       $stateUnwindMap$?_Endwrite@?$basic_filebuf@DU?$char_traits@D@std@@@std@@IEAA_NXZ 0000000140035720     libcpmt:cout.obj
 0002:00011728       $ip2state$?_Endwrite@?$basic_filebuf@DU?$char_traits@D@std@@@std@@IEAA_NXZ 0000000140035728     libcpmt:cout.obj
 0002:00011740       $unwind$??1?$basic_ios@DU?$char_traits@D@std@@@std@@UEAA@XZ 0000000140035740     libcpmt:cout.obj
 0002:00011750       $ip2state$??1?$basic_ios@DU?$char_traits@D@std@@@std@@UEAA@XZ 0000000140035750     libcpmt:cout.obj
 0002:00011758       $unwind$??_G?$basic_ios@DU?$char_traits@D@std@@@std@@UEAAPEAXI@Z 0000000140035758     libcpmt:cout.obj
 0002:00011770       $ip2state$??_G?$basic_ios@DU?$char_traits@D@std@@@std@@UEAAPEAXI@Z 0000000140035770     libcpmt:cout.obj
 0002:00011778       $unwind$??0?$basic_ostream@DU?$char_traits@D@std@@@std@@QEAA@PEAV?$basic_streambuf@DU?$char_traits@D@std@@@1@_N@Z 0000000140035778     libcpmt:cout.obj
 0002:00011790       $stateUnwindMap$??0?$basic_ostream@DU?$char_traits@D@std@@@std@@QEAA@PEAV?$basic_streambuf@DU?$char_traits@D@std@@@1@_N@Z 0000000140035790     libcpmt:cout.obj
 0002:00011798       $ip2state$??0?$basic_ostream@DU?$char_traits@D@std@@@std@@QEAA@PEAV?$basic_streambuf@DU?$char_traits@D@std@@@1@_N@Z 0000000140035798     libcpmt:cout.obj
 0002:000117a8       $unwind$?fin$0@?0???$?RV<lambda_7777bce6b2f8c936911f934f8298dc43>@@AEAV<lambda_f03950bc5685219e0bcd2087efbe011e>@@V<lambda_3883c3dff614d5e0c5f61bb1ac94921c>@@@?$__crt_seh_guarded_call@H@@QEAAH$$QEAV<lambda_7777bce6b2f8c936911f934f8298dc43>@@AEAV<lambda_f03950bc5685219e0bcd2087efbe011e>@@$$QEAV<lambda_3883c3dff614d5e0c5f61bb1ac94921c>@@@Z@4HA 00000001400357a8     libucrt:onexit.obj
 0002:000117a8       $unwind$_IsNonwritableInCurrentImage$filt$0 00000001400357a8     LIBCMT:pesect.obj
 0002:000117a8       $unwind$__acrt_lowio_ensure_fh_exists$fin$0 00000001400357a8     libucrt:osfinfo.obj
 0002:000117a8       $unwind$?fin$0@?0???$?RV<lambda_0ae27a3a962d80f24befdcbee591983d>@@AEAV<lambda_8d0ee55de4b1038c4002e0adecdf1839>@@V<lambda_dc504788e8f1664fe9b84e20bfb512f2>@@@?$__crt_seh_guarded_call@X@@QEAAX$$QEAV<lambda_0ae27a3a962d80f24befdcbee591983d>@@AEAV<lambda_8d0ee55de4b1038c4002e0adecdf1839>@@$$QEAV<lambda_dc504788e8f1664fe9b84e20bfb512f2>@@@Z@4HA 00000001400357a8     libucrt:per_thread_data.obj
 0002:000117a8       $unwind$?fin$0@?0???$?RV<lambda_8369fcb7c4df1e85de37618bd2b85f07>@@AEAV<lambda_a10e4b102d4a2c3aac6f4f48bbdf488f>@@V<lambda_5b7707bd6d7a0c4713179f36c7fd995d>@@@?$__crt_seh_guarded_call@H@@QEAAH$$QEAV<lambda_8369fcb7c4df1e85de37618bd2b85f07>@@AEAV<lambda_a10e4b102d4a2c3aac6f4f48bbdf488f>@@$$QEAV<lambda_5b7707bd6d7a0c4713179f36c7fd995d>@@@Z@4HA 00000001400357a8     libucrt:onexit.obj
 0002:000117a8       $unwind$?fin$0@?0???$?RV<lambda_efdfa57d1f175319df784efa44bb7b81>@@AEAV<lambda_5f0a4c1567f8adc6734073e5d1e1b35c>@@V<lambda_2e8a7d3640ea6ccb4c2413664c2db6fd>@@@?$__crt_seh_guarded_call@X@@QEAAX$$QEAV<lambda_efdfa57d1f175319df784efa44bb7b81>@@AEAV<lambda_5f0a4c1567f8adc6734073e5d1e1b35c>@@$$QEAV<lambda_2e8a7d3640ea6ccb4c2413664c2db6fd>@@@Z@4HA 00000001400357a8     libucrt:mbctype.obj
 0002:000117a8       $unwind$?fin$0@?0??update_thread_multibyte_data_internal@@YAPEAU__crt_multibyte_data@@QEAU__acrt_ptd@@QEAPEAU1@@Z@4HA 00000001400357a8     libucrt:mbctype.obj
 0002:000117a8       $unwind$?fin$0@?0???$?RV<lambda_aa87e3671a710a21b5dc78c0bdf72e11>@@AEAV<lambda_92619d2358a28f41a33ba319515a20b9>@@V<lambda_6992ecaafeb10aed2b74cb1fae11a551>@@@?$__crt_seh_guarded_call@X@@QEAAX$$QEAV<lambda_aa87e3671a710a21b5dc78c0bdf72e11>@@AEAV<lambda_92619d2358a28f41a33ba319515a20b9>@@$$QEAV<lambda_6992ecaafeb10aed2b74cb1fae11a551>@@@Z@4HA 00000001400357a8     libucrt:per_thread_data.obj
 0002:000117a8       $unwind$?filt$0@?0??__scrt_common_main_seh@@YAHXZ@4HA 00000001400357a8     LIBCMT:exe_main.obj
 0002:000117a8       $unwind$__DestructExceptionObject$filt$0 00000001400357a8     libvcruntime:ehhelpers.obj
 0002:000117a8       $unwind$?fin$0@?0???$?RV<lambda_f2e299630e499de9f9a165e60fcd3db5>@@AEAV<lambda_2ae9d31cdba2644fcbeaf08da7c24588>@@V<lambda_40d01ff24d0e7b3814fdbdcee8eab3c7>@@@?$__crt_seh_guarded_call@X@@QEAAX$$QEAV<lambda_f2e299630e499de9f9a165e60fcd3db5>@@AEAV<lambda_2ae9d31cdba2644fcbeaf08da7c24588>@@$$QEAV<lambda_40d01ff24d0e7b3814fdbdcee8eab3c7>@@@Z@4HA 00000001400357a8     libucrt:per_thread_data.obj
 0002:000117a8       $unwind$?fin$0@?0???$?RV<lambda_2d41944a1d46af3157314b8a01080d33>@@AEAV<lambda_8f455de75cd7d7f24b4096f044d8b9e6>@@V<lambda_aa500f224e6afead328df44964fe2772>@@@?$__crt_seh_guarded_call@X@@QEAAX$$QEAV<lambda_2d41944a1d46af3157314b8a01080d33>@@AEAV<lambda_8f455de75cd7d7f24b4096f044d8b9e6>@@$$QEAV<lambda_aa500f224e6afead328df44964fe2772>@@@Z@4HA 00000001400357a8     libucrt:per_thread_data.obj
 0002:000117a8       $unwind$__CxxCallCatchBlock$filt$0 00000001400357a8     libvcruntime:frame.obj
 0002:000117a8       $unwind$__acrt_update_thread_locale_data$fin$0 00000001400357a8     libucrt:locale_refcounting.obj
 0002:000117a8       $unwind$?dtor$0@?0???0?$basic_istream@DU?$char_traits@D@std@@@std@@QEAA@PEAV?$basic_streambuf@DU?$char_traits@D@std@@@1@_N@Z@4HA 00000001400357a8     libcpmt:cin.obj
 0002:000117a8       $unwind$__FrameUnwindToState$filt$0 00000001400357a8     libvcruntime:frame.obj
 0002:000117a8       $unwind$?fin$0@?0???$?RV<lambda_450d765d439847d4c735a33c368b5fc0>@@AEAV<lambda_44731a7d0e6d81c3e6aa82d741081786>@@V<lambda_601a2a7da3b7a96e9554ac7215c4b07c>@@@?$__crt_seh_guarded_call@P6AXH@Z@@QEAAP6AXH@Z$$QEAV<lambda_450d765d439847d4c735a33c368b5fc0>@@AEAV<lambda_44731a7d0e6d81c3e6aa82d741081786>@@$$QEAV<lambda_601a2a7da3b7a96e9554ac7215c4b07c>@@@Z@4HA 00000001400357a8     libucrt:signal.obj
 0002:000117a8       $unwind$raise$fin$0        00000001400357a8     libucrt:signal.obj
 0002:000117a8       $unwind$__FrameUnwindToState$fin$1 00000001400357a8     libvcruntime:frame.obj
 0002:000117a8       $unwind$?fin$0@?0???$?RV<lambda_bd00b5aa228bd7e7e5b2b5db5fd2933b>@@AEAV<lambda_777d11615145f89ee95b9466d285deeb>@@V<lambda_6e5e48fbd24f9f8f81b203eb3d877683>@@@?$__crt_seh_guarded_call@H@@QEAAH$$QEAV<lambda_bd00b5aa228bd7e7e5b2b5db5fd2933b>@@AEAV<lambda_777d11615145f89ee95b9466d285deeb>@@$$QEAV<lambda_6e5e48fbd24f9f8f81b203eb3d877683>@@@Z@4HA 00000001400357a8     libucrt:winapi_thunks.obj
 0002:000117a8       $unwind$_fcloseall$fin$0   00000001400357a8     libucrt:closeall.obj
 0002:000117a8       $unwind$_ctrlfp$filt$0     00000001400357a8     libucrt:fpctrl.obj
 0002:000117a8       $unwind$_read$fin$0        00000001400357a8     libucrt:read.obj
 0002:000117a8       $unwind$_query_new_handler$fin$0 00000001400357a8     libucrt:new_handler.obj
 0002:000117a8       $unwind$__acrt_initialize_lowio$fin$0 00000001400357a8     libucrt:ioinit.obj
 0002:000117a8       $unwind$?fin$0@?0???$?RV<lambda_7f2adfce497ff2baa965cd4f576ecfd1>@@AEAV<lambda_2a444430fde8c29194d880d93eed5e8f>@@AEAV<lambda_8dff2cf36a5417162780cd64fa2883ef>@@@?$__crt_seh_guarded_call@X@@QEAAX$$QEAV<lambda_7f2adfce497ff2baa965cd4f576ecfd1>@@AEAV<lambda_2a444430fde8c29194d880d93eed5e8f>@@AEAV<lambda_8dff2cf36a5417162780cd64fa2883ef>@@@Z@4HA 00000001400357a8     libucrt:wsetlocale.obj
 0002:000117a8       $unwind$?fin$0@?0???$?RV<lambda_a62c933ada0517137acf5807a1eeac1f>@@AEAV<lambda_a31071773b9a94e445cbd5d04ef99106>@@V<lambda_56065050dbf3ada7e59a83db45153de3>@@@?$__crt_seh_guarded_call@H@@QEAAH$$QEAV<lambda_a62c933ada0517137acf5807a1eeac1f>@@AEAV<lambda_a31071773b9a94e445cbd5d04ef99106>@@$$QEAV<lambda_56065050dbf3ada7e59a83db45153de3>@@@Z@4HA 00000001400357a8     libucrt:output.obj
 0002:000117a8       $unwind$?filt$0@?0???R<lambda_6e4b09c48022b2350581041d5f6b0c4c>@@QEBA@XZ@4HA 00000001400357a8     libucrt:exit.obj
 0002:000117a8       $unwind$?fin$0@?0???$?RV<lambda_d80eeec6fff315bfe5c115232f3240e3>@@AEAV<lambda_6e4b09c48022b2350581041d5f6b0c4c>@@V<lambda_2358e3775559c9db80273638284d5e45>@@@?$__crt_seh_guarded_call@X@@QEAAX$$QEAV<lambda_d80eeec6fff315bfe5c115232f3240e3>@@AEAV<lambda_6e4b09c48022b2350581041d5f6b0c4c>@@$$QEAV<lambda_2358e3775559c9db80273638284d5e45>@@@Z@4HA 00000001400357a8     libucrt:exit.obj
 0002:000117a8       $unwind$?fin$0@?0???$?RV<lambda_1d892b297fdedeee07ed8124eeb2f2fa>@@AEAV<lambda_ffc046909424fd52df0ac47e64813305>@@V<lambda_01a7098693036236037e7cdb9bca3d73>@@@?$__crt_seh_guarded_call@X@@QEAAX$$QEAV<lambda_1d892b297fdedeee07ed8124eeb2f2fa>@@AEAV<lambda_ffc046909424fd52df0ac47e64813305>@@$$QEAV<lambda_01a7098693036236037e7cdb9bca3d73>@@@Z@4HA 00000001400357a8     libucrt:wsetlocale.obj
 0002:000117a8       $unwind$fclose$fin$0       00000001400357a8     libucrt:fclose.obj
 0002:000117a8       $unwind$?fin$0@?0???$?RV<lambda_9bd929c17696992ce54f1d748594fc62>@@AEAV<lambda_082c17da81b0962e08c0587ee0fac50c>@@V<lambda_9c08ac857f4975304d44e9f601d9b878>@@@?$__crt_seh_guarded_call@PEAD@@QEAAPEAD$$QEAV<lambda_9bd929c17696992ce54f1d748594fc62>@@AEAV<lambda_082c17da81b0962e08c0587ee0fac50c>@@$$QEAV<lambda_9c08ac857f4975304d44e9f601d9b878>@@@Z@4HA 00000001400357a8     libucrt:setlocale.obj
 0002:000117a8       $unwind$?fin$0@?0???$?RV<lambda_751a882b2c74d4b022dec766aa51a29a>@@AEAV<lambda_628dfdc04ba53c8bfc02c9951375f3f5>@@V<lambda_f6c7be5f7998530c34de24c7437d6b54>@@@?$__crt_seh_guarded_call@H@@QEAAH$$QEAV<lambda_751a882b2c74d4b022dec766aa51a29a>@@AEAV<lambda_628dfdc04ba53c8bfc02c9951375f3f5>@@$$QEAV<lambda_f6c7be5f7998530c34de24c7437d6b54>@@@Z@4HA 00000001400357a8     libucrt:close.obj
 0002:000117a8       $unwind$?fin$0@?0???$?RV<lambda_410d79af7f07d98d83a3f525b3859a53>@@AEAV<lambda_3e16ef9562a7dcce91392c22ab16ea36>@@V<lambda_38119f0e861e05405d8a144b9b982f0a>@@@?$__crt_seh_guarded_call@X@@QEAAX$$QEAV<lambda_410d79af7f07d98d83a3f525b3859a53>@@AEAV<lambda_3e16ef9562a7dcce91392c22ab16ea36>@@$$QEAV<lambda_38119f0e861e05405d8a144b9b982f0a>@@@Z@4HA 00000001400357a8     libucrt:wsetlocale.obj
 0002:000117a8       $unwind$?fin$0@?0???$common_lseek@_J@@YA_JH_JH@Z@4HA 00000001400357a8     libucrt:lseek.obj
 0002:000117a8       $unwind$ungetc$fin$0       00000001400357a8     libucrt:ungetc.obj
 0002:000117a8       $unwind$?fin$0@?0???$?RV<lambda_842d9ff0dc9ef11c61343bbaebe7f885>@@AEAV<lambda_c5860995281e5c4ce005b3de8f5874ee>@@V<lambda_d90129c13df834fdcbf8d2b88dafcf2d>@@@?$__crt_seh_guarded_call@X@@QEAAX$$QEAV<lambda_842d9ff0dc9ef11c61343bbaebe7f885>@@AEAV<lambda_c5860995281e5c4ce005b3de8f5874ee>@@$$QEAV<lambda_d90129c13df834fdcbf8d2b88dafcf2d>@@@Z@4HA 00000001400357a8     libucrt:fflush.obj
 0002:000117a8       $unwind$?fin$0@?0???$?RV<lambda_84ec643ea9557e2f7dc01bb0e9624395>@@AEAV<lambda_ca71763b3c0644891230e4f79ea54fa6>@@V<lambda_439a761618c59b0600e24586724d733b>@@@?$__crt_seh_guarded_call@H@@QEAAH$$QEAV<lambda_84ec643ea9557e2f7dc01bb0e9624395>@@AEAV<lambda_ca71763b3c0644891230e4f79ea54fa6>@@$$QEAV<lambda_439a761618c59b0600e24586724d733b>@@@Z@4HA 00000001400357a8     libucrt:setvbuf.obj
 0002:000117a8       $unwind$?fin$0@?0???$?RV<lambda_a37b2b86f63e897a80ea819b0eb08c01>@@AEAV<lambda_38ce7e780aa69e748d6df282ebc68efe>@@V<lambda_99fb1378e971ab6e7edea83e3a7a83a2>@@@?$__crt_seh_guarded_call@H@@QEAAH$$QEAV<lambda_a37b2b86f63e897a80ea819b0eb08c01>@@AEAV<lambda_38ce7e780aa69e748d6df282ebc68efe>@@$$QEAV<lambda_99fb1378e971ab6e7edea83e3a7a83a2>@@@Z@4HA 00000001400357a8     libucrt:commit.obj
 0002:000117a8       $unwind$?fin$0@?0???$?RV<lambda_886d6c58226a84441f68b9f2b8217b83>@@AEAV<lambda_ab61a845afdef5b7c387490eaf3616ee>@@V<lambda_f7f22ab5edc0698d5f6905b0d3f44752>@@@?$__crt_seh_guarded_call@X@@QEAAX$$QEAV<lambda_886d6c58226a84441f68b9f2b8217b83>@@AEAV<lambda_ab61a845afdef5b7c387490eaf3616ee>@@$$QEAV<lambda_f7f22ab5edc0698d5f6905b0d3f44752>@@@Z@4HA 00000001400357a8     libucrt:fflush.obj
 0002:000117a8       $unwind$?fin$0@?0???$common_ftell@_J@@YA_JV__crt_stdio_stream@@@Z@4HA 00000001400357a8     libucrt:ftell.obj
 0002:000117a8       $unwind$?fin$0@?0???$?RV<lambda_c376a267cfb53b6959b3b692ec76b120>@@AEAV<lambda_9a32fed5bf61b6b509b2d3f6003082a1>@@V<lambda_572fbb9fa0ab338edf41edfd4b5fcc8d>@@@?$__crt_seh_guarded_call@H@@QEAAH$$QEAV<lambda_c376a267cfb53b6959b3b692ec76b120>@@AEAV<lambda_9a32fed5bf61b6b509b2d3f6003082a1>@@$$QEAV<lambda_572fbb9fa0ab338edf41edfd4b5fcc8d>@@@Z@4HA 00000001400357a8     libucrt:fflush.obj
 0002:000117a8       $unwind$fgetc$fin$0        00000001400357a8     libucrt:fgetc.obj
 0002:000117a8       $unwind$_write$fin$0       00000001400357a8     libucrt:write.obj
 0002:000117a8       $unwind$?fin$0@?0???$?RV<lambda_bdbcead8b570fa3d5ec6d9679862a6e5>@@AEAV<lambda_96f4279ff90247a4c5c5d9824f56f8c1>@@V<lambda_4606be27f17b5e5579e09050fab91818>@@@?$__crt_seh_guarded_call@_K@@QEAA_K$$QEAV<lambda_bdbcead8b570fa3d5ec6d9679862a6e5>@@AEAV<lambda_96f4279ff90247a4c5c5d9824f56f8c1>@@$$QEAV<lambda_4606be27f17b5e5579e09050fab91818>@@@Z@4HA 00000001400357a8     libucrt:fwrite.obj
 0002:000117a8       $unwind$fputc$fin$0        00000001400357a8     libucrt:fputc.obj
 0002:000117a8       $unwind$?fin$0@?0??common_fseek@@YAHV__crt_stdio_stream@@_JH@Z@4HA 00000001400357a8     libucrt:fseek.obj
 0002:000117a8       $unwind$?dtor$0@?0???0?$basic_ostream@DU?$char_traits@D@std@@@std@@QEAA@PEAV?$basic_streambuf@DU?$char_traits@D@std@@@1@_N@Z@4HA 00000001400357a8     libcpmt:cout.obj
 0002:000117a8       $unwind$?dtor$0@?0??_Getcat@?$codecvt@DDU_Mbstatet@@@std@@SA_KPEAPEBVfacet@locale@2@PEBV42@@Z@4HA 00000001400357a8     libcpmt:cout.obj
 0002:000117b0       $unwind$??_G?$basic_ostream@DU?$char_traits@D@std@@@std@@UEAAPEAXI@Z 00000001400357b0     libcpmt:cout.obj
 0002:000117c8       $ip2state$??_G?$basic_ostream@DU?$char_traits@D@std@@@std@@UEAAPEAXI@Z 00000001400357c8     libcpmt:cout.obj
 0002:000117d0       $unwind$??__Fcout@std@@YAXXZ 00000001400357d0     libcpmt:cout.obj
 0002:000117e0       $ip2state$??__Fcout@std@@YAXXZ 00000001400357e0     libcpmt:cout.obj
 0002:000117e8       $unwind$??$use_facet@V?$codecvt@DDU_Mbstatet@@@std@@@std@@YAAEBV?$codecvt@DDU_Mbstatet@@@0@AEBVlocale@0@@Z 00000001400357e8     libcpmt:cout.obj
 0002:00011800       $stateUnwindMap$??$use_facet@V?$codecvt@DDU_Mbstatet@@@std@@@std@@YAAEBV?$codecvt@DDU_Mbstatet@@@0@AEBVlocale@0@@Z 0000000140035800     libcpmt:cout.obj
 0002:00011810       $ip2state$??$use_facet@V?$codecvt@DDU_Mbstatet@@@std@@@std@@YAAEBV?$codecvt@DDU_Mbstatet@@@0@AEBVlocale@0@@Z 0000000140035810     libcpmt:cout.obj
 0002:00011838       $unwind$?_Getcat@?$codecvt@DDU_Mbstatet@@@std@@SA_KPEAPEBVfacet@locale@2@PEBV42@@Z 0000000140035838     libcpmt:cout.obj
 0002:00011858       $stateUnwindMap$?_Getcat@?$codecvt@DDU_Mbstatet@@@std@@SA_KPEAPEBVfacet@locale@2@PEBV42@@Z 0000000140035858     libcpmt:cout.obj
 0002:00011860       $ip2state$?_Getcat@?$codecvt@DDU_Mbstatet@@@std@@SA_KPEAPEBVfacet@locale@2@PEBV42@@Z 0000000140035860     libcpmt:cout.obj
 0002:00011870       $unwind$??1_Fac_tidy_reg_t@std@@QEAA@XZ 0000000140035870     libcpmt:locale0.obj
 0002:00011880       $ip2state$??1_Fac_tidy_reg_t@std@@QEAA@XZ 0000000140035880     libcpmt:locale0.obj
 0002:00011888       $unwind$?_Locimp_dtor@_Locimp@locale@std@@CAXPEAV123@@Z 0000000140035888     libcpmt:locale0.obj
 0002:0001189c       $stateUnwindMap$?_Init@locale@std@@CAPEAV_Locimp@12@_N@Z 000000014003589c     libcpmt:locale0.obj
 0002:0001189c       $stateUnwindMap$?_Locimp_dtor@_Locimp@locale@std@@CAXPEAV123@@Z 000000014003589c     libcpmt:locale0.obj
 0002:000118a8       $ip2state$?_Locimp_dtor@_Locimp@locale@std@@CAXPEAV123@@Z 00000001400358a8     libcpmt:locale0.obj
 0002:000118b8       $unwind$??_G_Locimp@locale@std@@MEAAPEAXI@Z 00000001400358b8     libcpmt:locale0.obj
 0002:000118d0       $ip2state$??_G_Locimp@locale@std@@MEAAPEAXI@Z 00000001400358d0     libcpmt:locale0.obj
 0002:000118d8       $unwind$?_Init@locale@std@@CAPEAV_Locimp@12@_N@Z 00000001400358d8     libcpmt:locale0.obj
 0002:000118f0       $ip2state$?_Init@locale@std@@CAPEAV_Locimp@12@_N@Z 00000001400358f0     libcpmt:locale0.obj
 0002:00011908       $unwind$??__Fclassic_locale@std@@YAXXZ 0000000140035908     libcpmt:locale0.obj
 0002:00011918       $ip2state$??__Fclassic_locale@std@@YAXXZ 0000000140035918     libcpmt:locale0.obj
 0002:00011920       $unwind$??0?$basic_istream@DU?$char_traits@D@std@@@std@@QEAA@PEAV?$basic_streambuf@DU?$char_traits@D@std@@@1@_N@Z 0000000140035920     libcpmt:cin.obj
 0002:00011938       $stateUnwindMap$??0?$basic_istream@DU?$char_traits@D@std@@@std@@QEAA@PEAV?$basic_streambuf@DU?$char_traits@D@std@@@1@_N@Z 0000000140035938     libcpmt:cin.obj
 0002:00011940       $ip2state$??0?$basic_istream@DU?$char_traits@D@std@@@std@@QEAA@PEAV?$basic_streambuf@DU?$char_traits@D@std@@@1@_N@Z 0000000140035940     libcpmt:cin.obj
 0002:00011950       $unwind$??_G?$basic_istream@DU?$char_traits@D@std@@@std@@UEAAPEAXI@Z 0000000140035950     libcpmt:cin.obj
 0002:00011968       $ip2state$??_G?$basic_istream@DU?$char_traits@D@std@@@std@@UEAAPEAXI@Z 0000000140035968     libcpmt:cin.obj
 0002:00011970       $unwind$??__Fcin@std@@YAXXZ 0000000140035970     libcpmt:cin.obj
 0002:00011980       $ip2state$??__Fcin@std@@YAXXZ 0000000140035980     libcpmt:cin.obj
 0002:00011988       $unwind$?__scrt_throw_std_bad_alloc@@YAXXZ 0000000140035988     LIBCMT:throw_bad_alloc.obj
 0002:00011988       $unwind$?_Xlength_error@std@@YAXPEBD@Z 0000000140035988     libcpmt:xthrow.obj
 0002:00011988       $unwind$_raise_excf        0000000140035988     libucrt:fpexcept.obj
 0002:00011988       $unwind$_raise_exc         0000000140035988     libucrt:fpexcept.obj
 0002:00011988       $unwind$?__scrt_throw_std_bad_array_new_length@@YAXXZ 0000000140035988     LIBCMT:throw_bad_alloc.obj
 0002:00011990       $unwind$_Tolower           0000000140035990     libcpmt:_tolower.obj
 0002:000119a0       $unwind$_Toupper           00000001400359a0     libcpmt:_toupper.obj
 0002:000119b4       $unwind$__crtInitOnceExecuteOnce 00000001400359b4     libcpmt:winapisupp.obj
 0002:000119b4       $unwind$?translate_ansi_or_utf8_nolock@@YAHHQEAD_KQEA_W1@Z 00000001400359b4     libucrt:read.obj
 0002:000119b4       $unwind$__acrt_get_qualified_locale 00000001400359b4     libucrt:get_qualified_locale.obj
 0002:000119d0       $unwind$?_Ios_base_dtor@ios_base@std@@CAXPEAV12@@Z 00000001400359d0     libcpmt:ios.obj
 0002:000119e0       $ip2state$?_Ios_base_dtor@ios_base@std@@CAXPEAV12@@Z 00000001400359e0     libcpmt:ios.obj
 0002:000119f0       $unwind$??__Finit_atexit@@YAXXZ 00000001400359f0     libcpmt:iosptrs.obj
 0002:00011a00       $ip2state$??__Finit_atexit@@YAXXZ 0000000140035a00     libcpmt:iosptrs.obj
 0002:00011a08       $unwind$__crtLCMapStringA  0000000140035a08     libcpmt:StlLCMapStringA.obj
 0002:00011a30       $unwind$__crtLCMapStringEx 0000000140035a30     libcpmt:winapinls.obj
 0002:00011a40       $xdatasym                  0000000140035a40     LIBCMT:_amdsecgs_.obj
 0002:00011a44       $unwind$?__scrt_common_main_seh@@YAHXZ 0000000140035a44     LIBCMT:exe_main.obj
 0002:00011a7c       $unwind$__scrt_is_nonwritable_in_current_image 0000000140035a7c     LIBCMT:utility.obj
 0002:00011a9c       $unwind$__scrt_is_nonwritable_in_current_image$filt$0 0000000140035a9c     LIBCMT:utility.obj
 0002:00011aa4       $unwind$__scrt_initialize_onexit_tables 0000000140035aa4     LIBCMT:utility.obj
 0002:00011ab0       $unwind$__GSHandlerCheckCommon 0000000140035ab0     LIBCMT:_gshandler_.obj
 0002:00011ab0       $unwind$__acrt_WideCharToMultiByte 0000000140035ab0     libucrt:widechartomultibyte.obj
 0002:00011ab8       $xdatasym                  0000000140035ab8     LIBCMT:_chkstk_.obj
 0002:00011ac0       $unwind$__report_securityfailure 0000000140035ac0     LIBCMT:gs_report.obj
 0002:00011ac8       $unwind$__report_gsfailure 0000000140035ac8     LIBCMT:gs_report.obj
 0002:00011ad0       $unwind$capture_current_context 0000000140035ad0     LIBCMT:gs_report.obj
 0002:00011adc       $unwind$capture_previous_context 0000000140035adc     LIBCMT:gs_report.obj
 0002:00011ae8       $unwind$__security_init_cookie 0000000140035ae8     LIBCMT:gs_support.obj
 0002:00011af4       $unwind$__scrt_fastfail    0000000140035af4     LIBCMT:utility_desktop.obj
 0002:00011b04       $unwind$__isa_available_init 0000000140035b04     LIBCMT:_cpu_disp_.obj
 0002:00011b18       $xdatasym                  0000000140035b18     LIBCMT:_guard_dispatch_.obj
 0002:00011b1c       $unwind$_wcstombs_s_l      0000000140035b1c     libucrt:wcstombs.obj
 0002:00011b1c       $unwind$__acrt_stdio_refill_and_read_narrow_nolock 0000000140035b1c     libucrt:_filbuf.obj
 0002:00011b1c       $unwind$__std_exception_copy 0000000140035b1c     libvcruntime:std_exception.obj
 0002:00011b1c       $unwind$_free_osfhnd       0000000140035b1c     libucrt:osfinfo.obj
 0002:00011b1c       $unwind$?initialize_stdio_handles_nolock@@YAXXZ 0000000140035b1c     libucrt:ioinit.obj
 0002:00011b30       $unwind$_CxxThrowException 0000000140035b30     libvcruntime:throw.obj
 0002:00011b40       $unwind$?_GetEstablisherFrame@@YAPEA_KPEA_KPEAU_xDISPATCHER_CONTEXT@@PEBU_s_FuncInfo@@0@Z 0000000140035b40     libvcruntime:risctrnsctrl.obj
 0002:00011b58       $unwind$?__FrameUnwindToEmptyState@@YAXPEA_KPEAU_xDISPATCHER_CONTEXT@@PEBU_s_FuncInfo@@@Z 0000000140035b58     libvcruntime:risctrnsctrl.obj
 0002:00011b6c       $unwind$_CallSETranslator  0000000140035b6c     libvcruntime:risctrnsctrl.obj
 0002:00011b8c       $unwind$_CallSETranslator$filt$0 0000000140035b8c     libvcruntime:risctrnsctrl.obj
 0002:00011b98       $unwind$?_GetRangeOfTrysToCheck@@YAPEBU_s_TryBlockMapEntry@@PEA_KPEBU_s_FuncInfo@@HHPEAI2PEAU_xDISPATCHER_CONTEXT@@@Z 0000000140035b98     libvcruntime:risctrnsctrl.obj
 0002:00011b98       $unwind$?write_string_impl@?$output_adapter_common@DV?$stream_output_adapter@D@__crt_stdio_output@@@__crt_stdio_output@@IEBAXQEBDHQEAHAEAV__crt_deferred_errno_cache@@@Z 0000000140035b98     libucrt:output.obj
 0002:00011b98       $unwind$??$parse_command_line@D@@YAXPEADPEAPEAD0PEA_K2@Z 0000000140035b98     libucrt:argv_parsing.obj
 0002:00011b98       $unwind$TranslateName      0000000140035b98     libucrt:get_qualified_locale.obj
 0002:00011b98       $unwind$??R<lambda_a10e4b102d4a2c3aac6f4f48bbdf488f>@@QEBAHXZ 0000000140035b98     libucrt:onexit.obj
 0002:00011bb4       $unwind$_UnwindNestedFrames 0000000140035bb4     libvcruntime:risctrnsctrl.obj
 0002:00011bc8       $unwind$_recalloc_base     0000000140035bc8     libucrt:recalloc.obj
 0002:00011bc8       $unwind$??$ensure_buffer_is_big_enough@D@formatting_buffer@__crt_stdio_output@@QEAA_N_K@Z 0000000140035bc8     libucrt:output.obj
 0002:00011bc8       $unwind$?setSBCS@@YAXPEAU__crt_multibyte_data@@@Z 0000000140035bc8     libucrt:mbctype.obj
 0002:00011bc8       $unwind$?_ExecutionInCatch@@YAHPEAU_xDISPATCHER_CONTEXT@@PEBU_s_FuncInfo@@@Z 0000000140035bc8     libvcruntime:risctrnsctrl.obj
 0002:00011bc8       $unwind$??$common_xtox@K_W@@YAHKQEA_W_KI_N@Z 0000000140035bc8     libucrt:xtoa.obj
 0002:00011bc8       $unwind$__acrt_lowio_create_handle_array 0000000140035bc8     libucrt:osfinfo.obj
 0002:00011bc8       $unwind$__acrt_free_locale 0000000140035bc8     libucrt:locale_refcounting.obj
 0002:00011bc8       $unwind$_initterm          0000000140035bc8     libucrt:initterm.obj
 0002:00011bc8       $unwind$_seh_filter_exe    0000000140035bc8     libucrt:exception_filter.obj
 0002:00011bdc       $unwind$__CxxFrameHandler3 0000000140035bdc     libvcruntime:risctrnsctrl.obj
 0002:00011bf0       $xdatasym                  0000000140035bf0     libvcruntime:memcpy.obj
 0002:00011bf8       $xdatasym                  0000000140035bf8     libvcruntime:memset.obj
 0002:00011bfc       $unwind$__DestructExceptionObject 0000000140035bfc     libvcruntime:ehhelpers.obj
 0002:00011c20       $xdatasym                  0000000140035c20     libvcruntime:memchr.obj
 0002:00011c28       $xdatasym                  0000000140035c28     libvcruntime:memcmp.obj
 0002:00011c2c       $unwind$__acrt_locale_initialize_numeric 0000000140035c2c     libucrt:initnum.obj
 0002:00011c2c       $unwind$__C_specific_handler 0000000140035c2c     libvcruntime:_riscchandler_.obj
 0002:00011c48       $unwind$__CxxCallCatchBlock 0000000140035c48     libvcruntime:frame.obj
 0002:00011c84       $unwind$__CxxCallCatchBlock$fin$1 0000000140035c84     libvcruntime:frame.obj
 0002:00011c90       $unwind$__BuildCatchObject 0000000140035c90     libvcruntime:frame.obj
 0002:00011cbc       $unwind$__InternalCxxFrameHandler 0000000140035cbc     libvcruntime:frame.obj
 0002:00011cd4       $unwind$__FrameUnwindToState 0000000140035cd4     libvcruntime:frame.obj
 0002:00011d20       $unwind$?FindHandler@@YAXPEAUEHExceptionRecord@@PEA_KPEAU_CONTEXT@@PEAU_xDISPATCHER_CONTEXT@@PEBU_s_FuncInfo@@EH1@Z 0000000140035d20     libvcruntime:frame.obj
 0002:00011d40       $unwind$?CatchIt@@YAXPEAUEHExceptionRecord@@PEA_KPEAU_CONTEXT@@PEAU_xDISPATCHER_CONTEXT@@PEBU_s_FuncInfo@@PEBU_s_HandlerType@@PEBU_s_CatchableType@@PEBU_s_TryBlockMapEntry@@H1EE@Z 0000000140035d40     libvcruntime:frame.obj
 0002:00011d58       $unwind$?FindHandlerForForeignException@@YAXPEAUEHExceptionRecord@@PEA_KPEAU_CONTEXT@@PEAU_xDISPATCHER_CONTEXT@@PEBU_s_FuncInfo@@HH1@Z 0000000140035d58     libvcruntime:frame.obj
 0002:00011d70       $unwind$__BuildCatchObjectHelper 0000000140035d70     libvcruntime:frame.obj
 0002:00011db0       $xdatasym                  0000000140035db0     libvcruntime:_jmpuwind_.obj
 0002:00011dc4       $unwind$__vcrt_initialize_winapi_thunks 0000000140035dc4     libvcruntime:winapi_downlevel.obj
 0002:00011dc4       $unwind$__acrt_initialize_winapi_thunks 0000000140035dc4     libucrt:winapi_thunks.obj
 0002:00011dcc       $unwind$__vcrt_uninitialize_winapi_thunks 0000000140035dcc     libvcruntime:winapi_downlevel.obj
 0002:00011dcc       $unwind$__acrt_stdio_end_temporary_buffering_nolock 0000000140035dcc     libucrt:_sftbuf.obj
 0002:00011dd8       $xdatasym                  0000000140035dd8     libvcruntime:handlers.obj
 0002:00011de0       $unwind$_log10_special     0000000140035de0     libucrt:log_special.obj
 0002:00011de0       $unwind$fflush             0000000140035de0     libucrt:fflush.obj
 0002:00011de0       $unwind$strtol             0000000140035de0     libucrt:strtox.obj
 0002:00011de0       $unwind$_wtol              0000000140035de0     libucrt:atox.obj
 0002:00011de0       $unwind$mbstowcs_s         0000000140035de0     libucrt:mbstowcs.obj
 0002:00011de0       $unwind$_itow_s            0000000140035de0     libucrt:xtoa.obj
 0002:00011de0       $unwind$_invalid_parameter_noinfo 0000000140035de0     libucrt:invalid_parameter.obj
 0002:00011de0       $unwind$wctomb_s           0000000140035de0     libucrt:wctomb.obj
 0002:00011de0       $unwind$_invalid_parameter_noinfo_noreturn 0000000140035de0     libucrt:invalid_parameter.obj
 0002:00011de8       $unwind$__acrt_call_reportfault 0000000140035de8     libucrt:invalid_parameter.obj
 0002:00011e08       $unwind$??$__acrt_convert_wcs_mbs@_WD$$A6A_KPEADPEB_W_KPEAU__crt_locale_pointers@@@ZU__crt_win32_buffer_no_resizing@@@@YAHQEB_WAEAV?$__crt_win32_buffer@DU__crt_win32_buffer_no_resizing@@@@A6A_KPEADPEB_W_KPEAU__crt_locale_pointers@@@Z5@Z 0000000140035e08     libucrt:findnextfilea.obj
 0002:00011e08       $unwind$__acrt_LCIDToLocaleName 0000000140035e08     libucrt:winapi_thunks.obj
 0002:00011e08       $unwind$__acrt_DownlevelLCIDToLocaleName 0000000140035e08     libucrt:lcidtoname_downlevel.obj
 0002:00011e08       $unwind$__acrt_GetLocaleInfoEx 0000000140035e08     libucrt:winapi_thunks.obj
 0002:00011e08       $unwind$_invalid_parameter 0000000140035e08     libucrt:invalid_parameter.obj
 0002:00011e08       $unwind$__lc_lctowcs       0000000140035e08     libucrt:wsetlocale.obj
 0002:00011e08       $unwind$_wcsdup            0000000140035e08     libucrt:wcsdup.obj
 0002:00011e1c       $unwind$__stdio_common_vfprintf 0000000140035e1c     libucrt:output.obj
 0002:00011e24       $unwind$?process@?$output_processor@DV?$stream_output_adapter@D@__crt_stdio_output@@V?$standard_base@DV?$stream_output_adapter@D@__crt_stdio_output@@@2@@__crt_stdio_output@@QEAAHXZ 0000000140035e24     libucrt:output.obj
 0002:00011e34       $unwind$?state_case_type@?$output_processor@DV?$stream_output_adapter@D@__crt_stdio_output@@V?$standard_base@DV?$stream_output_adapter@D@__crt_stdio_output@@@2@@__crt_stdio_output@@AEAA_NXZ 0000000140035e34     libucrt:output.obj
 0002:00011e4c       $unwind$?type_case_a@?$output_processor@DV?$stream_output_adapter@D@__crt_stdio_output@@V?$standard_base@DV?$stream_output_adapter@D@__crt_stdio_output@@@2@@__crt_stdio_output@@AEAA_NXZ 0000000140035e4c     libucrt:output.obj
 0002:00011e58       $unwind$?write_stored_string_tchar@?$output_processor@DV?$stream_output_adapter@D@__crt_stdio_output@@V?$standard_base@DV?$stream_output_adapter@D@__crt_stdio_output@@@2@@__crt_stdio_output@@AEAA_ND@Z 0000000140035e58     libucrt:output.obj
 0002:00011e70       $unwind$??R<lambda_a31071773b9a94e445cbd5d04ef99106>@@QEBAHXZ 0000000140035e70     libucrt:output.obj
 0002:00011e90       $unwind$??$write_multiple_characters@V?$stream_output_adapter@D@__crt_stdio_output@@D@__crt_stdio_output@@YAXAEBV?$stream_output_adapter@D@0@DHQEAH@Z 0000000140035e90     libucrt:output.obj
 0002:00011ea8       $unwind$??$type_case_integer_parse_into_buffer@I@?$output_processor@DV?$stream_output_adapter@D@__crt_stdio_output@@V?$standard_base@DV?$stream_output_adapter@D@__crt_stdio_output@@@2@@__crt_stdio_output@@AEAAXII_N@Z 0000000140035ea8     libucrt:output.obj
 0002:00011ea8       $unwind$??$type_case_integer_parse_into_buffer@_K@?$output_processor@DV?$stream_output_adapter@D@__crt_stdio_output@@V?$standard_base@DV?$stream_output_adapter@D@__crt_stdio_output@@@2@@__crt_stdio_output@@AEAAX_KI_N@Z 0000000140035ea8     libucrt:output.obj
 0002:00011ea8       $unwind$__ascii_strnicmp   0000000140035ea8     libucrt:strnicmp.obj
 0002:00011eb0       $unwind$??$?RV<lambda_a62c933ada0517137acf5807a1eeac1f>@@AEAV<lambda_a31071773b9a94e445cbd5d04ef99106>@@V<lambda_56065050dbf3ada7e59a83db45153de3>@@@?$__crt_seh_guarded_call@H@@QEAAH$$QEAV<lambda_a62c933ada0517137acf5807a1eeac1f>@@AEAV<lambda_a31071773b9a94e445cbd5d04ef99106>@@$$QEAV<lambda_56065050dbf3ada7e59a83db45153de3>@@@Z 0000000140035eb0     libucrt:output.obj
 0002:00011ed4       $unwind$terminate          0000000140035ed4     libucrt:terminate.obj
 0002:00011ef4       $unwind$fclose             0000000140035ef4     libucrt:fclose.obj
 0002:00011f18       $unwind$?common_flush_all@@YAH_N@Z 0000000140035f18     libucrt:fflush.obj
 0002:00011f20       $unwind$??$?RV<lambda_842d9ff0dc9ef11c61343bbaebe7f885>@@AEAV<lambda_c5860995281e5c4ce005b3de8f5874ee>@@V<lambda_d90129c13df834fdcbf8d2b88dafcf2d>@@@?$__crt_seh_guarded_call@X@@QEAAX$$QEAV<lambda_842d9ff0dc9ef11c61343bbaebe7f885>@@AEAV<lambda_c5860995281e5c4ce005b3de8f5874ee>@@$$QEAV<lambda_d90129c13df834fdcbf8d2b88dafcf2d>@@@Z 0000000140035f20     libucrt:fflush.obj
 0002:00011f44       $unwind$??$?RV<lambda_886d6c58226a84441f68b9f2b8217b83>@@AEAV<lambda_ab61a845afdef5b7c387490eaf3616ee>@@V<lambda_f7f22ab5edc0698d5f6905b0d3f44752>@@@?$__crt_seh_guarded_call@X@@QEAAX$$QEAV<lambda_886d6c58226a84441f68b9f2b8217b83>@@AEAV<lambda_ab61a845afdef5b7c387490eaf3616ee>@@$$QEAV<lambda_f7f22ab5edc0698d5f6905b0d3f44752>@@@Z 0000000140035f44     libucrt:fflush.obj
 0002:00011f6c       $unwind$??$?RV<lambda_c376a267cfb53b6959b3b692ec76b120>@@AEAV<lambda_9a32fed5bf61b6b509b2d3f6003082a1>@@V<lambda_572fbb9fa0ab338edf41edfd4b5fcc8d>@@@?$__crt_seh_guarded_call@H@@QEAAH$$QEAV<lambda_c376a267cfb53b6959b3b692ec76b120>@@AEAV<lambda_9a32fed5bf61b6b509b2d3f6003082a1>@@$$QEAV<lambda_572fbb9fa0ab338edf41edfd4b5fcc8d>@@@Z 0000000140035f6c     libucrt:fflush.obj
 0002:00011f90       $unwind$fgetc              0000000140035f90     libucrt:fgetc.obj
 0002:00011fc4       $unwind$fputc              0000000140035fc4     libucrt:fputc.obj
 0002:00011ff8       $unwind$?common_fseek@@YAHV__crt_stdio_stream@@_JH@Z 0000000140035ff8     libucrt:fseek.obj
 0002:00012020       $unwind$fwrite             0000000140036020     libucrt:fwrite.obj
 0002:00012028       $unwind$_fwrite_nolock     0000000140036028     libucrt:fwrite.obj
 0002:00012044       $unwind$??$?RV<lambda_bdbcead8b570fa3d5ec6d9679862a6e5>@@AEAV<lambda_96f4279ff90247a4c5c5d9824f56f8c1>@@V<lambda_4606be27f17b5e5579e09050fab91818>@@@?$__crt_seh_guarded_call@_K@@QEAA_K$$QEAV<lambda_bdbcead8b570fa3d5ec6d9679862a6e5>@@AEAV<lambda_96f4279ff90247a4c5c5d9824f56f8c1>@@$$QEAV<lambda_4606be27f17b5e5579e09050fab91818>@@@Z 0000000140036044     libucrt:fwrite.obj
 0002:00012068       $unwind$setvbuf            0000000140036068     libucrt:setvbuf.obj
 0002:00012070       $unwind$??$?RV<lambda_84ec643ea9557e2f7dc01bb0e9624395>@@AEAV<lambda_ca71763b3c0644891230e4f79ea54fa6>@@V<lambda_439a761618c59b0600e24586724d733b>@@@?$__crt_seh_guarded_call@H@@QEAAH$$QEAV<lambda_84ec643ea9557e2f7dc01bb0e9624395>@@AEAV<lambda_ca71763b3c0644891230e4f79ea54fa6>@@$$QEAV<lambda_439a761618c59b0600e24586724d733b>@@@Z 0000000140036070     libucrt:setvbuf.obj
 0002:00012094       $unwind$ungetc             0000000140036094     libucrt:ungetc.obj
 0002:000120b8       $unwind$_ungetc_nolock     00000001400360b8     libucrt:ungetc.obj
 0002:000120c4       $unwind$setlocale          00000001400360c4     libucrt:setlocale.obj
 0002:000120cc       $unwind$??R<lambda_082c17da81b0962e08c0587ee0fac50c>@@QEBAPEADXZ 00000001400360cc     libucrt:setlocale.obj
 0002:000120e4       $unwind$??$?RV<lambda_9bd929c17696992ce54f1d748594fc62>@@AEAV<lambda_082c17da81b0962e08c0587ee0fac50c>@@V<lambda_9c08ac857f4975304d44e9f601d9b878>@@@?$__crt_seh_guarded_call@PEAD@@QEAAPEAD$$QEAV<lambda_9bd929c17696992ce54f1d748594fc62>@@AEAV<lambda_082c17da81b0962e08c0587ee0fac50c>@@$$QEAV<lambda_9c08ac857f4975304d44e9f601d9b878>@@@Z 00000001400360e4     libucrt:setlocale.obj
 0002:00012108       $unwind$__dcrt_lowio_ensure_console_output_initialized 0000000140036108     libucrt:initcon.obj
 0002:00012108       $unwind$islower            0000000140036108     libucrt:_ctype.obj
 0002:00012108       $unwind$isdigit            0000000140036108     libucrt:_ctype.obj
 0002:00012108       $unwind$?getSystemCP@@YAHH@Z 0000000140036108     libucrt:mbctype.obj
 0002:00012108       $unwind$isupper            0000000140036108     libucrt:_ctype.obj
 0002:00012108       $unwind$_isleadbyte_l      0000000140036108     libucrt:_wctype.obj
 0002:00012110       $unwind$__acrt_locale_initialize_ctype 0000000140036110     libucrt:initctype.obj
 0002:00012138       $unwind$?divide@__crt_strtox@@YA_KAEAUbig_integer@1@AEBU21@@Z 0000000140036138     libucrt:strtod.obj
 0002:00012144       $chain$0$?divide@__crt_strtox@@YA_KAEAUbig_integer@1@AEBU21@@Z 0000000140036144     libucrt:strtod.obj
 0002:00012158       $chain$6$?divide@__crt_strtox@@YA_KAEAUbig_integer@1@AEBU21@@Z 0000000140036158     libucrt:strtod.obj
 0002:0001217c       $chain$7$?divide@__crt_strtox@@YA_KAEAUbig_integer@1@AEBU21@@Z 000000014003617c     libucrt:strtod.obj
 0002:00012190       $chain$8$?divide@__crt_strtox@@YA_KAEAUbig_integer@1@AEBU21@@Z 0000000140036190     libucrt:strtod.obj
 0002:000121a0       $xdatasym                  00000001400361a0     libucrt:pow.obj
 0002:000121b0       $xdatasym                  00000001400361b0     libucrt:powf.obj
 0002:000121c0       $unwind$?x_ismbbtype_l@@YAHPEAU__crt_locale_pointers@@IHH@Z 00000001400361c0     libucrt:ismbbyte.obj
 0002:000121d0       $unwind$_tolower_l         00000001400361d0     libucrt:tolower_toupper.obj
 0002:000121e0       $unwind$_query_new_handler 00000001400361e0     libucrt:new_handler.obj
 0002:00012200       $unwind$_configure_narrow_argv 0000000140036200     libucrt:argv_parsing.obj
 0002:00012214       $unwind$??$free_environment@D@@YAXQEAPEAD@Z 0000000140036214     libucrt:environment_initialization.obj
 0002:00012214       $unwind$??$free_environment@_W@@YAXQEAPEA_W@Z 0000000140036214     libucrt:environment_initialization.obj
 0002:00012220       $unwind$??$create_environment@D@@YAQEAPEADQEAD@Z 0000000140036220     libucrt:environment_initialization.obj
 0002:00012220       $unwind$__lc_wcstolc       0000000140036220     libucrt:wsetlocale.obj
 0002:00012238       $unwind$??$initialize_environment_by_cloning_nolock@D@@YAHXZ 0000000140036238     libucrt:environment_initialization.obj
 0002:00012248       $unwind$?common_exit@@YAXHW4_crt_exit_cleanup_mode@@W4_crt_exit_return_mode@@@Z 0000000140036248     libucrt:exit.obj
 0002:00012254       $unwind$??R<lambda_6e4b09c48022b2350581041d5f6b0c4c>@@QEBA@XZ 0000000140036254     libucrt:exit.obj
 0002:00012274       $unwind$??$?RV<lambda_d80eeec6fff315bfe5c115232f3240e3>@@AEAV<lambda_6e4b09c48022b2350581041d5f6b0c4c>@@V<lambda_2358e3775559c9db80273638284d5e45>@@@?$__crt_seh_guarded_call@X@@QEAAX$$QEAV<lambda_d80eeec6fff315bfe5c115232f3240e3>@@AEAV<lambda_6e4b09c48022b2350581041d5f6b0c4c>@@$$QEAV<lambda_2358e3775559c9db80273638284d5e45>@@@Z 0000000140036274     libucrt:exit.obj
 0002:00012298       $unwind$_wsetlocale        0000000140036298     libucrt:wsetlocale.obj
 0002:000122a0       $unwind$_expandlocale      00000001400362a0     libucrt:wsetlocale.obj
 0002:000122c0       $unwind$_wcscats           00000001400362c0     libucrt:wsetlocale.obj
 0002:000122d0       $unwind$_wsetlocale_set_cat 00000001400362d0     libucrt:wsetlocale.obj
 0002:000122f4       $unwind$_wsetlocale_get_all 00000001400362f4     libucrt:wsetlocale.obj
 0002:000122f4       $unwind$??$copy_and_add_argument_to_buffer@D@@YAHQEBD0_KAEAV?$argument_list@D@?A0x5f5c8891@@@Z 00000001400362f4     libucrt:argv_wildcards.obj
 0002:00012310       $unwind$_wsetlocale_nolock 0000000140036310     libucrt:wsetlocale.obj
 0002:00012334       $unwind$__acrt_uninitialize_locale 0000000140036334     libucrt:wsetlocale.obj
 0002:00012334       $unwind$__acrt_get_sigabrt_handler 0000000140036334     libucrt:signal.obj
 0002:0001233c       $unwind$??R<lambda_2a444430fde8c29194d880d93eed5e8f>@@QEBA@XZ 000000014003633c     libucrt:wsetlocale.obj
 0002:00012348       $unwind$??$?RV<lambda_410d79af7f07d98d83a3f525b3859a53>@@AEAV<lambda_3e16ef9562a7dcce91392c22ab16ea36>@@V<lambda_38119f0e861e05405d8a144b9b982f0a>@@@?$__crt_seh_guarded_call@X@@QEAAX$$QEAV<lambda_410d79af7f07d98d83a3f525b3859a53>@@AEAV<lambda_3e16ef9562a7dcce91392c22ab16ea36>@@$$QEAV<lambda_38119f0e861e05405d8a144b9b982f0a>@@@Z 0000000140036348     libucrt:wsetlocale.obj
 0002:00012370       $unwind$??$?RV<lambda_1d892b297fdedeee07ed8124eeb2f2fa>@@AEAV<lambda_ffc046909424fd52df0ac47e64813305>@@V<lambda_01a7098693036236037e7cdb9bca3d73>@@@?$__crt_seh_guarded_call@X@@QEAAX$$QEAV<lambda_1d892b297fdedeee07ed8124eeb2f2fa>@@AEAV<lambda_ffc046909424fd52df0ac47e64813305>@@$$QEAV<lambda_01a7098693036236037e7cdb9bca3d73>@@@Z 0000000140036370     libucrt:wsetlocale.obj
 0002:00012394       $unwind$??$?RV<lambda_7f2adfce497ff2baa965cd4f576ecfd1>@@AEAV<lambda_2a444430fde8c29194d880d93eed5e8f>@@AEAV<lambda_8dff2cf36a5417162780cd64fa2883ef>@@@?$__crt_seh_guarded_call@X@@QEAAX$$QEAV<lambda_7f2adfce497ff2baa965cd4f576ecfd1>@@AEAV<lambda_2a444430fde8c29194d880d93eed5e8f>@@AEAV<lambda_8dff2cf36a5417162780cd64fa2883ef>@@@Z 0000000140036394     libucrt:wsetlocale.obj
 0002:000123b4       $unwind$_register_onexit_function 00000001400363b4     libucrt:onexit.obj
 0002:000123bc       $unwind$_execute_onexit_table 00000001400363bc     libucrt:onexit.obj
 0002:000123c4       $unwind$??$?RV<lambda_8369fcb7c4df1e85de37618bd2b85f07>@@AEAV<lambda_a10e4b102d4a2c3aac6f4f48bbdf488f>@@V<lambda_5b7707bd6d7a0c4713179f36c7fd995d>@@@?$__crt_seh_guarded_call@H@@QEAAH$$QEAV<lambda_8369fcb7c4df1e85de37618bd2b85f07>@@AEAV<lambda_a10e4b102d4a2c3aac6f4f48bbdf488f>@@$$QEAV<lambda_5b7707bd6d7a0c4713179f36c7fd995d>@@@Z 00000001400363c4     libucrt:onexit.obj
 0002:000123e8       $unwind$??$?RV<lambda_7777bce6b2f8c936911f934f8298dc43>@@AEAV<lambda_f03950bc5685219e0bcd2087efbe011e>@@V<lambda_3883c3dff614d5e0c5f61bb1ac94921c>@@@?$__crt_seh_guarded_call@H@@QEAAH$$QEAV<lambda_7777bce6b2f8c936911f934f8298dc43>@@AEAV<lambda_f03950bc5685219e0bcd2087efbe011e>@@$$QEAV<lambda_3883c3dff614d5e0c5f61bb1ac94921c>@@@Z 00000001400363e8     libucrt:onexit.obj
 0002:0001240c       $unwind$??$parse_integer@KV?$c_string_character_source@D@__crt_strtox@@@__crt_strtox@@YAKQEAU__crt_locale_pointers@@V?$c_string_character_source@D@0@H_N@Z 000000014003640c     libucrt:atox.obj
 0002:00012424       $unwind$??$parse_integer@KV?$c_string_character_source@_W@__crt_strtox@@@__crt_strtox@@YAKQEAU__crt_locale_pointers@@V?$c_string_character_source@_W@0@H_N@Z 0000000140036424     libucrt:atox.obj
 0002:00012440       $xdatasym                  0000000140036440     libucrt:strncmp.obj
 0002:00012444       $unwind$raise              0000000140036444     libucrt:signal.obj
 0002:00012480       $unwind$??$?RV<lambda_450d765d439847d4c735a33c368b5fc0>@@AEAV<lambda_44731a7d0e6d81c3e6aa82d741081786>@@V<lambda_601a2a7da3b7a96e9554ac7215c4b07c>@@@?$__crt_seh_guarded_call@P6AXH@Z@@QEAAP6AXH@Z$$QEAV<lambda_450d765d439847d4c735a33c368b5fc0>@@AEAV<lambda_44731a7d0e6d81c3e6aa82d741081786>@@$$QEAV<lambda_601a2a7da3b7a96e9554ac7215c4b07c>@@@Z 0000000140036480     libucrt:signal.obj
 0002:000124a4       $unwind$?destroy_fls@@YAXPEAX@Z 00000001400364a4     libucrt:per_thread_data.obj
 0002:000124a4       $unwind$__acrt_locale_free_numeric 00000001400364a4     libucrt:initnum.obj
 0002:000124a4       $unwind$__acrt_locale_free_lc_time_if_unreferenced 00000001400364a4     libucrt:locale_refcounting.obj
 0002:000124a4       $unwind$_free_base         00000001400364a4     libucrt:free_base.obj
 0002:000124ac       $unwind$?fp_format_e@@YAHQEBNQEAD_K12H_NIQEAU__crt_locale_pointers@@@Z 00000001400364ac     libucrt:cvt.obj
 0002:000124ac       $unwind$__acrt_LCMapStringW 00000001400364ac     libucrt:lcmapstringw.obj
 0002:000124ac       $unwind$__acrt_LCMapStringEx 00000001400364ac     libucrt:winapi_thunks.obj
 0002:000124ac       $unwind$_mbtowc_l          00000001400364ac     libucrt:mbtowc.obj
 0002:000124ac       $unwind$__acrt_CompareStringEx 00000001400364ac     libucrt:winapi_thunks.obj
 0002:000124c0       $unwind$__acrt_EnumSystemLocalesEx 00000001400364c0     libucrt:winapi_thunks.obj
 0002:000124d0       $unwind$??$?RV<lambda_bd00b5aa228bd7e7e5b2b5db5fd2933b>@@AEAV<lambda_777d11615145f89ee95b9466d285deeb>@@V<lambda_6e5e48fbd24f9f8f81b203eb3d877683>@@@?$__crt_seh_guarded_call@H@@QEAAH$$QEAV<lambda_bd00b5aa228bd7e7e5b2b5db5fd2933b>@@AEAV<lambda_777d11615145f89ee95b9466d285deeb>@@$$QEAV<lambda_6e5e48fbd24f9f8f81b203eb3d877683>@@@Z 00000001400364d0     libucrt:winapi_thunks.obj
 0002:000124f8       $unwind$_fcloseall         00000001400364f8     libucrt:closeall.obj
 0002:0001251c       $unwind$__acrt_initialize_lowio 000000014003651c     libucrt:ioinit.obj
 0002:0001253c       $unwind$?initialize_inherited_file_handles_nolock@@YAXXZ 000000014003653c     libucrt:ioinit.obj
 0002:00012558       $unwind$?construct_ptd_array@@YAXQEAU__acrt_ptd@@@Z 0000000140036558     libucrt:per_thread_data.obj
 0002:00012560       $unwind$?destroy_ptd_array@@YAXQEAU__acrt_ptd@@@Z 0000000140036560     libucrt:per_thread_data.obj
 0002:00012568       $unwind$??$?RV<lambda_0ae27a3a962d80f24befdcbee591983d>@@AEAV<lambda_8d0ee55de4b1038c4002e0adecdf1839>@@V<lambda_dc504788e8f1664fe9b84e20bfb512f2>@@@?$__crt_seh_guarded_call@X@@QEAAX$$QEAV<lambda_0ae27a3a962d80f24befdcbee591983d>@@AEAV<lambda_8d0ee55de4b1038c4002e0adecdf1839>@@$$QEAV<lambda_dc504788e8f1664fe9b84e20bfb512f2>@@@Z 0000000140036568     libucrt:per_thread_data.obj
 0002:0001258c       $unwind$??$?RV<lambda_aa87e3671a710a21b5dc78c0bdf72e11>@@AEAV<lambda_92619d2358a28f41a33ba319515a20b9>@@V<lambda_6992ecaafeb10aed2b74cb1fae11a551>@@@?$__crt_seh_guarded_call@X@@QEAAX$$QEAV<lambda_aa87e3671a710a21b5dc78c0bdf72e11>@@AEAV<lambda_92619d2358a28f41a33ba319515a20b9>@@$$QEAV<lambda_6992ecaafeb10aed2b74cb1fae11a551>@@@Z 000000014003658c     libucrt:per_thread_data.obj
 0002:000125b0       $unwind$??$?RV<lambda_f2e299630e499de9f9a165e60fcd3db5>@@AEAV<lambda_2ae9d31cdba2644fcbeaf08da7c24588>@@V<lambda_40d01ff24d0e7b3814fdbdcee8eab3c7>@@@?$__crt_seh_guarded_call@X@@QEAAX$$QEAV<lambda_f2e299630e499de9f9a165e60fcd3db5>@@AEAV<lambda_2ae9d31cdba2644fcbeaf08da7c24588>@@$$QEAV<lambda_40d01ff24d0e7b3814fdbdcee8eab3c7>@@@Z 00000001400365b0     libucrt:per_thread_data.obj
 0002:000125d4       $unwind$??$?RV<lambda_2d41944a1d46af3157314b8a01080d33>@@AEAV<lambda_8f455de75cd7d7f24b4096f044d8b9e6>@@V<lambda_aa500f224e6afead328df44964fe2772>@@@?$__crt_seh_guarded_call@X@@QEAAX$$QEAV<lambda_2d41944a1d46af3157314b8a01080d33>@@AEAV<lambda_8f455de75cd7d7f24b4096f044d8b9e6>@@$$QEAV<lambda_aa500f224e6afead328df44964fe2772>@@@Z 00000001400365d4     libucrt:per_thread_data.obj
 0002:000125f8       $unwind$_wctomb_s_l        00000001400365f8     libucrt:wctomb.obj
 0002:00012608       $unwind$__acrt_fp_format   0000000140036608     libucrt:cvt.obj
 0002:0001261c       $unwind$?fp_format_nan_or_infinity@@YAHW4__acrt_fp_class@@_NPEAD_K1@Z 000000014003661c     libucrt:cvt.obj
 0002:00012630       $unwind$?fp_format_e_internal@@YAHQEAD_KH_NIQEAU_strflt@@2QEAU__crt_locale_pointers@@@Z 0000000140036630     libucrt:cvt.obj
 0002:00012648       $unwind$?fp_format_a@@YAHQEBNPEAD_KQEAD2H_NIQEAU__crt_locale_pointers@@@Z 0000000140036648     libucrt:cvt.obj
 0002:00012664       $unwind$__dcrt_get_narrow_environment_from_os 0000000140036664     libucrt:get_environment_from_os.obj
 0002:00012664       $unwind$?fp_format_f_internal@@YAHQEAD_KHQEAU_strflt@@_NQEAU__crt_locale_pointers@@@Z 0000000140036664     libucrt:cvt.obj
 0002:00012664       $unwind$_wcsnicmp_l        0000000140036664     libucrt:wcsnicmp.obj
 0002:0001267c       $unwind$?fp_format_g@@YAHQEBNQEAD_K12H_NIQEAU__crt_locale_pointers@@@Z 000000014003667c     libucrt:cvt.obj
 0002:00012690       $unwind$_commit            0000000140036690     libucrt:commit.obj
 0002:00012690       $unwind$_close             0000000140036690     libucrt:close.obj
 0002:00012698       $unwind$??$?RV<lambda_751a882b2c74d4b022dec766aa51a29a>@@AEAV<lambda_628dfdc04ba53c8bfc02c9951375f3f5>@@V<lambda_f6c7be5f7998530c34de24c7437d6b54>@@@?$__crt_seh_guarded_call@H@@QEAAH$$QEAV<lambda_751a882b2c74d4b022dec766aa51a29a>@@AEAV<lambda_628dfdc04ba53c8bfc02c9951375f3f5>@@$$QEAV<lambda_f6c7be5f7998530c34de24c7437d6b54>@@@Z 0000000140036698     libucrt:close.obj
 0002:000126bc       $unwind$??$?RV<lambda_a37b2b86f63e897a80ea819b0eb08c01>@@AEAV<lambda_38ce7e780aa69e748d6df282ebc68efe>@@V<lambda_99fb1378e971ab6e7edea83e3a7a83a2>@@@?$__crt_seh_guarded_call@H@@QEAAH$$QEAV<lambda_a37b2b86f63e897a80ea819b0eb08c01>@@AEAV<lambda_38ce7e780aa69e748d6df282ebc68efe>@@$$QEAV<lambda_99fb1378e971ab6e7edea83e3a7a83a2>@@@Z 00000001400366bc     libucrt:commit.obj
 0002:000126e0       $unwind$_write             00000001400366e0     libucrt:write.obj
 0002:00012710       $unwind$_write_nolock      0000000140036710     libucrt:write.obj
 0002:00012728       $unwind$?write_double_translated_ansi_nolock@@YA?AUwrite_result@?A0x17268360@@HQEBDI@Z 0000000140036728     libucrt:write.obj
 0002:00012748       $unwind$?write_text_ansi_nolock@@YA?AUwrite_result@?A0x17268360@@HQEBDI@Z 0000000140036748     libucrt:write.obj
 0002:00012748       $unwind$?write_text_utf16le_nolock@@YA?AUwrite_result@?A0x17268360@@HQEBDI@Z 0000000140036748     libucrt:write.obj
 0002:00012768       $unwind$?write_text_utf8_nolock@@YA?AUwrite_result@?A0x17268360@@HQEBDI@Z 0000000140036768     libucrt:write.obj
 0002:0001278c       $unwind$?common_ftell_translated_utf8_nolock@@YA_JV__crt_stdio_stream@@_J@Z 000000014003678c     libucrt:ftell.obj
 0002:000127b4       $unwind$?common_ftell_read_mode_nolock@@YA_JV__crt_stdio_stream@@_J1@Z 00000001400367b4     libucrt:ftell.obj
 0002:000127cc       $unwind$??$common_ftell@_J@@YA_JV__crt_stdio_stream@@@Z 00000001400367cc     libucrt:ftell.obj
 0002:000127f0       $unwind$??$write_buffer_nolock@D@@YA_NDV__crt_stdio_stream@@@Z 00000001400367f0     libucrt:_flsbuf.obj
 0002:00012800       $unwind$??$common_lseek@_J@@YA_JH_JH@Z 0000000140036800     libucrt:lseek.obj
 0002:00012830       $unwind$_mbstowcs_s_l      0000000140036830     libucrt:mbstowcs.obj
 0002:00012848       $unwind$?_mbstowcs_l_helper@@YA_KPEA_WPEBD_KPEAU__crt_locale_pointers@@@Z 0000000140036848     libucrt:mbstowcs.obj
 0002:00012860       $unwind$?_wcstombs_l_helper@@YA_KPEADPEB_W_KPEAU__crt_locale_pointers@@@Z 0000000140036860     libucrt:wcstombs.obj
 0002:00012884       $stateUnwindMap$?_wcstombs_l_helper@@YA_KPEADPEB_W_KPEAU__crt_locale_pointers@@@Z 0000000140036884     libucrt:wcstombs.obj
 0002:00012890       $ip2state$?_wcstombs_l_helper@@YA_KPEADPEB_W_KPEAU__crt_locale_pointers@@@Z 0000000140036890     libucrt:wcstombs.obj
 0002:000128a8       $unwind$_isctype_l         00000001400368a8     libucrt:isctype.obj
 0002:000128c0       $unwind$__acrt_GetLocaleInfoA 00000001400368c0     libucrt:getlocaleinfoa.obj
 0002:000128e0       $unwind$?InternalGetLocaleInfoA@@YAHQEAU__crt_locale_pointers@@QEB_WKQEADH@Z 00000001400368e0     libucrt:getlocaleinfoa.obj
 0002:00012908       $unwind$__acrt_GetStringTypeA 0000000140036908     libucrt:getstringtypea.obj
 0002:00012930       $unwind$__acrt_LCMapStringA 0000000140036930     libucrt:lcmapstringa.obj
 0002:00012940       $unwind$?__acrt_LCMapStringA_stat@@YAHPEAU__crt_locale_pointers@@PEB_WKPEBDHPEADHHH@Z 0000000140036940     libucrt:lcmapstringa.obj
 0002:00012968       $unwind$iswctype           0000000140036968     libucrt:iswctype.obj
 0002:00012974       $unwind$_raise_exc_ex      0000000140036974     libucrt:fpexcept.obj
 0002:00012988       $unwind$_ctrlfp            0000000140036988     libucrt:fpctrl.obj
 0002:000129b0       $unwind$__acrt_initialize_fma3 00000001400369b0     libucrt:fma3_available.obj
 0002:000129b8       $unwind$_powf_special      00000001400369b8     libucrt:pow_special.obj
 0002:000129c8       $unwind$_pow_special       00000001400369c8     libucrt:pow_special.obj
 0002:000129d4       $unwind$_strnicmp_l        00000001400369d4     libucrt:strnicmp.obj
 0002:000129d4       $unwind$__dcrt_write_console 00000001400369d4     libucrt:initcon.obj
 0002:000129d4       $unwind$_wcsicmp_l         00000001400369d4     libucrt:wcsicmp.obj
 0002:000129e8       $unwind$??$common_expand_argv_wildcards@D@@YAHQEAPEADQEAPEAPEAD@Z 00000001400369e8     libucrt:argv_wildcards.obj
 0002:00012a00       $unwind$??$expand_argument_wildcards@D@@YAHQEAD0AEAV?$argument_list@D@?A0x5f5c8891@@@Z 0000000140036a00     libucrt:argv_wildcards.obj
 0002:00012a20       $unwind$__acrt_GetModuleFileNameA 0000000140036a20     libucrt:getmodulefilenamea.obj
 0002:00012a38       $unwind$_setmbcp_nolock    0000000140036a38     libucrt:mbctype.obj
 0002:00012a58       $unwind$?update_thread_multibyte_data_internal@@YAPEAU__crt_multibyte_data@@QEAU__acrt_ptd@@QEAPEAU1@@Z 0000000140036a58     libucrt:mbctype.obj
 0002:00012a80       $unwind$?setmbcp_internal@@YAHH_NQEAU__acrt_ptd@@QEAPEAU__crt_multibyte_data@@@Z 0000000140036a80     libucrt:mbctype.obj
 0002:00012a90       $unwind$?setSBUpLow@@YAXPEAU__crt_multibyte_data@@@Z 0000000140036a90     libucrt:mbctype.obj
 0002:00012aac       $unwind$??$?RV<lambda_efdfa57d1f175319df784efa44bb7b81>@@AEAV<lambda_5f0a4c1567f8adc6734073e5d1e1b35c>@@V<lambda_2e8a7d3640ea6ccb4c2413664c2db6fd>@@@?$__crt_seh_guarded_call@X@@QEAAX$$QEAV<lambda_efdfa57d1f175319df784efa44bb7b81>@@AEAV<lambda_5f0a4c1567f8adc6734073e5d1e1b35c>@@$$QEAV<lambda_2e8a7d3640ea6ccb4c2413664c2db6fd>@@@Z 0000000140036aac     libucrt:mbctype.obj
 0002:00012ad0       $unwind$??$common_set_variable_in_environment_nolock@D@@YAHQEADH@Z 0000000140036ad0     libucrt:setenv.obj
 0002:00012ae8       $unwind$??$copy_environment@D@@YAPEAPEADQEAPEAD@Z 0000000140036ae8     libucrt:setenv.obj
 0002:00012afc       $unwind$__acrt_lowio_destroy_handle_array 0000000140036afc     libucrt:osfinfo.obj
 0002:00012b0c       $unwind$__acrt_lowio_ensure_fh_exists 0000000140036b0c     libucrt:osfinfo.obj
 0002:00012b38       $unwind$?initialize_lc_time@@YA_NQEAU__crt_lc_time_data@@QEAU__crt_locale_data@@@Z 0000000140036b38     libucrt:inittime.obj
 0002:00012b38       $unwind$__acrt_locale_initialize_monetary 0000000140036b38     libucrt:initmon.obj
 0002:00012b54       $unwind$__acrt_locale_free_monetary 0000000140036b54     libucrt:initmon.obj
 0002:00012b5c       $unwind$__acrt_locale_free_time 0000000140036b5c     libucrt:inittime.obj
 0002:00012b6c       $unwind$__acrt_update_thread_locale_data 0000000140036b6c     libucrt:locale_refcounting.obj
 0002:00012b90       $unwind$LangCountryEnumProcEx 0000000140036b90     libucrt:get_qualified_locale.obj
 0002:00012bb0       $unwind$LanguageEnumProcEx 0000000140036bb0     libucrt:get_qualified_locale.obj
 0002:00012bcc       $unwind$GetLocaleNameFromDefault 0000000140036bcc     libucrt:get_qualified_locale.obj
 0002:00012be4       $unwind$TestDefaultCountry 0000000140036be4     libucrt:get_qualified_locale.obj
 0002:00012bf8       $unwind$__acrt_get_qualified_locale_downlevel 0000000140036bf8     libucrt:getqloc_downlevel.obj
 0002:00012c14       $unwind$LangCountryEnumProc 0000000140036c14     libucrt:getqloc_downlevel.obj
 0002:00012c34       $unwind$LanguageEnumProc   0000000140036c34     libucrt:getqloc_downlevel.obj
 0002:00012c50       $unwind$CountryEnumProc    0000000140036c50     libucrt:getqloc_downlevel.obj
 0002:00012c70       $unwind$?GetTableIndexFromLocaleName@@YAHPEB_W@Z 0000000140036c70     libucrt:lcidtoname_downlevel.obj
 0002:00012c88       $unwind$?__mbsrtowcs_utf8@__crt_mbstring@@YA_KPEA_WPEAPEBD_KPEAU_Mbstatet@@@Z 0000000140036c88     libucrt:mbrtowc.obj
 0002:00012ca0       $unwind$__acrt_fltout      0000000140036ca0     libucrt:cfout.obj
 0002:00012cc0       $unwind$_putwch_nolock     0000000140036cc0     libucrt:putwch.obj
 0002:00012cc8       $unwind$_read              0000000140036cc8     libucrt:read.obj
 0002:00012cf8       $unwind$_read_nolock       0000000140036cf8     libucrt:read.obj
 0002:00012d10       $unwind$??$translate_text_mode_nolock@D@@YAHHQEAD_K@Z 0000000140036d10     libucrt:read.obj
 0002:00012d28       $unwind$??$translate_text_mode_nolock@_W@@YAHHQEA_W_K@Z 0000000140036d28     libucrt:read.obj
 0002:00012d40       $unwind$?__wcsrtombs_utf8@__crt_mbstring@@YA_KPEADPEAPEB_W_KPEAU_Mbstatet@@@Z 0000000140036d40     libucrt:wcrtomb.obj
 0002:00012d60       $unwind$__acrt_fenv_set_control 0000000140036d60     libucrt:_fenvutils.obj
 0002:00012d70       $xdatasym                  0000000140036d70     libucrt:fpsr.obj
 0002:00012d78       $unwind$_call_matherr      0000000140036d78     libucrt:libm_error.obj
 0002:00012d80       $unwind$_handle_error      0000000140036d80     libucrt:libm_error.obj
 0002:00012d80       $unwind$_handle_errorf     0000000140036d80     libucrt:libm_error.obj
 0002:00012da0       $unwind$_towlower_l        0000000140036da0     libucrt:towlower.obj
 0002:00012da8       $unwind$qsort              0000000140036da8     libucrt:qsort.obj
 0002:00012dc0       $chain$4$qsort             0000000140036dc0     libucrt:qsort.obj
 0002:00012de4       $chain$5$qsort             0000000140036de4     libucrt:qsort.obj
 0002:00012df4       $unwind$fallbackMethod     0000000140036df4     libucrt:strpbrk.obj
 0002:00012e04       $unwind$__acrt_FindFirstFileExA 0000000140036e04     libucrt:findfirstfileexa.obj
 0002:00012e14       $unwind$??$__acrt_convert_wcs_mbs@D_W$$A6A_KPEA_WPEBD_KPEAU__crt_locale_pointers@@@ZU__crt_win32_buffer_internal_dynamic_resizing@@@@YAHQEBDAEAV?$__crt_win32_buffer@_WU__crt_win32_buffer_internal_dynamic_resizing@@@@A6A_KPEA_WPEBD_KPEAU__crt_locale_pointers@@@Z5@Z 0000000140036e14     libucrt:findfirstfileexa.obj
 0002:00012e2c       $unwind$__acrt_FindNextFileA 0000000140036e2c     libucrt:findnextfilea.obj
 0002:00012e48       $unwind$_mbsdec_l          0000000140036e48     libucrt:mbsdec.obj
 0002:00012e54       $unwind$_strnicoll_l       0000000140036e54     libucrt:strnicol.obj
 0002:00012e68       $unwind$__acrt_SetEnvironmentVariableA 0000000140036e68     libucrt:setenvironmentvariablea.obj
 0002:00012e84       $unwind$?__mbrtoc32_utf8@__crt_mbstring@@YA_KPEA_UPEBD_KPEAU_Mbstatet@@@Z 0000000140036e84     libucrt:mbrtoc32.obj
 0002:00012ea0       $xdatasym                  0000000140036ea0     libucrt:log10.obj
 0002:00012eac       $unwind$__acrt_CompareStringA 0000000140036eac     libucrt:comparestringa.obj
 0002:00012ebc       $unwind$?InternalCompareStringA@@YAHPEAU__crt_locale_pointers@@PEB_WKPEBDH2HH@Z 0000000140036ebc     libucrt:comparestringa.obj
 0002:00012ee0       $unwind$_log_special_common 0000000140036ee0     libucrt:log_special.obj
 0002:00012eec       $unwind$_IsNonwritableInCurrentImage 0000000140036eec     LIBCMT:pesect.obj
 0002:00012f10       $unwind$strrchr            0000000140036f10     libvcruntime:strrchr.obj
 0002:00012f10       $unwind$wcschr             0000000140036f10     libvcruntime:wcschr.obj
 0002:00012f10       $unwind$strchr             0000000140036f10     libvcruntime:strchr.obj
 0002:000134aa       .idata$6                   00000001400374aa     kernel32:KERNEL32.dll
 0003:00000000       ?init@std@@3JA             0000000140038000     libcpmt:xlock.obj
 0003:00000010       ?atcount_cdecl@@3_KA       0000000140038010     libcpmt:iosptrs.obj
 0003:000000c0       ?__vcrt_flsindex@@3KA      00000001400380c0     libvcruntime:per_thread_data.obj
 0003:000001e8       ?errno_no_memory@@3HA      00000001400381e8     libucrt:errno.obj
 0003:000001ec       ?doserrno_no_memory@@3KA   00000001400381ec     libucrt:errno.obj
 0003:000002b0       _ctype_loc_style           00000001400382b0     libucrt:wsetlocale.obj
 0003:00000300       ?__acrt_flsindex@@3KA      0000000140038300     libucrt:per_thread_data.obj
 0003:00000480       ?dazSupported@?1??_ctrlfp@@9@9 0000000140038480     libucrt:fpctrl.obj
 0003:00000490       ?tzstd_program@@3PADA      0000000140038490     libucrt:timeset.obj
 0003:000004d0       ?tzdst_program@@3PADA      00000001400384d0     libucrt:timeset.obj
 0003:00000510       ?tzname_states@@3PAY01PEADA 0000000140038510     libucrt:timeset.obj
 0003:00000520       ?__rgctypeflag@@3PADA      0000000140038520     libucrt:mbctype.obj
 0003:00000530       ?__rgcode_page_info@@3PAUcode_page_info@@A 0000000140038530     libucrt:mbctype.obj
 0003:00000850       _mbctypes                  0000000140038850     libucrt:mbctype.obj
 0003:00000960       _mbcasemaps                0000000140038960     libucrt:mbctype.obj
 0003:00000b60       ?__dcrt_lowio_console_output_handle@@3PEAXEA 0000000140038b60     libucrt:initcon.obj
 0003:00001120       ?initlocks@std@@3V_Init_locks@1@A 0000000140039120     libcpmt:xlock.obj
 0003:00001130       ?mtx@std@@3PAU_RTL_CRITICAL_SECTION@@A 0000000140039130     libcpmt:xlock.obj
 0003:00001270       ?initlocks@@3V_Init_locks@std@@A 0000000140039270     libcpmt:cout.obj
 0003:00001271       ?init_cout@std@@3U_Init_cout@1@A 0000000140039271     libcpmt:cout.obj
 0003:000012f0       ?fout@std@@3V?$basic_filebuf@DU?$char_traits@D@std@@@1@A 00000001400392f0     libcpmt:cout.obj
 0003:000013a0       ?_Fac_head@std@@3PEAU_Fac_node@1@EA 00000001400393a0     libcpmt:locale0.obj
 0003:000013b8       global_locale              00000001400393b8     libcpmt:locale0.obj
 0003:000013e0       ?classic_locale@std@@3Vlocale@1@A 00000001400393e0     libcpmt:locale0.obj
 0003:000013f8       ?_Fac_tidy_reg@std@@3U_Fac_tidy_reg_t@1@B 00000001400393f8     libcpmt:locale0.obj
 0003:000013f9       ?registered@?1??_Setgloballocale@locale@std@@CAXPEAX@Z@4_NA 00000001400393f9     libcpmt:locale0.obj
 0003:00001400       ?initlocks@@3V_Init_locks@std@@A 0000000140039400     libcpmt:cin.obj
 0003:00001401       ?init_cin@std@@3U_Init_cin@1@A 0000000140039401     libcpmt:cin.obj
 0003:00001410       ?fin@std@@3V?$basic_filebuf@DU?$char_traits@D@std@@@1@A 0000000140039410     libcpmt:cin.obj
 0003:00001670       ?stdstr@std@@3PAPEAVios_base@1@A 0000000140039670     libcpmt:ios.obj
 0003:000016c0       ?stdopens@std@@3PADA       00000001400396c0     libcpmt:ios.obj
 0003:00001710       ?atfuns_cdecl@@3PAP6AXXZA  0000000140039710     libcpmt:iosptrs.obj
 0003:00001760       ?initlocks@std@@3V_Init_locks@1@A 0000000140039760     libcpmt:iosptrs.obj
 0003:00001761       ?init_atexit@@3U_Init_atexit@@A 0000000140039761     libcpmt:iosptrs.obj
 0003:00001874       ?module_local_atexit_table_initialized@@3_NA 0000000140039874     LIBCMT:utility.obj
 0003:00001880       ?module_local_atexit_table@@3U_onexit_table_t@@A 0000000140039880     LIBCMT:utility.obj
 0003:00001898       ?module_local_at_quick_exit_table@@3U_onexit_table_t@@A 0000000140039898     LIBCMT:utility.obj
 0003:000018b0       ?is_initialized_as_dll@@3_NA 00000001400398b0     LIBCMT:utility.obj
 0003:000018c0       GS_ExceptionRecord         00000001400398c0     LIBCMT:gs_report.obj
 0003:00001960       GS_ContextRecord           0000000140039960     LIBCMT:gs_report.obj
 0003:00001e60       ?__vcrt_startup_thread_ptd@@3U__vcrt_ptd@@A 0000000140039e60     libvcruntime:per_thread_data.obj
 0003:00001ed8       __vcrt_lock_table          0000000140039ed8     libvcruntime:locks.obj
 0003:00001f00       __vcrt_locks_initialized   0000000140039f00     libvcruntime:locks.obj
 0003:00001f08       ?module_handles@@3PAPEAUHINSTANCE__@@A 0000000140039f08     libvcruntime:winapi_downlevel.obj
 0003:00001f20       ?encoded_function_pointers@@3PAPEAXA 0000000140039f20     libvcruntime:winapi_downlevel.obj
 0003:00001f88       ?heap@@3V_HeapManager@@A   0000000140039f88     libvcruntime:undname.obj
 0003:00001fc8       ?__acrt_invalid_parameter_handler@@3V?$dual_state_global@P6AXPEB_W00I_K@Z@__crt_state_management@@A 0000000140039fc8     libucrt:invalid_parameter.obj
 0003:00001fd0       ?__acrt_lock_table@@3PAU_RTL_CRITICAL_SECTION@@A 0000000140039fd0     libucrt:locks.obj
 0003:00002200       ?__acrt_locks_initialized@@3IA 000000014003a200     libucrt:locks.obj
 0003:00002210       ?__acrt_new_handler@@3V?$dual_state_global@P6AH_K@Z@__crt_state_management@@A 000000014003a210     libucrt:new_handler.obj
 0003:00002218       ?__acrt_app_type@@3W4_crt_app_type@@A 000000014003a218     libucrt:report_runtime_error.obj
 0003:00002220       ?user_matherr@@3V?$dual_state_global@P6AHPEAU_exception@@@Z@__crt_state_management@@A 000000014003a220     libucrt:matherr.obj
 0003:00002230       ?program_name@?1???$common_configure_argv@D@@YAHW4_crt_argv_mode@@@Z@4PADA 000000014003a230     libucrt:argv_parsing.obj
 0003:00002358       ?c_termination_complete@@3JA 000000014003a358     libucrt:exit.obj
 0003:00002360       ?thread_local_exit_callback_func@@3P6AXPEAXK0@ZEA 000000014003a360     libucrt:exit.obj
 0003:0000239c       ?__acrt_global_new_mode@@3V?$dual_state_global@J@__crt_state_management@@A 000000014003a39c     libucrt:new_mode.obj
 0003:000023d8       ?ctrlc_action@@3V?$dual_state_global@P6AXH@Z@__crt_state_management@@A 000000014003a3d8     libucrt:signal.obj
 0003:000023e0       ?ctrlbreak_action@@3V?$dual_state_global@P6AXH@Z@__crt_state_management@@A 000000014003a3e0     libucrt:signal.obj
 0003:000023e8       ?abort_action@@3V?$dual_state_global@P6AXH@Z@__crt_state_management@@A 000000014003a3e8     libucrt:signal.obj
 0003:000023f0       ?term_action@@3V?$dual_state_global@P6AXH@Z@__crt_state_management@@A 000000014003a3f0     libucrt:signal.obj
 0003:00002400       ?module_handles@@3PAPEAUHINSTANCE__@@A 000000014003a400     libucrt:winapi_thunks.obj
 0003:000024a0       ?encoded_function_pointers@@3PAPEAXA 000000014003a4a0     libucrt:winapi_thunks.obj
 0003:000025b0       ?static_enum_proc@?1??enum_system_locales_ex_nolock@@YAHQ6AHPEA_WK_J@Z@Z@4P6AH0K1@ZEA 000000014003a5b0     libucrt:winapi_thunks.obj
 0003:000029c8       ?internal_state@?1??_mbtowc_l@@9@4U_Mbstatet@@A 000000014003a9c8     libucrt:mbtowc.obj
 0003:000029d0       ?enable_percent_n@@3_KA    000000014003a9d0     libucrt:printf_count_output.obj
 0003:00002a08       ?_tzname@@3V?$dual_state_global@PEAPEAD@__crt_state_management@@A 000000014003aa08     libucrt:timeset.obj
 0003:00002a10       ?tz_api_used@@3HA          000000014003aa10     libucrt:tzset.obj
 0003:00002a20       ?tz_info@@3U_TIME_ZONE_INFORMATION@@A 000000014003aa20     libucrt:tzset.obj
 0003:00002ae8       ?fSystemSet@@3HA           000000014003aae8     libucrt:mbctype.obj
 0003:00002aec       ?initialized@?1??__acrt_initialize_multibyte@@9@4_NA 000000014003aaec     libucrt:mbctype.obj
 0003:00002b00       ?internal_pst@?1??__mbrtoc32_utf8@__crt_mbstring@@YA_KPEA_UPEBD_KPEAU_Mbstatet@@@Z@4U3@A 000000014003ab00     libucrt:mbrtoc32.obj
 0003:00002b08       ?internal_pst@?1??__c16rtomb_utf8@__crt_mbstring@@YA_KPEAD_SPEAU_Mbstatet@@@Z@4U3@A 000000014003ab08     libucrt:c16rtomb.obj
 0004:00000000       $pdata$??__Einitlocks@std@@YAXXZ 000000014003b000     libcpmt:xlock.obj
 0004:0000000c       $pdata$??__Ecout@std@@YAXXZ 000000014003b00c     libcpmt:cout.obj
 0004:00000018       $pdata$??__Efout@std@@YAXXZ 000000014003b018     libcpmt:cout.obj
 0004:00000024       $pdata$??__Einitlocks@@YAXXZ 000000014003b024     libcpmt:cout.obj
 0004:00000030       $pdata$??__Ecin@std@@YAXXZ 000000014003b030     libcpmt:cin.obj
 0004:0000003c       $pdata$??__Efin@std@@YAXXZ 000000014003b03c     libcpmt:cin.obj
 0004:00000048       $pdata$??__Einitlocks@@YAXXZ 000000014003b048     libcpmt:cin.obj
 0004:00000054       $pdata$??__Einitlocks@std@@YAXXZ 000000014003b054     libcpmt:iosptrs.obj
 0004:00000060       $pdata$printf              000000014003b060     main.obj
 0004:0000006c       $pdata$?_Raise@exception@stdext@@QEBAXXZ 000000014003b06c     main.obj
 0004:00000078       $pdata$??_Gruntime_error@std@@UEAAPEAXI@Z 000000014003b078     main.obj
 0004:00000078       $pdata$??_Gexception@stdext@@UEAAPEAXI@Z 000000014003b078     main.obj
 0004:00000084       $pdata$??0_Locinfo@std@@QEAA@PEBD@Z 000000014003b084     main.obj
 0004:00000090       $pdata$??1_Locinfo@std@@QEAA@XZ 000000014003b090     main.obj
 0004:0000009c       $pdata$??_G_Facet_base@std@@UEAAPEAXI@Z 000000014003b09c     main.obj
 0004:000000a8       $pdata$?do_tolower@?$ctype@D@std@@MEBAPEBDPEADPEBD@Z 000000014003b0a8     main.obj
 0004:000000b4       $pdata$0$?do_tolower@?$ctype@D@std@@MEBAPEBDPEADPEBD@Z 000000014003b0b4     main.obj
 0004:000000c0       $pdata$1$?do_tolower@?$ctype@D@std@@MEBAPEBDPEADPEBD@Z 000000014003b0c0     main.obj
 0004:000000cc       $pdata$?do_toupper@?$ctype@D@std@@MEBAPEBDPEADPEBD@Z 000000014003b0cc     main.obj
 0004:000000d8       $pdata$0$?do_toupper@?$ctype@D@std@@MEBAPEBDPEADPEBD@Z 000000014003b0d8     main.obj
 0004:000000e4       $pdata$1$?do_toupper@?$ctype@D@std@@MEBAPEBDPEADPEBD@Z 000000014003b0e4     main.obj
 0004:000000f0       $pdata$?do_widen@?$ctype@D@std@@MEBAPEBDPEBD0PEAD@Z 000000014003b0f0     main.obj
 0004:000000fc       $pdata$?do_narrow@?$ctype@D@std@@MEBAPEBDPEBD0DPEAD@Z 000000014003b0fc     main.obj
 0004:00000108       $pdata$??_G?$ctype@D@std@@MEAAPEAXI@Z 000000014003b108     main.obj
 0004:00000114       $pdata$?equivalent@error_category@std@@UEBA_NHAEBVerror_condition@2@@Z 000000014003b114     main.obj
 0004:00000120       $pdata$?make_error_code@std@@YA?AVerror_code@1@W4io_errc@1@@Z 000000014003b120     main.obj
 0004:0000012c       $pdata$?_Makestr@_System_error@std@@CA?AV?$basic_string@DU?$char_traits@D@std@@V?$allocator@D@2@@2@Verror_code@2@V32@@Z 000000014003b12c     main.obj
 0004:00000138       $pdata$0$?_Makestr@_System_error@std@@CA?AV?$basic_string@DU?$char_traits@D@std@@V?$allocator@D@2@@2@Verror_code@2@V32@@Z 000000014003b138     main.obj
 0004:00000144       $pdata$1$?_Makestr@_System_error@std@@CA?AV?$basic_string@DU?$char_traits@D@std@@V?$allocator@D@2@@2@Verror_code@2@V32@@Z 000000014003b144     main.obj
 0004:00000150       $pdata$??_G_System_error@std@@UEAAPEAXI@Z 000000014003b150     main.obj
 0004:00000150       $pdata$??_Gfailure@ios_base@std@@UEAAPEAXI@Z 000000014003b150     main.obj
 0004:0000015c       $pdata$?message@_Iostream_error_category@std@@UEBA?AV?$basic_string@DU?$char_traits@D@std@@V?$allocator@D@2@@2@H@Z 000000014003b15c     main.obj
 0004:00000168       $pdata$??_G_Iostream_error_category@std@@UEAAPEAXI@Z 000000014003b168     main.obj
 0004:00000174       $pdata$??0failure@ios_base@std@@QEAA@PEBDAEBVerror_code@2@@Z 000000014003b174     main.obj
 0004:00000180       $pdata$?clear@ios_base@std@@QEAAXH_N@Z 000000014003b180     main.obj
 0004:0000018c       $pdata$main                000000014003b18c     main.obj
 0004:00000198       $pdata$2$main              000000014003b198     main.obj
 0004:000001a4       $pdata$4$main              000000014003b1a4     main.obj
 0004:000001b0       $pdata$5$main              000000014003b1b0     main.obj
 0004:000001bc       $pdata$6$main              000000014003b1bc     main.obj
 0004:000001c8       $pdata$??1?$basic_string@DU?$char_traits@D@std@@V?$allocator@D@2@@std@@QEAA@XZ 000000014003b1c8     main.obj
 0004:000001d4       $pdata$??0?$basic_string@DU?$char_traits@D@std@@V?$allocator@D@2@@std@@QEAA@QEBD@Z 000000014003b1d4     main.obj
 0004:000001e0       $pdata$??0?$basic_string@DU?$char_traits@D@std@@V?$allocator@D@2@@std@@QEAA@AEBV01@@Z 000000014003b1e0     main.obj
 0004:000001ec       $pdata$?append@?$basic_string@DU?$char_traits@D@std@@V?$allocator@D@2@@std@@QEAAAEAV12@QEBD_K@Z 000000014003b1ec     main.obj
 0004:000001f8       $pdata$0$?append@?$basic_string@DU?$char_traits@D@std@@V?$allocator@D@2@@std@@QEAAAEAV12@QEBD_K@Z 000000014003b1f8     main.obj
 0004:00000204       $pdata$1$?append@?$basic_string@DU?$char_traits@D@std@@V?$allocator@D@2@@std@@QEAAAEAV12@QEBD_K@Z 000000014003b204     main.obj
 0004:00000210       $pdata$??$use_facet@V?$ctype@D@std@@@std@@YAAEBV?$ctype@D@0@AEBVlocale@0@@Z 000000014003b210     main.obj
 0004:0000021c       $pdata$??$?6U?$char_traits@D@std@@@std@@YAAEAV?$basic_ostream@DU?$char_traits@D@std@@@0@AEAV10@PEBD@Z 000000014003b21c     main.obj
 0004:00000228       $pdata$2$??$?6U?$char_traits@D@std@@@std@@YAAEAV?$basic_ostream@DU?$char_traits@D@std@@@0@AEAV10@PEBD@Z 000000014003b228     main.obj
 0004:00000234       $pdata$3$??$?6U?$char_traits@D@std@@@std@@YAAEAV?$basic_ostream@DU?$char_traits@D@std@@@0@AEAV10@PEBD@Z 000000014003b234     main.obj
 0004:00000240       $pdata$??$_Reallocate_grow_by@V<lambda_65e615be2a453ca0576c979606f46740>@@PEBD_K@?$basic_string@DU?$char_traits@D@std@@V?$allocator@D@2@@std@@QEAAAEAV01@_KV<lambda_65e615be2a453ca0576c979606f46740>@@PEBD_K@Z 000000014003b240     main.obj
 0004:0000024c       $pdata$3$??$_Reallocate_grow_by@V<lambda_65e615be2a453ca0576c979606f46740>@@PEBD_K@?$basic_string@DU?$char_traits@D@std@@V?$allocator@D@2@@std@@QEAAAEAV01@_KV<lambda_65e615be2a453ca0576c979606f46740>@@PEBD_K@Z 000000014003b24c     main.obj
 0004:00000258       $pdata$4$??$_Reallocate_grow_by@V<lambda_65e615be2a453ca0576c979606f46740>@@PEBD_K@?$basic_string@DU?$char_traits@D@std@@V?$allocator@D@2@@std@@QEAAAEAV01@_KV<lambda_65e615be2a453ca0576c979606f46740>@@PEBD_K@Z 000000014003b258     main.obj
 0004:00000264       $pdata$5$??$_Reallocate_grow_by@V<lambda_65e615be2a453ca0576c979606f46740>@@PEBD_K@?$basic_string@DU?$char_traits@D@std@@V?$allocator@D@2@@std@@QEAAAEAV01@_KV<lambda_65e615be2a453ca0576c979606f46740>@@PEBD_K@Z 000000014003b264     main.obj
 0004:00000270       $pdata$??0sentry@?$basic_ostream@DU?$char_traits@D@std@@@std@@QEAA@AEAV12@@Z 000000014003b270     main.obj
 0004:0000027c       $pdata$?_Xlen@?$basic_string@DU?$char_traits@D@std@@V?$allocator@D@2@@std@@SAXXZ 000000014003b27c     main.obj
 0004:00000288       $pdata$?flush@?$basic_ostream@DU?$char_traits@D@std@@@std@@QEAAAEAV12@XZ 000000014003b288     main.obj
 0004:00000294       $pdata$?put@?$basic_ostream@DU?$char_traits@D@std@@@std@@QEAAAEAV12@D@Z 000000014003b294     main.obj
 0004:000002a0       $pdata$?widen@?$basic_ios@DU?$char_traits@D@std@@@std@@QEBADD@Z 000000014003b2a0     main.obj
 0004:000002ac       $pdata$??$getline@DU?$char_traits@D@std@@V?$allocator@D@2@@std@@YAAEAV?$basic_istream@DU?$char_traits@D@std@@@0@$$QEAV10@AEAV?$basic_string@DU?$char_traits@D@std@@V?$allocator@D@2@@0@D@Z 000000014003b2ac     main.obj
 0004:000002b8       $pdata$?snextc@?$basic_streambuf@DU?$char_traits@D@std@@@std@@QEAAHXZ 000000014003b2b8     main.obj
 0004:000002c4       $pdata$?push_back@?$basic_string@DU?$char_traits@D@std@@V?$allocator@D@2@@std@@QEAAXD@Z 000000014003b2c4     main.obj
 0004:000002d0       $pdata$2$?push_back@?$basic_string@DU?$char_traits@D@std@@V?$allocator@D@2@@std@@QEAAXD@Z 000000014003b2d0     main.obj
 0004:000002dc       $pdata$4$?push_back@?$basic_string@DU?$char_traits@D@std@@V?$allocator@D@2@@std@@QEAAXD@Z 000000014003b2dc     main.obj
 0004:000002e8       $pdata$5$?push_back@?$basic_string@DU?$char_traits@D@std@@V?$allocator@D@2@@std@@QEAAXD@Z 000000014003b2e8     main.obj
 0004:000002f4       $pdata$??0_Init_locks@std@@QEAA@XZ 000000014003b2f4     libcpmt:xlock.obj
 0004:00000300       $pdata$??0_Lockit@std@@QEAA@H@Z 000000014003b300     libcpmt:xlock.obj
 0004:0000030c       $pdata$??1_Init_locks@std@@QEAA@XZ 000000014003b30c     libcpmt:xlock.obj
 0004:00000318       $pdata$??1_Lockit@std@@QEAA@XZ 000000014003b318     libcpmt:xlock.obj
 0004:00000324       $pdata$??$_Reallocate_for@V<lambda_138c3d7c38c85abb84c7fc7bfe5747b7>@@D@?$basic_string@DU?$char_traits@D@std@@V?$allocator@D@2@@std@@QEAAAEAV01@_KV<lambda_138c3d7c38c85abb84c7fc7bfe5747b7>@@D@Z 000000014003b324     libcpmt:xonce.obj
 0004:00000330       $pdata$??$_Reallocate_grow_by@V<lambda_e1befb086ad3257e3f042a63030725f7>@@_KD@?$basic_string@DU?$char_traits@D@std@@V?$allocator@D@2@@std@@QEAAAEAV01@_KV<lambda_e1befb086ad3257e3f042a63030725f7>@@_KD@Z 000000014003b330     libcpmt:xonce.obj
 0004:0000033c       $pdata$??0?$basic_string@DU?$char_traits@D@std@@V?$allocator@D@2@@std@@QEAA@_KD@Z 000000014003b33c     libcpmt:xonce.obj
 0004:00000348       $pdata$??0exception@std@@QEAA@AEBV01@@Z 000000014003b348     libcpmt:xonce.obj
 0004:00000354       $pdata$??_Gbad_array_new_length@std@@UEAAPEAXI@Z 000000014003b354     LIBCMT:throw_bad_alloc.obj
 0004:00000354       $pdata$??_Gbad_cast@std@@UEAAPEAXI@Z 000000014003b354     libcpmt:cout.obj
 0004:00000354       $pdata$??_Glength_error@std@@UEAAPEAXI@Z 000000014003b354     libcpmt:xthrow.obj
 0004:00000354       $pdata$??_Gbad_alloc@std@@UEAAPEAXI@Z 000000014003b354     libcpmt:xthrow.obj
 0004:00000354       $pdata$??_Glogic_error@std@@UEAAPEAXI@Z 000000014003b354     libcpmt:xthrow.obj
 0004:00000354       $pdata$??_Gexception@std@@UEAAPEAXI@Z 000000014003b354     libcpmt:xonce.obj
 0004:00000354       $pdata$??_Gbad_exception@std@@UEAAPEAXI@Z 000000014003b354     libvcruntime:frame.obj
 0004:00000360       $pdata$?append@?$basic_string@DU?$char_traits@D@std@@V?$allocator@D@2@@std@@QEAAAEAV12@_KD@Z 000000014003b360     libcpmt:xonce.obj
 0004:0000036c       $pdata$??$use_facet@V?$codecvt@DDU_Mbstatet@@@std@@@std@@YAAEBV?$codecvt@DDU_Mbstatet@@@0@AEBVlocale@0@@Z 000000014003b36c     libcpmt:cout.obj
 0004:00000378       $pdata$??0?$basic_ostream@DU?$char_traits@D@std@@@std@@QEAA@PEAV?$basic_streambuf@DU?$char_traits@D@std@@@1@_N@Z 000000014003b378     libcpmt:cout.obj
 0004:00000384       $pdata$??0?$basic_streambuf@DU?$char_traits@D@std@@@std@@IEAA@XZ 000000014003b384     libcpmt:cout.obj
 0004:00000390       $pdata$??0bad_cast@std@@QEAA@AEBV01@@Z 000000014003b390     libcpmt:cout.obj
 0004:0000039c       $pdata$??1?$basic_filebuf@DU?$char_traits@D@std@@@std@@UEAA@XZ 000000014003b39c     libcpmt:cout.obj
 0004:000003a8       $pdata$??1?$basic_ios@DU?$char_traits@D@std@@@std@@UEAA@XZ 000000014003b3a8     libcpmt:cout.obj
 0004:000003b4       $pdata$??1?$basic_streambuf@DU?$char_traits@D@std@@@std@@UEAA@XZ 000000014003b3b4     libcpmt:cout.obj
 0004:000003c0       $pdata$??_G?$basic_filebuf@DU?$char_traits@D@std@@@std@@UEAAPEAXI@Z 000000014003b3c0     libcpmt:cout.obj
 0004:000003cc       $pdata$??_G?$basic_ios@DU?$char_traits@D@std@@@std@@UEAAPEAXI@Z 000000014003b3cc     libcpmt:cout.obj
 0004:000003d8       $pdata$??_G?$basic_ostream@DU?$char_traits@D@std@@@std@@UEAAPEAXI@Z 000000014003b3d8     libcpmt:cout.obj
 0004:000003e4       $pdata$??_G?$basic_streambuf@DU?$char_traits@D@std@@@std@@UEAAPEAXI@Z 000000014003b3e4     libcpmt:cout.obj
 0004:000003f0       $pdata$??_G?$codecvt@DDU_Mbstatet@@@std@@MEAAPEAXI@Z 000000014003b3f0     libcpmt:cout.obj
 0004:000003fc       $pdata$??_Gios_base@std@@UEAAPEAXI@Z 000000014003b3fc     libcpmt:cout.obj
 0004:00000408       $pdata$?_Endwrite@?$basic_filebuf@DU?$char_traits@D@std@@@std@@IEAA_NXZ 000000014003b408     libcpmt:cout.obj
 0004:00000414       $pdata$?_Getcat@?$codecvt@DDU_Mbstatet@@@std@@SA_KPEAPEBVfacet@locale@2@PEBV42@@Z 000000014003b414     libcpmt:cout.obj
 0004:00000420       $pdata$?_Init@?$basic_filebuf@DU?$char_traits@D@std@@@std@@IEAAXPEAU_iobuf@@W4_Initfl@12@@Z 000000014003b420     libcpmt:cout.obj
 0004:0000042c       $pdata$?_Init@ios_base@std@@IEAAXXZ 000000014003b42c     libcpmt:cout.obj
 0004:00000438       $pdata$?_Initcvt@?$basic_filebuf@DU?$char_traits@D@std@@@std@@IEAAXAEBV?$codecvt@DDU_Mbstatet@@@2@@Z 000000014003b438     libcpmt:cout.obj
 0004:00000444       $pdata$?_Lock@?$basic_filebuf@DU?$char_traits@D@std@@@std@@UEAAXXZ 000000014003b444     libcpmt:cout.obj
 0004:00000450       $pdata$?_Unlock@?$basic_filebuf@DU?$char_traits@D@std@@@std@@UEAAXXZ 000000014003b450     libcpmt:cout.obj
 0004:0000045c       $pdata$?imbue@?$basic_filebuf@DU?$char_traits@D@std@@@std@@MEAAXAEBVlocale@2@@Z 000000014003b45c     libcpmt:cout.obj
 0004:00000468       $pdata$?overflow@?$basic_filebuf@DU?$char_traits@D@std@@@std@@MEAAHH@Z 000000014003b468     libcpmt:cout.obj
 0004:00000474       $pdata$?pbackfail@?$basic_filebuf@DU?$char_traits@D@std@@@std@@MEAAHH@Z 000000014003b474     libcpmt:cout.obj
 0004:00000480       $pdata$?seekoff@?$basic_filebuf@DU?$char_traits@D@std@@@std@@MEAA?AV?$fpos@U_Mbstatet@@@2@_JHH@Z 000000014003b480     libcpmt:cout.obj
 0004:0000048c       $pdata$?seekpos@?$basic_filebuf@DU?$char_traits@D@std@@@std@@MEAA?AV?$fpos@U_Mbstatet@@@2@V32@H@Z 000000014003b48c     libcpmt:cout.obj
 0004:00000498       $pdata$?setbuf@?$basic_filebuf@DU?$char_traits@D@std@@@std@@MEAAPEAV?$basic_streambuf@DU?$char_traits@D@std@@@2@PEAD_J@Z 000000014003b498     libcpmt:cout.obj
 0004:000004a4       $pdata$?sync@?$basic_filebuf@DU?$char_traits@D@std@@@std@@MEAAHXZ 000000014003b4a4     libcpmt:cout.obj
 0004:000004b0       $pdata$?uflow@?$basic_filebuf@DU?$char_traits@D@std@@@std@@MEAAHXZ 000000014003b4b0     libcpmt:cout.obj
 0004:000004bc       $pdata$?uflow@?$basic_streambuf@DU?$char_traits@D@std@@@std@@MEAAHXZ 000000014003b4bc     libcpmt:cout.obj
 0004:000004c8       $pdata$?underflow@?$basic_filebuf@DU?$char_traits@D@std@@@std@@MEAAHXZ 000000014003b4c8     libcpmt:cout.obj
 0004:000004d4       $pdata$?xsgetn@?$basic_streambuf@DU?$char_traits@D@std@@@std@@MEAA_JPEAD_J@Z 000000014003b4d4     libcpmt:cout.obj
 0004:000004e0       $pdata$?xsputn@?$basic_streambuf@DU?$char_traits@D@std@@@std@@MEAA_JPEBD_J@Z 000000014003b4e0     libcpmt:cout.obj
 0004:000004ec       $pdata$??1_Fac_tidy_reg_t@std@@QEAA@XZ 000000014003b4ec     libcpmt:locale0.obj
 0004:000004f8       $pdata$??4?$_Yarn@D@std@@QEAAAEAV01@PEBD@Z 000000014003b4f8     libcpmt:locale0.obj
 0004:00000504       $pdata$??_G_Locimp@locale@std@@MEAAPEAXI@Z 000000014003b504     libcpmt:locale0.obj
 0004:00000510       $pdata$?_Facet_Register@std@@YAXPEAV_Facet_base@1@@Z 000000014003b510     libcpmt:locale0.obj
 0004:0000051c       $pdata$?_Init@locale@std@@CAPEAV_Locimp@12@_N@Z 000000014003b51c     libcpmt:locale0.obj
 0004:00000528       $pdata$?_Locimp_dtor@_Locimp@locale@std@@CAXPEAV123@@Z 000000014003b528     libcpmt:locale0.obj
 0004:00000534       $pdata$?_Locinfo_ctor@_Locinfo@std@@SAXPEAV12@PEBD@Z 000000014003b534     libcpmt:locale0.obj
 0004:00000540       $pdata$?_Locinfo_dtor@_Locinfo@std@@SAXPEAV12@@Z 000000014003b540     libcpmt:locale0.obj
 0004:0000054c       $pdata$?_New_Locimp@_Locimp@locale@std@@CAPEAV123@_N@Z 000000014003b54c     libcpmt:locale0.obj
 0004:00000558       $pdata$_Deletegloballocale 000000014003b558     libcpmt:locale0.obj
 0004:00000564       $pdata$tidy_global         000000014003b564     libcpmt:locale0.obj
 0004:00000570       $pdata$??0?$basic_istream@DU?$char_traits@D@std@@@std@@QEAA@PEAV?$basic_streambuf@DU?$char_traits@D@std@@@1@_N@Z 000000014003b570     libcpmt:cin.obj
 0004:0000057c       $pdata$??_G?$basic_istream@DU?$char_traits@D@std@@@std@@UEAAPEAXI@Z 000000014003b57c     libcpmt:cin.obj
 0004:00000588       $pdata$??0bad_alloc@std@@QEAA@AEBV01@@Z 000000014003b588     libcpmt:xthrow.obj
 0004:00000594       $pdata$??0length_error@std@@QEAA@AEBV01@@Z 000000014003b594     libcpmt:xthrow.obj
 0004:000005a0       $pdata$??0length_error@std@@QEAA@PEBD@Z 000000014003b5a0     libcpmt:xthrow.obj
 0004:000005ac       $pdata$??0logic_error@std@@QEAA@AEBV01@@Z 000000014003b5ac     libcpmt:xthrow.obj
 0004:000005b8       $pdata$?_Xlength_error@std@@YAXPEBD@Z 000000014003b5b8     libcpmt:xthrow.obj
 0004:000005c4       $pdata$_Getctype           000000014003b5c4     libcpmt:_tolower.obj
 0004:000005d0       $pdata$_Tolower            000000014003b5d0     libcpmt:_tolower.obj
 0004:000005dc       $pdata$_Toupper            000000014003b5dc     libcpmt:_toupper.obj
 0004:000005e8       $pdata$?initialize_pointers@@YAHXZ 000000014003b5e8     libcpmt:winapisupp.obj
 0004:000005f4       $pdata$__crtInitOnceExecuteOnce 000000014003b5f4     libcpmt:winapisupp.obj
 0004:00000600       $pdata$__crtInitializeCriticalSectionEx 000000014003b600     libcpmt:winapisupp.obj
 0004:0000060c       $pdata$?_Addstd@ios_base@std@@SAXPEAV12@@Z 000000014003b60c     libcpmt:ios.obj
 0004:00000618       $pdata$?_Ios_base_dtor@ios_base@std@@CAXPEAV12@@Z 000000014003b618     libcpmt:ios.obj
 0004:00000624       $pdata$?_Tidy@ios_base@std@@AEAAXXZ 000000014003b624     libcpmt:ios.obj
 0004:00000630       $pdata$?_Atexit@@YAXP6AXXZ@Z 000000014003b630     libcpmt:iosptrs.obj
 0004:0000063c       $pdata$__crtLCMapStringA   000000014003b63c     libcpmt:StlLCMapStringA.obj
 0004:00000648       $pdata$GetTableIndexFromLocaleName 000000014003b648     libcpmt:winapinls.obj
 0004:00000654       $pdata$__crtDownlevelLocaleNameToLCID 000000014003b654     libcpmt:winapinls.obj
 0004:00000660       $pdata$__crtLCMapStringEx  000000014003b660     libcpmt:winapinls.obj
 0004:00000678       $pdata$??2@YAPEAX_K@Z      000000014003b678     LIBCMT:new_scalar.obj
 0004:00000684       $pdata$?pre_c_initialization@@YAHXZ 000000014003b684     LIBCMT:exe_main.obj
 0004:00000690       $pdata$?post_pgo_initialization@@YAHXZ 000000014003b690     LIBCMT:exe_main.obj
 0004:0000069c       $pdata$?pre_cpp_initialization@@YAXXZ 000000014003b69c     LIBCMT:exe_main.obj
 0004:000006a8       $pdata$?__scrt_common_main_seh@@YAHXZ 000000014003b6a8     LIBCMT:exe_main.obj
 0004:000006b4       $pdata$mainCRTStartup      000000014003b6b4     LIBCMT:exe_main.obj
 0004:000006c0       $pdata$__scrt_acquire_startup_lock 000000014003b6c0     LIBCMT:utility.obj
 0004:000006cc       $pdata$__scrt_initialize_crt 000000014003b6cc     LIBCMT:utility.obj
 0004:000006d8       $pdata$__scrt_initialize_onexit_tables 000000014003b6d8     LIBCMT:utility.obj
 0004:000006e4       $pdata$__scrt_is_nonwritable_in_current_image 000000014003b6e4     LIBCMT:utility.obj
 0004:000006f0       $pdata$__scrt_release_startup_lock 000000014003b6f0     LIBCMT:utility.obj
 0004:000006fc       $pdata$__scrt_uninitialize_crt 000000014003b6fc     LIBCMT:utility.obj
 0004:00000708       $pdata$_onexit             000000014003b708     LIBCMT:utility.obj
 0004:00000714       $pdata$atexit              000000014003b714     LIBCMT:utility.obj
 0004:00000720       $pdata$__GSHandlerCheck    000000014003b720     LIBCMT:_gshandler_.obj
 0004:0000072c       $pdata$__GSHandlerCheckCommon 000000014003b72c     LIBCMT:_gshandler_.obj
 0004:00000738       $pdata$__GSHandlerCheck_EH 000000014003b738     LIBCMT:gshandlereh.obj
 0004:00000744       $pdata$??_Gtype_info@@UEAAPEAXI@Z 000000014003b744     LIBCMT:std_type_info_static.obj
 0004:0000075c       $pdata$__raise_securityfailure 000000014003b75c     LIBCMT:gs_report.obj
 0004:00000768       $pdata$__report_gsfailure  000000014003b768     LIBCMT:gs_report.obj
 0004:00000774       $pdata$__report_rangecheckfailure 000000014003b774     LIBCMT:gs_report.obj
 0004:00000780       $pdata$__report_securityfailure 000000014003b780     LIBCMT:gs_report.obj
 0004:0000078c       $pdata$capture_current_context 000000014003b78c     LIBCMT:gs_report.obj
 0004:00000798       $pdata$capture_previous_context 000000014003b798     LIBCMT:gs_report.obj
 0004:000007a4       $pdata$??0bad_array_new_length@std@@QEAA@AEBV01@@Z 000000014003b7a4     LIBCMT:throw_bad_alloc.obj
 0004:000007b0       $pdata$?__scrt_throw_std_bad_alloc@@YAXXZ 000000014003b7b0     LIBCMT:throw_bad_alloc.obj
 0004:000007bc       $pdata$?__scrt_throw_std_bad_array_new_length@@YAXXZ 000000014003b7bc     LIBCMT:throw_bad_alloc.obj
 0004:000007c8       $pdata$__security_init_cookie 000000014003b7c8     LIBCMT:gs_support.obj
 0004:000007d4       $pdata$__scrt_initialize_default_local_stdio_options 000000014003b7d4     LIBCMT:default_local_stdio_options.obj
 0004:000007e0       $pdata$__scrt_fastfail     000000014003b7e0     LIBCMT:utility_desktop.obj
 0004:000007ec       $pdata$__scrt_is_managed_app 000000014003b7ec     LIBCMT:utility_desktop.obj
 0004:000007f8       $pdata$__scrt_unhandled_exception_filter 000000014003b7f8     LIBCMT:utility_desktop.obj
 0004:00000804       $pdata$_RTC_Initialize     000000014003b804     LIBCMT:_initsect_.obj
 0004:00000810       $pdata$_RTC_Terminate      000000014003b810     LIBCMT:_initsect_.obj
 0004:0000081c       $pdata$__isa_available_init 000000014003b81c     LIBCMT:_cpu_disp_.obj
 0004:00000828       $pdata$_purecall           000000014003b828     libvcruntime:purevirt.obj
 0004:00000834       $pdata$__std_exception_copy 000000014003b834     libvcruntime:std_exception.obj
 0004:00000840       $pdata$__std_exception_destroy 000000014003b840     libvcruntime:std_exception.obj
 0004:0000084c       $pdata$_CxxThrowException  000000014003b84c     libvcruntime:throw.obj
 0004:00000858       $pdata$?_ExecutionInCatch@@YAHPEAU_xDISPATCHER_CONTEXT@@PEBU_s_FuncInfo@@@Z 000000014003b858     libvcruntime:risctrnsctrl.obj
 0004:00000864       $pdata$?_GetEstablisherFrame@@YAPEA_KPEA_KPEAU_xDISPATCHER_CONTEXT@@PEBU_s_FuncInfo@@0@Z 000000014003b864     libvcruntime:risctrnsctrl.obj
 0004:00000870       $pdata$?_GetRangeOfTrysToCheck@@YAPEBU_s_TryBlockMapEntry@@PEA_KPEBU_s_FuncInfo@@HHPEAI2PEAU_xDISPATCHER_CONTEXT@@@Z 000000014003b870     libvcruntime:risctrnsctrl.obj
 0004:0000087c       $pdata$?__FrameUnwindToEmptyState@@YAXPEA_KPEAU_xDISPATCHER_CONTEXT@@PEBU_s_FuncInfo@@@Z 000000014003b87c     libvcruntime:risctrnsctrl.obj
 0004:00000888       $pdata$_CallSETranslator   000000014003b888     libvcruntime:risctrnsctrl.obj
 0004:00000894       $pdata$_CreateFrameInfo    000000014003b894     libvcruntime:risctrnsctrl.obj
 0004:000008a0       $pdata$_FindAndUnlinkFrame 000000014003b8a0     libvcruntime:risctrnsctrl.obj
 0004:000008ac       $pdata$_GetImageBase       000000014003b8ac     libvcruntime:risctrnsctrl.obj
 0004:000008b8       $pdata$_GetThrowImageBase  000000014003b8b8     libvcruntime:risctrnsctrl.obj
 0004:000008c4       $pdata$_SetImageBase       000000014003b8c4     libvcruntime:risctrnsctrl.obj
 0004:000008d0       $pdata$_SetThrowImageBase  000000014003b8d0     libvcruntime:risctrnsctrl.obj
 0004:000008dc       $pdata$_UnwindNestedFrames 000000014003b8dc     libvcruntime:risctrnsctrl.obj
 0004:000008e8       $pdata$__CxxFrameHandler3  000000014003b8e8     libvcruntime:risctrnsctrl.obj
 0004:0000090c       $pdata$__DestructExceptionObject 000000014003b90c     libvcruntime:ehhelpers.obj
 0004:00000918       $pdata$_IsExceptionObjectToBeDestroyed 000000014003b918     libvcruntime:ehhelpers.obj
 0004:00000924       $pdata$__FrameUnwindFilter 000000014003b924     libvcruntime:ehhelpers.obj
 0004:00000930       $pdata$__std_terminate     000000014003b930     libvcruntime:ehhelpers.obj
 0004:00000954       $pdata$__C_specific_handler 000000014003b954     libvcruntime:_riscchandler_.obj
 0004:00000960       $pdata$__vcrt_initialize   000000014003b960     libvcruntime:initialization.obj
 0004:0000096c       $pdata$__vcrt_uninitialize 000000014003b96c     libvcruntime:initialization.obj
 0004:00000978       $pdata$__vcrt_freefls      000000014003b978     libvcruntime:per_thread_data.obj
 0004:00000984       $pdata$__vcrt_getptd       000000014003b984     libvcruntime:per_thread_data.obj
 0004:00000990       $pdata$__vcrt_getptd_noexit 000000014003b990     libvcruntime:per_thread_data.obj
 0004:0000099c       $pdata$__vcrt_initialize_ptd 000000014003b99c     libvcruntime:per_thread_data.obj
 0004:000009a8       $pdata$__vcrt_uninitialize_ptd 000000014003b9a8     libvcruntime:per_thread_data.obj
 0004:000009b4       $pdata$?__GetCurrentState@@YAHPEA_KPEAU_xDISPATCHER_CONTEXT@@PEBU_s_FuncInfo@@@Z 000000014003b9b4     libvcruntime:riscehstate.obj
 0004:000009c0       $pdata$?__GetUnwindTryBlock@@YAHPEA_KPEAU_xDISPATCHER_CONTEXT@@PEBU_s_FuncInfo@@@Z 000000014003b9c0     libvcruntime:riscehstate.obj
 0004:000009cc       $pdata$?__SetUnwindTryBlock@@YAXPEA_KPEAU_xDISPATCHER_CONTEXT@@PEBU_s_FuncInfo@@H@Z 000000014003b9cc     libvcruntime:riscehstate.obj
 0004:000009d8       $pdata$?__StateFromIp@@YAHPEBU_s_FuncInfo@@PEAU_xDISPATCHER_CONTEXT@@_K@Z 000000014003b9d8     libvcruntime:riscehstate.obj
 0004:000009e4       $pdata$??0bad_exception@std@@QEAA@AEBV01@@Z 000000014003b9e4     libvcruntime:frame.obj
 0004:000009f0       $pdata$?CatchIt@@YAXPEAUEHExceptionRecord@@PEA_KPEAU_CONTEXT@@PEAU_xDISPATCHER_CONTEXT@@PEBU_s_FuncInfo@@PEBU_s_HandlerType@@PEBU_s_CatchableType@@PEBU_s_TryBlockMapEntry@@H1EE@Z 000000014003b9f0     libvcruntime:frame.obj
 0004:000009fc       $pdata$?ExFilterRethrow@@YAHPEAU_EXCEPTION_POINTERS@@PEAUEHExceptionRecord@@PEAH@Z 000000014003b9fc     libvcruntime:frame.obj
 0004:00000a08       $pdata$?FindHandler@@YAXPEAUEHExceptionRecord@@PEA_KPEAU_CONTEXT@@PEAU_xDISPATCHER_CONTEXT@@PEBU_s_FuncInfo@@EH1@Z 000000014003ba08     libvcruntime:frame.obj
 0004:00000a14       $pdata$?FindHandlerForForeignException@@YAXPEAUEHExceptionRecord@@PEA_KPEAU_CONTEXT@@PEAU_xDISPATCHER_CONTEXT@@PEBU_s_FuncInfo@@HH1@Z 000000014003ba14     libvcruntime:frame.obj
 0004:00000a20       $pdata$?IsInExceptionSpec@@YAEPEAUEHExceptionRecord@@PEBU_s_ESTypeList@@@Z 000000014003ba20     libvcruntime:frame.obj
 0004:00000a2c       $pdata$__BuildCatchObject  000000014003ba2c     libvcruntime:frame.obj
 0004:00000a38       $pdata$__BuildCatchObjectHelper 000000014003ba38     libvcruntime:frame.obj
 0004:00000a44       $pdata$__CxxCallCatchBlock 000000014003ba44     libvcruntime:frame.obj
 0004:00000a50       $pdata$__FrameUnwindToState 000000014003ba50     libvcruntime:frame.obj
 0004:00000a5c       $pdata$__InternalCxxFrameHandler 000000014003ba5c     libvcruntime:frame.obj
 0004:00000a68       $pdata$__TypeMatch         000000014003ba68     libvcruntime:frame.obj
 0004:00000aa4       $pdata$__vcrt_initialize_locks 000000014003baa4     libvcruntime:locks.obj
 0004:00000ab0       $pdata$__vcrt_uninitialize_locks 000000014003bab0     libvcruntime:locks.obj
 0004:00000abc       $pdata$?try_get_function@@YAPEAXW4function_id@?A0x89697e75@@QEBDQEBW4module_id@2@2@Z 000000014003babc     libvcruntime:winapi_downlevel.obj
 0004:00000ac8       $pdata$__vcrt_FlsAlloc     000000014003bac8     libvcruntime:winapi_downlevel.obj
 0004:00000ad4       $pdata$__vcrt_FlsFree      000000014003bad4     libvcruntime:winapi_downlevel.obj
 0004:00000ae0       $pdata$__vcrt_FlsGetValue  000000014003bae0     libvcruntime:winapi_downlevel.obj
 0004:00000aec       $pdata$__vcrt_FlsSetValue  000000014003baec     libvcruntime:winapi_downlevel.obj
 0004:00000af8       $pdata$__vcrt_InitializeCriticalSectionEx 000000014003baf8     libvcruntime:winapi_downlevel.obj
 0004:00000b04       $pdata$__vcrt_initialize_winapi_thunks 000000014003bb04     libvcruntime:winapi_downlevel.obj
 0004:00000b10       $pdata$__vcrt_uninitialize_winapi_thunks 000000014003bb10     libvcruntime:winapi_downlevel.obj
 0004:00000b28       $pdata$abort               000000014003bb28     libucrt:abort.obj
 0004:00000b34       $pdata$__acrt_initialize_stdio 000000014003bb34     libucrt:_file.obj
 0004:00000b40       $pdata$__acrt_uninitialize_stdio 000000014003bb40     libucrt:_file.obj
 0004:00000b4c       $pdata$_get_stream_buffer_pointers 000000014003bb4c     libucrt:_file.obj
 0004:00000b58       $pdata$__acrt_call_reportfault 000000014003bb58     libucrt:invalid_parameter.obj
 0004:00000b64       $pdata$_invalid_parameter  000000014003bb64     libucrt:invalid_parameter.obj
 0004:00000b70       $pdata$_invalid_parameter_noinfo 000000014003bb70     libucrt:invalid_parameter.obj
 0004:00000b7c       $pdata$_invalid_parameter_noinfo_noreturn 000000014003bb7c     libucrt:invalid_parameter.obj
 0004:00000b88       $pdata$_invoke_watson      000000014003bb88     libucrt:invalid_parameter.obj
 0004:00000b94       $pdata$??$?RV<lambda_a62c933ada0517137acf5807a1eeac1f>@@AEAV<lambda_a31071773b9a94e445cbd5d04ef99106>@@V<lambda_56065050dbf3ada7e59a83db45153de3>@@@?$__crt_seh_guarded_call@H@@QEAAH$$QEAV<lambda_a62c933ada0517137acf5807a1eeac1f>@@AEAV<lambda_a31071773b9a94e445cbd5d04ef99106>@@$$QEAV<lambda_56065050dbf3ada7e59a83db45153de3>@@@Z 000000014003bb94     libucrt:output.obj
 0004:00000ba0       $pdata$??$ensure_buffer_is_big_enough@D@formatting_buffer@__crt_stdio_output@@QEAA_N_K@Z 000000014003bba0     libucrt:output.obj
 0004:00000bac       $pdata$??$type_case_integer_parse_into_buffer@I@?$output_processor@DV?$stream_output_adapter@D@__crt_stdio_output@@V?$standard_base@DV?$stream_output_adapter@D@__crt_stdio_output@@@2@@__crt_stdio_output@@AEAAXII_N@Z 000000014003bbac     libucrt:output.obj
 0004:00000bb8       $pdata$??$type_case_integer_parse_into_buffer@_K@?$output_processor@DV?$stream_output_adapter@D@__crt_stdio_output@@V?$standard_base@DV?$stream_output_adapter@D@__crt_stdio_output@@@2@@__crt_stdio_output@@AEAAX_KI_N@Z 000000014003bbb8     libucrt:output.obj
 0004:00000bc4       $pdata$??$write_multiple_characters@V?$stream_output_adapter@D@__crt_stdio_output@@D@__crt_stdio_output@@YAXAEBV?$stream_output_adapter@D@0@DHQEAH@Z 000000014003bbc4     libucrt:output.obj
 0004:00000bd0       $pdata$??0_LocaleUpdate@@QEAA@QEAU__crt_locale_pointers@@@Z 000000014003bbd0     libucrt:output.obj
 0004:00000bdc       $pdata$??R<lambda_a31071773b9a94e445cbd5d04ef99106>@@QEBAHXZ 000000014003bbdc     libucrt:output.obj
 0004:00000be8       $pdata$?force_decimal_point@__crt_stdio_output@@YAXPEADQEAU__crt_locale_pointers@@@Z 000000014003bbe8     libucrt:output.obj
 0004:00000bf4       $pdata$?parse_int_from_format_string@?$output_processor@DV?$stream_output_adapter@D@__crt_stdio_output@@V?$standard_base@DV?$stream_output_adapter@D@__crt_stdio_output@@@2@@__crt_stdio_output@@AEAA_NQEAH@Z 000000014003bbf4     libucrt:output.obj
 0004:00000c00       $pdata$?process@?$output_processor@DV?$stream_output_adapter@D@__crt_stdio_output@@V?$standard_base@DV?$stream_output_adapter@D@__crt_stdio_output@@@2@@__crt_stdio_output@@QEAAHXZ 000000014003bc00     libucrt:output.obj
 0004:00000c0c       $pdata$?state_case_normal@?$output_processor@DV?$stream_output_adapter@D@__crt_stdio_output@@V?$standard_base@DV?$stream_output_adapter@D@__crt_stdio_output@@@2@@__crt_stdio_output@@AEAA_NXZ 000000014003bc0c     libucrt:output.obj
 0004:00000c18       $pdata$?state_case_normal_tchar@?$output_processor@DV?$stream_output_adapter@D@__crt_stdio_output@@V?$standard_base@DV?$stream_output_adapter@D@__crt_stdio_output@@@2@@__crt_stdio_output@@AEAA_ND@Z 000000014003bc18     libucrt:output.obj
 0004:00000c24       $pdata$?state_case_size@?$output_processor@DV?$stream_output_adapter@D@__crt_stdio_output@@V?$standard_base@DV?$stream_output_adapter@D@__crt_stdio_output@@@2@@__crt_stdio_output@@AEAA_NXZ 000000014003bc24     libucrt:output.obj
 0004:00000c30       $pdata$?state_case_type@?$output_processor@DV?$stream_output_adapter@D@__crt_stdio_output@@V?$standard_base@DV?$stream_output_adapter@D@__crt_stdio_output@@@2@@__crt_stdio_output@@AEAA_NXZ 000000014003bc30     libucrt:output.obj
 0004:00000c3c       $pdata$?type_case_a@?$output_processor@DV?$stream_output_adapter@D@__crt_stdio_output@@V?$standard_base@DV?$stream_output_adapter@D@__crt_stdio_output@@@2@@__crt_stdio_output@@AEAA_NXZ 000000014003bc3c     libucrt:output.obj
 0004:00000c48       $pdata$?type_case_c_tchar@?$output_processor@DV?$stream_output_adapter@D@__crt_stdio_output@@V?$standard_base@DV?$stream_output_adapter@D@__crt_stdio_output@@@2@@__crt_stdio_output@@AEAA_ND@Z 000000014003bc48     libucrt:output.obj
 0004:00000c54       $pdata$?type_case_integer@?$output_processor@DV?$stream_output_adapter@D@__crt_stdio_output@@V?$standard_base@DV?$stream_output_adapter@D@__crt_stdio_output@@@2@@__crt_stdio_output@@AEAA_NI_N@Z 000000014003bc54     libucrt:output.obj
 0004:00000c60       $pdata$?type_case_n@?$output_processor@DV?$stream_output_adapter@D@__crt_stdio_output@@V?$standard_base@DV?$stream_output_adapter@D@__crt_stdio_output@@@2@@__crt_stdio_output@@AEAA_NXZ 000000014003bc60     libucrt:output.obj
 0004:00000c6c       $pdata$?type_case_s@?$output_processor@DV?$stream_output_adapter@D@__crt_stdio_output@@V?$standard_base@DV?$stream_output_adapter@D@__crt_stdio_output@@@2@@__crt_stdio_output@@AEAA_NXZ 000000014003bc6c     libucrt:output.obj
 0004:00000c78       $pdata$?validate_stream_is_ansi_if_required@?$__acrt_stdio_char_traits@D@@SA_NQEAU_iobuf@@@Z 000000014003bc78     libucrt:output.obj
 0004:00000c84       $pdata$?write_stored_string_tchar@?$output_processor@DV?$stream_output_adapter@D@__crt_stdio_output@@V?$standard_base@DV?$stream_output_adapter@D@__crt_stdio_output@@@2@@__crt_stdio_output@@AEAA_ND@Z 000000014003bc84     libucrt:output.obj
 0004:00000c90       $pdata$?write_string_impl@?$output_adapter_common@DV?$stream_output_adapter@D@__crt_stdio_output@@@__crt_stdio_output@@IEBAXQEBDHQEAHAEAV__crt_deferred_errno_cache@@@Z 000000014003bc90     libucrt:output.obj
 0004:00000c9c       $pdata$__stdio_common_vfprintf 000000014003bc9c     libucrt:output.obj
 0004:00000ca8       $pdata$__acrt_initialize_locks 000000014003bca8     libucrt:locks.obj
 0004:00000cb4       $pdata$__acrt_uninitialize_locks 000000014003bcb4     libucrt:locks.obj
 0004:00000cc0       $pdata$_lock_locales       000000014003bcc0     libucrt:locks.obj
 0004:00000ccc       $pdata$terminate           000000014003bccc     libucrt:terminate.obj
 0004:00000cd8       $pdata$__acrt_errno_map_os_error 000000014003bcd8     libucrt:errno.obj
 0004:00000ce4       $pdata$__doserrno          000000014003bce4     libucrt:errno.obj
 0004:00000cf0       $pdata$_errno              000000014003bcf0     libucrt:errno.obj
 0004:00000cfc       $pdata$_fclose_nolock      000000014003bcfc     libucrt:fclose.obj
 0004:00000d08       $pdata$fclose              000000014003bd08     libucrt:fclose.obj
 0004:00000d14       $pdata$??$?RV<lambda_842d9ff0dc9ef11c61343bbaebe7f885>@@AEAV<lambda_c5860995281e5c4ce005b3de8f5874ee>@@V<lambda_d90129c13df834fdcbf8d2b88dafcf2d>@@@?$__crt_seh_guarded_call@X@@QEAAX$$QEAV<lambda_842d9ff0dc9ef11c61343bbaebe7f885>@@AEAV<lambda_c5860995281e5c4ce005b3de8f5874ee>@@$$QEAV<lambda_d90129c13df834fdcbf8d2b88dafcf2d>@@@Z 000000014003bd14     libucrt:fflush.obj
 0004:00000d20       $pdata$??$?RV<lambda_886d6c58226a84441f68b9f2b8217b83>@@AEAV<lambda_ab61a845afdef5b7c387490eaf3616ee>@@V<lambda_f7f22ab5edc0698d5f6905b0d3f44752>@@@?$__crt_seh_guarded_call@X@@QEAAX$$QEAV<lambda_886d6c58226a84441f68b9f2b8217b83>@@AEAV<lambda_ab61a845afdef5b7c387490eaf3616ee>@@$$QEAV<lambda_f7f22ab5edc0698d5f6905b0d3f44752>@@@Z 000000014003bd20     libucrt:fflush.obj
 0004:00000d2c       $pdata$??$?RV<lambda_c376a267cfb53b6959b3b692ec76b120>@@AEAV<lambda_9a32fed5bf61b6b509b2d3f6003082a1>@@V<lambda_572fbb9fa0ab338edf41edfd4b5fcc8d>@@@?$__crt_seh_guarded_call@H@@QEAAH$$QEAV<lambda_c376a267cfb53b6959b3b692ec76b120>@@AEAV<lambda_9a32fed5bf61b6b509b2d3f6003082a1>@@$$QEAV<lambda_572fbb9fa0ab338edf41edfd4b5fcc8d>@@@Z 000000014003bd2c     libucrt:fflush.obj
 0004:00000d38       $pdata$?common_flush_all@@YAH_N@Z 000000014003bd38     libucrt:fflush.obj
 0004:00000d44       $pdata$__acrt_stdio_flush_nolock 000000014003bd44     libucrt:fflush.obj
 0004:00000d50       $pdata$_fflush_nolock      000000014003bd50     libucrt:fflush.obj
 0004:00000d5c       $pdata$fflush              000000014003bd5c     libucrt:fflush.obj
 0004:00000d68       $pdata$_fgetc_nolock       000000014003bd68     libucrt:fgetc.obj
 0004:00000d74       $pdata$fgetc               000000014003bd74     libucrt:fgetc.obj
 0004:00000d80       $pdata$fgetpos             000000014003bd80     libucrt:fgetpos.obj
 0004:00000d8c       $pdata$fputc               000000014003bd8c     libucrt:fputc.obj
 0004:00000d98       $pdata$fsetpos             000000014003bd98     libucrt:fsetpos.obj
 0004:00000da4       $pdata$?common_fseek@@YAHV__crt_stdio_stream@@_JH@Z 000000014003bda4     libucrt:fseek.obj
 0004:00000db0       $pdata$?common_fseek_binary_mode_read_only_fast_track_nolock@@YA_NV__crt_stdio_stream@@_JH@Z 000000014003bdb0     libucrt:fseek.obj
 0004:00000dbc       $pdata$?common_fseek_nolock@@YAHV__crt_stdio_stream@@_JH@Z 000000014003bdbc     libucrt:fseek.obj
 0004:00000dc8       $pdata$??$?RV<lambda_bdbcead8b570fa3d5ec6d9679862a6e5>@@AEAV<lambda_96f4279ff90247a4c5c5d9824f56f8c1>@@V<lambda_4606be27f17b5e5579e09050fab91818>@@@?$__crt_seh_guarded_call@_K@@QEAA_K$$QEAV<lambda_bdbcead8b570fa3d5ec6d9679862a6e5>@@AEAV<lambda_96f4279ff90247a4c5c5d9824f56f8c1>@@$$QEAV<lambda_4606be27f17b5e5579e09050fab91818>@@@Z 000000014003bdc8     libucrt:fwrite.obj
 0004:00000dd4       $pdata$??R<lambda_96f4279ff90247a4c5c5d9824f56f8c1>@@QEBA_KXZ 000000014003bdd4     libucrt:fwrite.obj
 0004:00000de0       $pdata$_fwrite_nolock      000000014003bde0     libucrt:fwrite.obj
 0004:00000dec       $pdata$fwrite              000000014003bdec     libucrt:fwrite.obj
 0004:00000df8       $pdata$??$?RV<lambda_84ec643ea9557e2f7dc01bb0e9624395>@@AEAV<lambda_ca71763b3c0644891230e4f79ea54fa6>@@V<lambda_439a761618c59b0600e24586724d733b>@@@?$__crt_seh_guarded_call@H@@QEAAH$$QEAV<lambda_84ec643ea9557e2f7dc01bb0e9624395>@@AEAV<lambda_ca71763b3c0644891230e4f79ea54fa6>@@$$QEAV<lambda_439a761618c59b0600e24586724d733b>@@@Z 000000014003bdf8     libucrt:setvbuf.obj
 0004:00000e04       $pdata$??R<lambda_ca71763b3c0644891230e4f79ea54fa6>@@QEBAHXZ 000000014003be04     libucrt:setvbuf.obj
 0004:00000e10       $pdata$setvbuf             000000014003be10     libucrt:setvbuf.obj
 0004:00000e1c       $pdata$_ungetc_nolock      000000014003be1c     libucrt:ungetc.obj
 0004:00000e28       $pdata$ungetc              000000014003be28     libucrt:ungetc.obj
 0004:00000e34       $pdata$??$?RV<lambda_9bd929c17696992ce54f1d748594fc62>@@AEAV<lambda_082c17da81b0962e08c0587ee0fac50c>@@V<lambda_9c08ac857f4975304d44e9f601d9b878>@@@?$__crt_seh_guarded_call@PEAD@@QEAAPEAD$$QEAV<lambda_9bd929c17696992ce54f1d748594fc62>@@AEAV<lambda_082c17da81b0962e08c0587ee0fac50c>@@$$QEAV<lambda_9c08ac857f4975304d44e9f601d9b878>@@@Z 000000014003be34     libucrt:setlocale.obj
 0004:00000e40       $pdata$??R<lambda_082c17da81b0962e08c0587ee0fac50c>@@QEBAPEADXZ 000000014003be40     libucrt:setlocale.obj
 0004:00000e4c       $pdata$setlocale           000000014003be4c     libucrt:setlocale.obj
 0004:00000e58       $pdata$__pctype_func       000000014003be58     libucrt:ctype.obj
 0004:00000e64       $pdata$isdigit             000000014003be64     libucrt:_ctype.obj
 0004:00000e70       $pdata$islower             000000014003be70     libucrt:_ctype.obj
 0004:00000e7c       $pdata$isupper             000000014003be7c     libucrt:_ctype.obj
 0004:00000e88       $pdata$_wcsdup             000000014003be88     libucrt:wcsdup.obj
 0004:00000e94       $pdata$___lc_codepage_func 000000014003be94     libucrt:initctype.obj
 0004:00000ea0       $pdata$___lc_locale_name_func 000000014003bea0     libucrt:initctype.obj
 0004:00000eac       $pdata$__acrt_locale_initialize_ctype 000000014003beac     libucrt:initctype.obj
 0004:00000eb8       $pdata$?divide@__crt_strtox@@YA_KAEAUbig_integer@1@AEBU21@@Z 000000014003beb8     libucrt:strtod.obj
 0004:00000ec4       $pdata$0$?divide@__crt_strtox@@YA_KAEAUbig_integer@1@AEBU21@@Z 000000014003bec4     libucrt:strtod.obj
 0004:00000ed0       $pdata$6$?divide@__crt_strtox@@YA_KAEAUbig_integer@1@AEBU21@@Z 000000014003bed0     libucrt:strtod.obj
 0004:00000edc       $pdata$7$?divide@__crt_strtox@@YA_KAEAUbig_integer@1@AEBU21@@Z 000000014003bedc     libucrt:strtod.obj
 0004:00000ee8       $pdata$8$?divide@__crt_strtox@@YA_KAEAUbig_integer@1@AEBU21@@Z 000000014003bee8     libucrt:strtod.obj
 0004:00000ef4       $pdata$memcpy_s            000000014003bef4     libucrt:cfout.obj
 0004:00000ef4       $pdata$memcpy_s            000000014003bef4     libucrt:strtod.obj
 0004:00000f18       $pdata$?x_ismbbtype_l@@YAHPEAU__crt_locale_pointers@@IHH@Z 000000014003bf18     libucrt:ismbbyte.obj
 0004:00000f24       $pdata$?internal_isupper_l@@YA_NHQEAU__crt_locale_pointers@@@Z 000000014003bf24     libucrt:tolower_toupper.obj
 0004:00000f30       $pdata$_tolower_l          000000014003bf30     libucrt:tolower_toupper.obj
 0004:00000f3c       $pdata$tolower             000000014003bf3c     libucrt:tolower_toupper.obj
 0004:00000f48       $pdata$wcscpy_s            000000014003bf48     libucrt:wcscpy_s.obj
 0004:00000f54       $pdata$_callnewh           000000014003bf54     libucrt:new_handler.obj
 0004:00000f60       $pdata$_query_new_handler  000000014003bf60     libucrt:new_handler.obj
 0004:00000f6c       $pdata$_seh_filter_exe     000000014003bf6c     libucrt:exception_filter.obj
 0004:00000f78       $pdata$??$parse_command_line@D@@YAXPEADPEAPEAD0PEA_K2@Z 000000014003bf78     libucrt:argv_parsing.obj
 0004:00000f84       $pdata$__acrt_allocate_buffer_for_argv 000000014003bf84     libucrt:argv_parsing.obj
 0004:00000f90       $pdata$_configure_narrow_argv 000000014003bf90     libucrt:argv_parsing.obj
 0004:00000f9c       $pdata$??$common_initialize_environment_nolock@D@@YAHXZ 000000014003bf9c     libucrt:environment_initialization.obj
 0004:00000fa8       $pdata$??$create_environment@D@@YAQEAPEADQEAD@Z 000000014003bfa8     libucrt:environment_initialization.obj
 0004:00000fb4       $pdata$??$free_environment@_W@@YAXQEAPEA_W@Z 000000014003bfb4     libucrt:environment_initialization.obj
 0004:00000fb4       $pdata$??$free_environment@D@@YAXQEAPEAD@Z 000000014003bfb4     libucrt:environment_initialization.obj
 0004:00000fc0       $pdata$??$initialize_environment_by_cloning_nolock@D@@YAHXZ 000000014003bfc0     libucrt:environment_initialization.obj
 0004:00000fcc       $pdata$??$uninitialize_environment_internal@D@@YAXAEAPEAPEAD@Z 000000014003bfcc     libucrt:environment_initialization.obj
 0004:00000fd8       $pdata$??$uninitialize_environment_internal@_W@@YAXAEAPEAPEA_W@Z 000000014003bfd8     libucrt:environment_initialization.obj
 0004:00000fe4       $pdata$__dcrt_get_or_create_narrow_environment_nolock 000000014003bfe4     libucrt:environment_initialization.obj
 0004:00000ff0       $pdata$__dcrt_uninitialize_environments_nolock 000000014003bff0     libucrt:environment_initialization.obj
 0004:00000ffc       $pdata$_get_initial_narrow_environment 000000014003bffc     libucrt:environment_initialization.obj
 0004:00001008       $pdata$_initterm           000000014003c008     libucrt:initterm.obj
 0004:00001014       $pdata$_initterm_e         000000014003c014     libucrt:initterm.obj
 0004:00001020       $pdata$??$?RV<lambda_d80eeec6fff315bfe5c115232f3240e3>@@AEAV<lambda_6e4b09c48022b2350581041d5f6b0c4c>@@V<lambda_2358e3775559c9db80273638284d5e45>@@@?$__crt_seh_guarded_call@X@@QEAAX$$QEAV<lambda_d80eeec6fff315bfe5c115232f3240e3>@@AEAV<lambda_6e4b09c48022b2350581041d5f6b0c4c>@@$$QEAV<lambda_2358e3775559c9db80273638284d5e45>@@@Z 000000014003c020     libucrt:exit.obj
 0004:0000102c       $pdata$??R<lambda_6e4b09c48022b2350581041d5f6b0c4c>@@QEBA@XZ 000000014003c02c     libucrt:exit.obj
 0004:00001038       $pdata$?common_exit@@YAXHW4_crt_exit_cleanup_mode@@W4_crt_exit_return_mode@@@Z 000000014003c038     libucrt:exit.obj
 0004:00001044       $pdata$?exit_or_terminate_process@@YAXI@Z 000000014003c044     libucrt:exit.obj
 0004:00001050       $pdata$?try_cor_exit_process@@YAXI@Z 000000014003c050     libucrt:exit.obj
 0004:0000105c       $pdata$_register_thread_local_exe_atexit_callback 000000014003c05c     libucrt:exit.obj
 0004:00001068       $pdata$_set_fmode          000000014003c068     libucrt:setmode.obj
 0004:00001074       $pdata$__acrt_initialize_command_line 000000014003c074     libucrt:argv_data.obj
 0004:00001080       $pdata$??$?RV<lambda_1d892b297fdedeee07ed8124eeb2f2fa>@@AEAV<lambda_ffc046909424fd52df0ac47e64813305>@@V<lambda_01a7098693036236037e7cdb9bca3d73>@@@?$__crt_seh_guarded_call@X@@QEAAX$$QEAV<lambda_1d892b297fdedeee07ed8124eeb2f2fa>@@AEAV<lambda_ffc046909424fd52df0ac47e64813305>@@$$QEAV<lambda_01a7098693036236037e7cdb9bca3d73>@@@Z 000000014003c080     libucrt:wsetlocale.obj
 0004:0000108c       $pdata$??$?RV<lambda_410d79af7f07d98d83a3f525b3859a53>@@AEAV<lambda_3e16ef9562a7dcce91392c22ab16ea36>@@V<lambda_38119f0e861e05405d8a144b9b982f0a>@@@?$__crt_seh_guarded_call@X@@QEAAX$$QEAV<lambda_410d79af7f07d98d83a3f525b3859a53>@@AEAV<lambda_3e16ef9562a7dcce91392c22ab16ea36>@@$$QEAV<lambda_38119f0e861e05405d8a144b9b982f0a>@@@Z 000000014003c08c     libucrt:wsetlocale.obj
 0004:00001098       $pdata$??$?RV<lambda_7f2adfce497ff2baa965cd4f576ecfd1>@@AEAV<lambda_2a444430fde8c29194d880d93eed5e8f>@@AEAV<lambda_8dff2cf36a5417162780cd64fa2883ef>@@@?$__crt_seh_guarded_call@X@@QEAAX$$QEAV<lambda_7f2adfce497ff2baa965cd4f576ecfd1>@@AEAV<lambda_2a444430fde8c29194d880d93eed5e8f>@@AEAV<lambda_8dff2cf36a5417162780cd64fa2883ef>@@@Z 000000014003c098     libucrt:wsetlocale.obj
 0004:000010a4       $pdata$??R<lambda_2a444430fde8c29194d880d93eed5e8f>@@QEBA@XZ 000000014003c0a4     libucrt:wsetlocale.obj
 0004:000010b0       $pdata$__acrt_copy_locale_name 000000014003c0b0     libucrt:wsetlocale.obj
 0004:000010bc       $pdata$__acrt_uninitialize_locale 000000014003c0bc     libucrt:wsetlocale.obj
 0004:000010c8       $pdata$__lc_lctowcs        000000014003c0c8     libucrt:wsetlocale.obj
 0004:000010d4       $pdata$__lc_wcstolc        000000014003c0d4     libucrt:wsetlocale.obj
 0004:000010e0       $pdata$_configthreadlocale 000000014003c0e0     libucrt:wsetlocale.obj
 0004:000010ec       $pdata$_copytlocinfo_nolock 000000014003c0ec     libucrt:wsetlocale.obj
 0004:000010f8       $pdata$_expandlocale       000000014003c0f8     libucrt:wsetlocale.obj
 0004:00001104       $pdata$_wcscats            000000014003c104     libucrt:wsetlocale.obj
 0004:00001110       $pdata$_wsetlocale         000000014003c110     libucrt:wsetlocale.obj
 0004:0000111c       $pdata$_wsetlocale_get_all 000000014003c11c     libucrt:wsetlocale.obj
 0004:00001128       $pdata$_wsetlocale_nolock  000000014003c128     libucrt:wsetlocale.obj
 0004:00001134       $pdata$_wsetlocale_set_cat 000000014003c134     libucrt:wsetlocale.obj
 0004:00001140       $pdata$_set_new_mode       000000014003c140     libucrt:new_mode.obj
 0004:0000114c       $pdata$??$?RV<lambda_7777bce6b2f8c936911f934f8298dc43>@@AEAV<lambda_f03950bc5685219e0bcd2087efbe011e>@@V<lambda_3883c3dff614d5e0c5f61bb1ac94921c>@@@?$__crt_seh_guarded_call@H@@QEAAH$$QEAV<lambda_7777bce6b2f8c936911f934f8298dc43>@@AEAV<lambda_f03950bc5685219e0bcd2087efbe011e>@@$$QEAV<lambda_3883c3dff614d5e0c5f61bb1ac94921c>@@@Z 000000014003c14c     libucrt:onexit.obj
 0004:00001158       $pdata$??$?RV<lambda_8369fcb7c4df1e85de37618bd2b85f07>@@AEAV<lambda_a10e4b102d4a2c3aac6f4f48bbdf488f>@@V<lambda_5b7707bd6d7a0c4713179f36c7fd995d>@@@?$__crt_seh_guarded_call@H@@QEAAH$$QEAV<lambda_8369fcb7c4df1e85de37618bd2b85f07>@@AEAV<lambda_a10e4b102d4a2c3aac6f4f48bbdf488f>@@$$QEAV<lambda_5b7707bd6d7a0c4713179f36c7fd995d>@@@Z 000000014003c158     libucrt:onexit.obj
 0004:00001164       $pdata$??R<lambda_a10e4b102d4a2c3aac6f4f48bbdf488f>@@QEBAHXZ 000000014003c164     libucrt:onexit.obj
 0004:00001170       $pdata$??R<lambda_f03950bc5685219e0bcd2087efbe011e>@@QEBAHXZ 000000014003c170     libucrt:onexit.obj
 0004:0000117c       $pdata$_execute_onexit_table 000000014003c17c     libucrt:onexit.obj
 0004:00001188       $pdata$_register_onexit_function 000000014003c188     libucrt:onexit.obj
 0004:00001194       $pdata$initialize_c        000000014003c194     libucrt:initialization.obj
 0004:000011a0       $pdata$uninitialize_environment 000000014003c1a0     libucrt:initialization.obj
 0004:000011ac       $pdata$initialize_pointers 000000014003c1ac     libucrt:initialization.obj
 0004:000011b8       $pdata$uninitialize_allocated_memory 000000014003c1b8     libucrt:initialization.obj
 0004:000011c4       $pdata$uninitialize_allocated_io_buffers 000000014003c1c4     libucrt:initialization.obj
 0004:000011d0       $pdata$__acrt_uninitialize 000000014003c1d0     libucrt:initialization.obj
 0004:000011dc       $pdata$strcpy_s            000000014003c1dc     libucrt:strcpy_s.obj
 0004:000011e8       $pdata$??$parse_integer@KV?$c_string_character_source@D@__crt_strtox@@@__crt_strtox@@YAKQEAU__crt_locale_pointers@@V?$c_string_character_source@D@0@H_N@Z 000000014003c1e8     libucrt:atox.obj
 0004:000011f4       $pdata$??$parse_integer@KV?$c_string_character_source@_W@__crt_strtox@@@__crt_strtox@@YAKQEAU__crt_locale_pointers@@V?$c_string_character_source@_W@0@H_N@Z 000000014003c1f4     libucrt:atox.obj
 0004:00001200       $pdata$_wtol               000000014003c200     libucrt:atox.obj
 0004:00001218       $pdata$??$?RV<lambda_450d765d439847d4c735a33c368b5fc0>@@AEAV<lambda_44731a7d0e6d81c3e6aa82d741081786>@@V<lambda_601a2a7da3b7a96e9554ac7215c4b07c>@@@?$__crt_seh_guarded_call@P6AXH@Z@@QEAAP6AXH@Z$$QEAV<lambda_450d765d439847d4c735a33c368b5fc0>@@AEAV<lambda_44731a7d0e6d81c3e6aa82d741081786>@@$$QEAV<lambda_601a2a7da3b7a96e9554ac7215c4b07c>@@@Z 000000014003c218     libucrt:signal.obj
 0004:00001224       $pdata$__acrt_get_sigabrt_handler 000000014003c224     libucrt:signal.obj
 0004:00001230       $pdata$raise               000000014003c230     libucrt:signal.obj
 0004:0000123c       $pdata$_calloc_base        000000014003c23c     libucrt:calloc_base.obj
 0004:00001248       $pdata$_free_base          000000014003c248     libucrt:free_base.obj
 0004:00001254       $pdata$??$?RV<lambda_bd00b5aa228bd7e7e5b2b5db5fd2933b>@@AEAV<lambda_777d11615145f89ee95b9466d285deeb>@@V<lambda_6e5e48fbd24f9f8f81b203eb3d877683>@@@?$__crt_seh_guarded_call@H@@QEAAH$$QEAV<lambda_bd00b5aa228bd7e7e5b2b5db5fd2933b>@@AEAV<lambda_777d11615145f89ee95b9466d285deeb>@@$$QEAV<lambda_6e5e48fbd24f9f8f81b203eb3d877683>@@@Z 000000014003c254     libucrt:winapi_thunks.obj
 0004:00001260       $pdata$?try_get_function@@YAPEAXW4function_id@?A0x391cf84c@@QEBDQEBW4module_id@2@2@Z 000000014003c260     libucrt:winapi_thunks.obj
 0004:0000126c       $pdata$__acrt_AppPolicyGetProcessTerminationMethodInternal 000000014003c26c     libucrt:winapi_thunks.obj
 0004:00001278       $pdata$__acrt_CompareStringEx 000000014003c278     libucrt:winapi_thunks.obj
 0004:00001284       $pdata$__acrt_EnumSystemLocalesEx 000000014003c284     libucrt:winapi_thunks.obj
 0004:00001290       $pdata$__acrt_FlsAlloc     000000014003c290     libucrt:winapi_thunks.obj
 0004:0000129c       $pdata$__acrt_FlsFree      000000014003c29c     libucrt:winapi_thunks.obj
 0004:000012a8       $pdata$__acrt_FlsGetValue  000000014003c2a8     libucrt:winapi_thunks.obj
 0004:000012b4       $pdata$__acrt_FlsSetValue  000000014003c2b4     libucrt:winapi_thunks.obj
 0004:000012c0       $pdata$__acrt_GetLocaleInfoEx 000000014003c2c0     libucrt:winapi_thunks.obj
 0004:000012cc       $pdata$__acrt_GetUserDefaultLocaleName 000000014003c2cc     libucrt:winapi_thunks.obj
 0004:000012d8       $pdata$__acrt_InitializeCriticalSectionEx 000000014003c2d8     libucrt:winapi_thunks.obj
 0004:000012e4       $pdata$__acrt_IsValidLocaleName 000000014003c2e4     libucrt:winapi_thunks.obj
 0004:000012f0       $pdata$__acrt_LCIDToLocaleName 000000014003c2f0     libucrt:winapi_thunks.obj
 0004:000012fc       $pdata$__acrt_LCMapStringEx 000000014003c2fc     libucrt:winapi_thunks.obj
 0004:00001308       $pdata$__acrt_LocaleNameToLCID 000000014003c308     libucrt:winapi_thunks.obj
 0004:00001314       $pdata$__acrt_can_use_vista_locale_apis 000000014003c314     libucrt:winapi_thunks.obj
 0004:00001320       $pdata$__acrt_eagerly_load_locale_apis 000000014003c320     libucrt:winapi_thunks.obj
 0004:0000132c       $pdata$__acrt_initialize_winapi_thunks 000000014003c32c     libucrt:winapi_thunks.obj
 0004:00001338       $pdata$__acrt_uninitialize_winapi_thunks 000000014003c338     libucrt:winapi_thunks.obj
 0004:00001344       $pdata$_fcloseall          000000014003c344     libucrt:closeall.obj
 0004:00001350       $pdata$__acrt_stdio_free_buffer_nolock 000000014003c350     libucrt:_freebuf.obj
 0004:0000135c       $pdata$?initialize_inherited_file_handles_nolock@@YAXXZ 000000014003c35c     libucrt:ioinit.obj
 0004:00001368       $pdata$?initialize_stdio_handles_nolock@@YAXXZ 000000014003c368     libucrt:ioinit.obj
 0004:00001374       $pdata$__acrt_initialize_lowio 000000014003c374     libucrt:ioinit.obj
 0004:00001380       $pdata$__acrt_uninitialize_lowio 000000014003c380     libucrt:ioinit.obj
 0004:0000138c       $pdata$??$?RV<lambda_0ae27a3a962d80f24befdcbee591983d>@@AEAV<lambda_8d0ee55de4b1038c4002e0adecdf1839>@@V<lambda_dc504788e8f1664fe9b84e20bfb512f2>@@@?$__crt_seh_guarded_call@X@@QEAAX$$QEAV<lambda_0ae27a3a962d80f24befdcbee591983d>@@AEAV<lambda_8d0ee55de4b1038c4002e0adecdf1839>@@$$QEAV<lambda_dc504788e8f1664fe9b84e20bfb512f2>@@@Z 000000014003c38c     libucrt:per_thread_data.obj
 0004:00001398       $pdata$??$?RV<lambda_2d41944a1d46af3157314b8a01080d33>@@AEAV<lambda_8f455de75cd7d7f24b4096f044d8b9e6>@@V<lambda_aa500f224e6afead328df44964fe2772>@@@?$__crt_seh_guarded_call@X@@QEAAX$$QEAV<lambda_2d41944a1d46af3157314b8a01080d33>@@AEAV<lambda_8f455de75cd7d7f24b4096f044d8b9e6>@@$$QEAV<lambda_aa500f224e6afead328df44964fe2772>@@@Z 000000014003c398     libucrt:per_thread_data.obj
 0004:000013a4       $pdata$??$?RV<lambda_aa87e3671a710a21b5dc78c0bdf72e11>@@AEAV<lambda_92619d2358a28f41a33ba319515a20b9>@@V<lambda_6992ecaafeb10aed2b74cb1fae11a551>@@@?$__crt_seh_guarded_call@X@@QEAAX$$QEAV<lambda_aa87e3671a710a21b5dc78c0bdf72e11>@@AEAV<lambda_92619d2358a28f41a33ba319515a20b9>@@$$QEAV<lambda_6992ecaafeb10aed2b74cb1fae11a551>@@@Z 000000014003c3a4     libucrt:per_thread_data.obj
 0004:000013b0       $pdata$??$?RV<lambda_f2e299630e499de9f9a165e60fcd3db5>@@AEAV<lambda_2ae9d31cdba2644fcbeaf08da7c24588>@@V<lambda_40d01ff24d0e7b3814fdbdcee8eab3c7>@@@?$__crt_seh_guarded_call@X@@QEAAX$$QEAV<lambda_f2e299630e499de9f9a165e60fcd3db5>@@AEAV<lambda_2ae9d31cdba2644fcbeaf08da7c24588>@@$$QEAV<lambda_40d01ff24d0e7b3814fdbdcee8eab3c7>@@@Z 000000014003c3b0     libucrt:per_thread_data.obj
 0004:000013bc       $pdata$?construct_ptd_array@@YAXQEAU__acrt_ptd@@@Z 000000014003c3bc     libucrt:per_thread_data.obj
 0004:000013c8       $pdata$?destroy_fls@@YAXPEAX@Z 000000014003c3c8     libucrt:per_thread_data.obj
 0004:000013d4       $pdata$?destroy_ptd_array@@YAXQEAU__acrt_ptd@@@Z 000000014003c3d4     libucrt:per_thread_data.obj
 0004:000013e0       $pdata$?replace_current_thread_locale_nolock@@YAXQEAU__acrt_ptd@@QEAU__crt_locale_data@@@Z 000000014003c3e0     libucrt:per_thread_data.obj
 0004:000013ec       $pdata$__acrt_getptd       000000014003c3ec     libucrt:per_thread_data.obj
 0004:000013f8       $pdata$__acrt_getptd_head  000000014003c3f8     libucrt:per_thread_data.obj
 0004:00001404       $pdata$__acrt_getptd_noexit 000000014003c404     libucrt:per_thread_data.obj
 0004:00001410       $pdata$__acrt_initialize_ptd 000000014003c410     libucrt:per_thread_data.obj
 0004:0000141c       $pdata$__acrt_uninitialize_ptd 000000014003c41c     libucrt:per_thread_data.obj
 0004:00001428       $pdata$_malloc_base        000000014003c428     libucrt:malloc_base.obj
 0004:00001434       $pdata$strtol              000000014003c434     libucrt:strtox.obj
 0004:00001440       $pdata$_mbtowc_l           000000014003c440     libucrt:mbtowc.obj
 0004:0000144c       $pdata$_wctomb_s_l         000000014003c44c     libucrt:wctomb.obj
 0004:00001458       $pdata$wctomb_s            000000014003c458     libucrt:wctomb.obj
 0004:00001464       $pdata$__acrt_update_locale_info 000000014003c464     libucrt:locale_update.obj
 0004:00001470       $pdata$__acrt_update_multibyte_info 000000014003c470     libucrt:locale_update.obj
 0004:0000147c       $pdata$?fp_format_a@@YAHQEBNPEAD_KQEAD2H_NIQEAU__crt_locale_pointers@@@Z 000000014003c47c     libucrt:cvt.obj
 0004:00001488       $pdata$?fp_format_e@@YAHQEBNQEAD_K12H_NIQEAU__crt_locale_pointers@@@Z 000000014003c488     libucrt:cvt.obj
 0004:00001494       $pdata$?fp_format_e_internal@@YAHQEAD_KH_NIQEAU_strflt@@2QEAU__crt_locale_pointers@@@Z 000000014003c494     libucrt:cvt.obj
 0004:000014a0       $pdata$?fp_format_f_internal@@YAHQEAD_KHQEAU_strflt@@_NQEAU__crt_locale_pointers@@@Z 000000014003c4a0     libucrt:cvt.obj
 0004:000014ac       $pdata$?fp_format_g@@YAHQEBNQEAD_K12H_NIQEAU__crt_locale_pointers@@@Z 000000014003c4ac     libucrt:cvt.obj
 0004:000014b8       $pdata$?fp_format_nan_or_infinity@@YAHW4__acrt_fp_class@@_NPEAD_K1@Z 000000014003c4b8     libucrt:cvt.obj
 0004:000014c4       $pdata$__acrt_fp_format    000000014003c4c4     libucrt:cvt.obj
 0004:000014d0       $pdata$_fileno             000000014003c4d0     libucrt:fileno.obj
 0004:000014dc       $pdata$__acrt_stdio_begin_temporary_buffering_nolock 000000014003c4dc     libucrt:_sftbuf.obj
 0004:000014e8       $pdata$__acrt_stdio_end_temporary_buffering_nolock 000000014003c4e8     libucrt:_sftbuf.obj
 0004:000014f4       $pdata$??$?RV<lambda_751a882b2c74d4b022dec766aa51a29a>@@AEAV<lambda_628dfdc04ba53c8bfc02c9951375f3f5>@@V<lambda_f6c7be5f7998530c34de24c7437d6b54>@@@?$__crt_seh_guarded_call@H@@QEAAH$$QEAV<lambda_751a882b2c74d4b022dec766aa51a29a>@@AEAV<lambda_628dfdc04ba53c8bfc02c9951375f3f5>@@$$QEAV<lambda_f6c7be5f7998530c34de24c7437d6b54>@@@Z 000000014003c4f4     libucrt:close.obj
 0004:00001500       $pdata$_close              000000014003c500     libucrt:close.obj
 0004:0000150c       $pdata$_close_nolock       000000014003c50c     libucrt:close.obj
 0004:00001518       $pdata$??$?RV<lambda_a37b2b86f63e897a80ea819b0eb08c01>@@AEAV<lambda_38ce7e780aa69e748d6df282ebc68efe>@@V<lambda_99fb1378e971ab6e7edea83e3a7a83a2>@@@?$__crt_seh_guarded_call@H@@QEAAH$$QEAV<lambda_a37b2b86f63e897a80ea819b0eb08c01>@@AEAV<lambda_38ce7e780aa69e748d6df282ebc68efe>@@$$QEAV<lambda_99fb1378e971ab6e7edea83e3a7a83a2>@@@Z 000000014003c518     libucrt:commit.obj
 0004:00001524       $pdata$_commit             000000014003c524     libucrt:commit.obj
 0004:00001530       $pdata$?write_double_translated_ansi_nolock@@YA?AUwrite_result@?A0x17268360@@HQEBDI@Z 000000014003c530     libucrt:write.obj
 0004:0000153c       $pdata$?write_text_ansi_nolock@@YA?AUwrite_result@?A0x17268360@@HQEBDI@Z 000000014003c53c     libucrt:write.obj
 0004:00001548       $pdata$?write_text_utf16le_nolock@@YA?AUwrite_result@?A0x17268360@@HQEBDI@Z 000000014003c548     libucrt:write.obj
 0004:00001554       $pdata$?write_text_utf8_nolock@@YA?AUwrite_result@?A0x17268360@@HQEBDI@Z 000000014003c554     libucrt:write.obj
 0004:00001560       $pdata$_write              000000014003c560     libucrt:write.obj
 0004:0000156c       $pdata$_write_nolock       000000014003c56c     libucrt:write.obj
 0004:00001578       $pdata$__acrt_stdio_refill_and_read_narrow_nolock 000000014003c578     libucrt:_filbuf.obj
 0004:00001584       $pdata$??$common_ftell@_J@@YA_JV__crt_stdio_stream@@@Z 000000014003c584     libucrt:ftell.obj
 0004:00001590       $pdata$??$common_ftell_nolock@_J@@YA_JV__crt_stdio_stream@@@Z 000000014003c590     libucrt:ftell.obj
 0004:0000159c       $pdata$?common_ftell_read_mode_nolock@@YA_JV__crt_stdio_stream@@_J1@Z 000000014003c59c     libucrt:ftell.obj
 0004:000015a8       $pdata$?common_ftell_translated_utf8_nolock@@YA_JV__crt_stdio_stream@@_J@Z 000000014003c5a8     libucrt:ftell.obj
 0004:000015b4       $pdata$??$write_buffer_nolock@D@@YA_NDV__crt_stdio_stream@@@Z 000000014003c5b4     libucrt:_flsbuf.obj
 0004:000015c0       $pdata$__acrt_stdio_flush_and_write_narrow_nolock 000000014003c5c0     libucrt:_flsbuf.obj
 0004:000015cc       $pdata$??$common_lseek@_J@@YA_JH_JH@Z 000000014003c5cc     libucrt:lseek.obj
 0004:000015d8       $pdata$??$common_lseek_nolock@_J@@YA_JH_JH@Z 000000014003c5d8     libucrt:lseek.obj
 0004:000015e4       $pdata$__acrt_stdio_allocate_buffer_nolock 000000014003c5e4     libucrt:_getbuf.obj
 0004:000015f0       $pdata$?_mbstowcs_l_helper@@YA_KPEA_WPEBD_KPEAU__crt_locale_pointers@@@Z 000000014003c5f0     libucrt:mbstowcs.obj
 0004:000015fc       $pdata$_mbstowcs_s_l       000000014003c5fc     libucrt:mbstowcs.obj
 0004:00001608       $pdata$mbstowcs_s          000000014003c608     libucrt:mbstowcs.obj
 0004:00001614       $pdata$?_wcstombs_l_helper@@YA_KPEADPEB_W_KPEAU__crt_locale_pointers@@@Z 000000014003c614     libucrt:wcstombs.obj
 0004:00001620       $pdata$_wcstombs_s_l       000000014003c620     libucrt:wcstombs.obj
 0004:0000162c       $pdata$_isctype_l          000000014003c62c     libucrt:isctype.obj
 0004:00001638       $pdata$?InternalGetLocaleInfoA@@YAHQEAU__crt_locale_pointers@@QEB_WKQEADH@Z 000000014003c638     libucrt:getlocaleinfoa.obj
 0004:00001644       $pdata$__acrt_GetLocaleInfoA 000000014003c644     libucrt:getlocaleinfoa.obj
 0004:00001650       $pdata$__acrt_GetStringTypeA 000000014003c650     libucrt:getstringtypea.obj
 0004:0000165c       $pdata$?__acrt_LCMapStringA_stat@@YAHPEAU__crt_locale_pointers@@PEB_WKPEBDHPEADHHH@Z 000000014003c65c     libucrt:lcmapstringa.obj
 0004:00001668       $pdata$__acrt_LCMapStringA 000000014003c668     libucrt:lcmapstringa.obj
 0004:00001674       $pdata$_realloc_base       000000014003c674     libucrt:realloc_base.obj
 0004:00001680       $pdata$iswctype            000000014003c680     libucrt:iswctype.obj
 0004:0000168c       $pdata$_raise_exc          000000014003c68c     libucrt:fpexcept.obj
 0004:00001698       $pdata$_raise_exc_ex       000000014003c698     libucrt:fpexcept.obj
 0004:000016a4       $pdata$_raise_excf         000000014003c6a4     libucrt:fpexcept.obj
 0004:000016b0       $pdata$_set_errno_from_matherr 000000014003c6b0     libucrt:fpexcept.obj
 0004:000016bc       $pdata$_clrfp              000000014003c6bc     libucrt:fpctrl.obj
 0004:000016c8       $pdata$_ctrlfp             000000014003c6c8     libucrt:fpctrl.obj
 0004:000016d4       $pdata$_set_statfp         000000014003c6d4     libucrt:fpctrl.obj
 0004:000016e0       $pdata$_statfp             000000014003c6e0     libucrt:fpctrl.obj
 0004:000016ec       $pdata$__acrt_initialize_fma3 000000014003c6ec     libucrt:fma3_available.obj
 0004:000016f8       $pdata$_pow_special        000000014003c6f8     libucrt:pow_special.obj
 0004:00001704       $pdata$_powf_special       000000014003c704     libucrt:pow_special.obj
 0004:00001710       $pdata$__acrt_WideCharToMultiByte 000000014003c710     libucrt:widechartomultibyte.obj
 0004:0000171c       $pdata$_wcsicmp            000000014003c71c     libucrt:wcsicmp.obj
 0004:00001728       $pdata$_wcsicmp_l          000000014003c728     libucrt:wcsicmp.obj
 0004:00001734       $pdata$_isleadbyte_l       000000014003c734     libucrt:_wctype.obj
 0004:00001740       $pdata$wcscat_s            000000014003c740     libucrt:wcscat_s.obj
 0004:0000174c       $pdata$wcsncpy_s           000000014003c74c     libucrt:wcsncpy_s.obj
 0004:00001758       $pdata$??$common_expand_argv_wildcards@D@@YAHQEAPEADQEAPEAPEAD@Z 000000014003c758     libucrt:argv_wildcards.obj
 0004:00001764       $pdata$??$copy_and_add_argument_to_buffer@D@@YAHQEBD0_KAEAV?$argument_list@D@?A0x5f5c8891@@@Z 000000014003c764     libucrt:argv_wildcards.obj
 0004:00001770       $pdata$??$expand_argument_wildcards@D@@YAHQEAD0AEAV?$argument_list@D@?A0x5f5c8891@@@Z 000000014003c770     libucrt:argv_wildcards.obj
 0004:0000177c       $pdata$__acrt_GetModuleFileNameA 000000014003c77c     libucrt:getmodulefilenamea.obj
 0004:00001788       $pdata$??$?RV<lambda_efdfa57d1f175319df784efa44bb7b81>@@AEAV<lambda_5f0a4c1567f8adc6734073e5d1e1b35c>@@V<lambda_2e8a7d3640ea6ccb4c2413664c2db6fd>@@@?$__crt_seh_guarded_call@X@@QEAAX$$QEAV<lambda_efdfa57d1f175319df784efa44bb7b81>@@AEAV<lambda_5f0a4c1567f8adc6734073e5d1e1b35c>@@$$QEAV<lambda_2e8a7d3640ea6ccb4c2413664c2db6fd>@@@Z 000000014003c788     libucrt:mbctype.obj
 0004:00001794       $pdata$?getSystemCP@@YAHH@Z 000000014003c794     libucrt:mbctype.obj
 0004:000017a0       $pdata$?setSBCS@@YAXPEAU__crt_multibyte_data@@@Z 000000014003c7a0     libucrt:mbctype.obj
 0004:000017ac       $pdata$?setSBUpLow@@YAXPEAU__crt_multibyte_data@@@Z 000000014003c7ac     libucrt:mbctype.obj
 0004:000017b8       $pdata$?setmbcp_internal@@YAHH_NQEAU__acrt_ptd@@QEAPEAU__crt_multibyte_data@@@Z 000000014003c7b8     libucrt:mbctype.obj
 0004:000017c4       $pdata$?update_thread_multibyte_data_internal@@YAPEAU__crt_multibyte_data@@QEAU__acrt_ptd@@QEAPEAU1@@Z 000000014003c7c4     libucrt:mbctype.obj
 0004:000017d0       $pdata$__acrt_initialize_multibyte 000000014003c7d0     libucrt:mbctype.obj
 0004:000017dc       $pdata$__acrt_update_thread_multibyte_data 000000014003c7dc     libucrt:mbctype.obj
 0004:000017e8       $pdata$_setmbcp_nolock     000000014003c7e8     libucrt:mbctype.obj
 0004:000017f4       $pdata$__dcrt_get_narrow_environment_from_os 000000014003c7f4     libucrt:get_environment_from_os.obj
 0004:00001800       $pdata$??$common_set_variable_in_environment_nolock@D@@YAHQEADH@Z 000000014003c800     libucrt:setenv.obj
 0004:0000180c       $pdata$??$copy_environment@D@@YAPEAPEADQEAPEAD@Z 000000014003c80c     libucrt:setenv.obj
 0004:00001818       $pdata$__acrt_get_process_end_policy 000000014003c818     libucrt:win_policies.obj
 0004:00001824       $pdata$__acrt_lowio_create_handle_array 000000014003c824     libucrt:osfinfo.obj
 0004:00001830       $pdata$__acrt_lowio_destroy_handle_array 000000014003c830     libucrt:osfinfo.obj
 0004:0000183c       $pdata$__acrt_lowio_ensure_fh_exists 000000014003c83c     libucrt:osfinfo.obj
 0004:00001848       $pdata$_free_osfhnd        000000014003c848     libucrt:osfinfo.obj
 0004:00001854       $pdata$_get_osfhandle      000000014003c854     libucrt:osfinfo.obj
 0004:00001860       $pdata$__acrt_locale_free_monetary 000000014003c860     libucrt:initmon.obj
 0004:0000186c       $pdata$__acrt_locale_initialize_monetary 000000014003c86c     libucrt:initmon.obj
 0004:00001878       $pdata$__acrt_locale_free_numeric 000000014003c878     libucrt:initnum.obj
 0004:00001884       $pdata$__acrt_locale_initialize_numeric 000000014003c884     libucrt:initnum.obj
 0004:00001890       $pdata$?free_crt_array_internal@@YAXQEAPEBX_K@Z 000000014003c890     libucrt:inittime.obj
 0004:0000189c       $pdata$?initialize_lc_time@@YA_NQEAU__crt_lc_time_data@@QEAU__crt_locale_data@@@Z 000000014003c89c     libucrt:inittime.obj
 0004:000018a8       $pdata$__acrt_locale_free_time 000000014003c8a8     libucrt:inittime.obj
 0004:000018b4       $pdata$__acrt_locale_initialize_time 000000014003c8b4     libucrt:inittime.obj
 0004:000018c0       $pdata$__acrt_free_locale  000000014003c8c0     libucrt:locale_refcounting.obj
 0004:000018cc       $pdata$__acrt_locale_free_lc_time_if_unreferenced 000000014003c8cc     libucrt:locale_refcounting.obj
 0004:000018d8       $pdata$__acrt_release_locale_ref 000000014003c8d8     libucrt:locale_refcounting.obj
 0004:000018e4       $pdata$__acrt_update_thread_locale_data 000000014003c8e4     libucrt:locale_refcounting.obj
 0004:000018f0       $pdata$_updatetlocinfoEx_nolock 000000014003c8f0     libucrt:locale_refcounting.obj
 0004:000018fc       $pdata$GetLocaleNameFromDefault 000000014003c8fc     libucrt:get_qualified_locale.obj
 0004:00001908       $pdata$GetLocaleNameFromLangCountry 000000014003c908     libucrt:get_qualified_locale.obj
 0004:00001914       $pdata$GetLocaleNameFromLanguage 000000014003c914     libucrt:get_qualified_locale.obj
 0004:00001920       $pdata$LangCountryEnumProcEx 000000014003c920     libucrt:get_qualified_locale.obj
 0004:0000192c       $pdata$LanguageEnumProcEx  000000014003c92c     libucrt:get_qualified_locale.obj
 0004:00001938       $pdata$ProcessCodePage     000000014003c938     libucrt:get_qualified_locale.obj
 0004:00001944       $pdata$TestDefaultCountry  000000014003c944     libucrt:get_qualified_locale.obj
 0004:00001950       $pdata$TranslateName       000000014003c950     libucrt:get_qualified_locale.obj
 0004:0000195c       $pdata$__acrt_get_qualified_locale 000000014003c95c     libucrt:get_qualified_locale.obj
 0004:00001968       $pdata$CountryEnumProc     000000014003c968     libucrt:getqloc_downlevel.obj
 0004:00001974       $pdata$GetLcidFromLangCountry 000000014003c974     libucrt:getqloc_downlevel.obj
 0004:00001980       $pdata$GetLcidFromLanguage 000000014003c980     libucrt:getqloc_downlevel.obj
 0004:0000198c       $pdata$LangCountryEnumProc 000000014003c98c     libucrt:getqloc_downlevel.obj
 0004:00001998       $pdata$LanguageEnumProc    000000014003c998     libucrt:getqloc_downlevel.obj
 0004:000019a4       $pdata$ProcessCodePage     000000014003c9a4     libucrt:getqloc_downlevel.obj
 0004:000019b0       $pdata$TestDefaultLanguage 000000014003c9b0     libucrt:getqloc_downlevel.obj
 0004:000019bc       $pdata$TranslateName       000000014003c9bc     libucrt:getqloc_downlevel.obj
 0004:000019c8       $pdata$__acrt_get_qualified_locale_downlevel 000000014003c9c8     libucrt:getqloc_downlevel.obj
 0004:000019d4       $pdata$_recalloc_base      000000014003c9d4     libucrt:recalloc.obj
 0004:000019e0       $pdata$__acrt_initialize_heap 000000014003c9e0     libucrt:heap_handle.obj
 0004:000019ec       $pdata$__acrt_execute_initializers 000000014003c9ec     libucrt:shared_initialization.obj
 0004:000019f8       $pdata$__acrt_execute_uninitializers 000000014003c9f8     libucrt:shared_initialization.obj
 0004:00001a04       $pdata$?GetTableIndexFromLocaleName@@YAHPEB_W@Z 000000014003ca04     libucrt:lcidtoname_downlevel.obj
 0004:00001a10       $pdata$__acrt_DownlevelLCIDToLocaleName 000000014003ca10     libucrt:lcidtoname_downlevel.obj
 0004:00001a1c       $pdata$__acrt_DownlevelLocaleNameToLCID 000000014003ca1c     libucrt:lcidtoname_downlevel.obj
 0004:00001a28       $pdata$?__mbrtowc_utf8@__crt_mbstring@@YA_KPEA_WPEBD_KPEAU_Mbstatet@@@Z 000000014003ca28     libucrt:mbrtowc.obj
 0004:00001a34       $pdata$?__mbsrtowcs_utf8@__crt_mbstring@@YA_KPEA_WPEAPEBD_KPEAU_Mbstatet@@@Z 000000014003ca34     libucrt:mbrtowc.obj
 0004:00001a40       $pdata$__acrt_fp_strflt_to_string 000000014003ca40     libucrt:_fptostr.obj
 0004:00001a4c       $pdata$__acrt_fltout       000000014003ca4c     libucrt:cfout.obj
 0004:00001a58       $pdata$_isatty             000000014003ca58     libucrt:isatty.obj
 0004:00001a64       $pdata$_putwch_nolock      000000014003ca64     libucrt:putwch.obj
 0004:00001a70       $pdata$??$translate_text_mode_nolock@D@@YAHHQEAD_K@Z 000000014003ca70     libucrt:read.obj
 0004:00001a7c       $pdata$??$translate_text_mode_nolock@_W@@YAHHQEA_W_K@Z 000000014003ca7c     libucrt:read.obj
 0004:00001a88       $pdata$?translate_ansi_or_utf8_nolock@@YAHHQEAD_KQEA_W1@Z 000000014003ca88     libucrt:read.obj
 0004:00001a94       $pdata$_read               000000014003ca94     libucrt:read.obj
 0004:00001aa0       $pdata$_read_nolock        000000014003caa0     libucrt:read.obj
 0004:00001aac       $pdata$?__wcsrtombs_utf8@__crt_mbstring@@YA_KPEADPEAPEB_W_KPEAU_Mbstatet@@@Z 000000014003caac     libucrt:wcrtomb.obj
 0004:00001ab8       $pdata$strncpy_s           000000014003cab8     libucrt:strncpy_s.obj
 0004:00001ac4       $pdata$__acrt_fenv_set_control 000000014003cac4     libucrt:_fenvutils.obj
 0004:00001adc       $pdata$_call_matherr       000000014003cadc     libucrt:libm_error.obj
 0004:00001ae8       $pdata$_exception_enabled  000000014003cae8     libucrt:libm_error.obj
 0004:00001af4       $pdata$_handle_error       000000014003caf4     libucrt:libm_error.obj
 0004:00001b00       $pdata$_handle_errorf      000000014003cb00     libucrt:libm_error.obj
 0004:00001b0c       $pdata$_towlower_l         000000014003cb0c     libucrt:towlower.obj
 0004:00001b18       $pdata$qsort               000000014003cb18     libucrt:qsort.obj
 0004:00001b24       $pdata$4$qsort             000000014003cb24     libucrt:qsort.obj
 0004:00001b30       $pdata$5$qsort             000000014003cb30     libucrt:qsort.obj
 0004:00001b3c       $pdata$fallbackMethod      000000014003cb3c     libucrt:strpbrk.obj
 0004:00001b48       $pdata$strpbrk             000000014003cb48     libucrt:strpbrk.obj
 0004:00001b54       $pdata$??$__acrt_convert_wcs_mbs@D_W$$A6A_KPEA_WPEBD_KPEAU__crt_locale_pointers@@@ZU__crt_win32_buffer_internal_dynamic_resizing@@@@YAHQEBDAEAV?$__crt_win32_buffer@_WU__crt_win32_buffer_internal_dynamic_resizing@@@@A6A_KPEA_WPEBD_KPEAU__crt_locale_pointers@@@Z5@Z 000000014003cb54     libucrt:findfirstfileexa.obj
 0004:00001b60       $pdata$__acrt_FindFirstFileExA 000000014003cb60     libucrt:findfirstfileexa.obj
 0004:00001b6c       $pdata$??$__acrt_convert_wcs_mbs@_WD$$A6A_KPEADPEB_W_KPEAU__crt_locale_pointers@@@ZU__crt_win32_buffer_no_resizing@@@@YAHQEB_WAEAV?$__crt_win32_buffer@DU__crt_win32_buffer_no_resizing@@@@A6A_KPEADPEB_W_KPEAU__crt_locale_pointers@@@Z5@Z 000000014003cb6c     libucrt:findnextfilea.obj
 0004:00001b78       $pdata$__acrt_FindNextFileA 000000014003cb78     libucrt:findnextfilea.obj
 0004:00001b84       $pdata$_mbsdec_l           000000014003cb84     libucrt:mbsdec.obj
 0004:00001b90       $pdata$?initialize_multibyte@@YAHXZ 000000014003cb90     libucrt:multibyte_initializer.obj
 0004:00001b9c       $pdata$_strnicoll_l        000000014003cb9c     libucrt:strnicol.obj
 0004:00001ba8       $pdata$__acrt_SetEnvironmentVariableA 000000014003cba8     libucrt:setenvironmentvariablea.obj
 0004:00001bb4       $pdata$??$common_xtox@K_W@@YAHKQEA_W_KI_N@Z 000000014003cbb4     libucrt:xtoa.obj
 0004:00001bc0       $pdata$??$common_xtox_s@K_W@@YAHKQEA_W_KI_N@Z 000000014003cbc0     libucrt:xtoa.obj
 0004:00001bcc       $pdata$_itow_s             000000014003cbcc     libucrt:xtoa.obj
 0004:00001bd8       $pdata$_wcsnicmp           000000014003cbd8     libucrt:wcsnicmp.obj
 0004:00001be4       $pdata$_wcsnicmp_l         000000014003cbe4     libucrt:wcsnicmp.obj
 0004:00001bf0       $pdata$_msize_base         000000014003cbf0     libucrt:msize.obj
 0004:00001bfc       $pdata$?__mbrtoc32_utf8@__crt_mbstring@@YA_KPEA_UPEBD_KPEAU_Mbstatet@@@Z 000000014003cbfc     libucrt:mbrtoc32.obj
 0004:00001c08       $pdata$fegetenv            000000014003cc08     libucrt:fegetenv.obj
 0004:00001c14       $pdata$fesetenv            000000014003cc14     libucrt:fesetenv.obj
 0004:00001c20       $pdata$feholdexcept        000000014003cc20     libucrt:feholdexcept.obj
 0004:00001c38       $pdata$__dcrt_lowio_ensure_console_output_initialized 000000014003cc38     libucrt:initcon.obj
 0004:00001c44       $pdata$__dcrt_terminate_console_output 000000014003cc44     libucrt:initcon.obj
 0004:00001c50       $pdata$__dcrt_write_console 000000014003cc50     libucrt:initcon.obj
 0004:00001c5c       $pdata$?__c16rtomb_utf8@__crt_mbstring@@YA_KPEAD_SPEAU_Mbstatet@@@Z 000000014003cc5c     libucrt:c16rtomb.obj
 0004:00001c68       $pdata$__acrt_LCMapStringW 000000014003cc68     libucrt:lcmapstringw.obj
 0004:00001c74       $pdata$__ascii_strnicmp    000000014003cc74     libucrt:strnicmp.obj
 0004:00001c80       $pdata$_strnicmp           000000014003cc80     libucrt:strnicmp.obj
 0004:00001c8c       $pdata$_strnicmp_l         000000014003cc8c     libucrt:strnicmp.obj
 0004:00001c98       $pdata$?InternalCompareStringA@@YAHPEAU__crt_locale_pointers@@PEB_WKPEBDH2HH@Z 000000014003cc98     libucrt:comparestringa.obj
 0004:00001ca4       $pdata$__acrt_CompareStringA 000000014003cca4     libucrt:comparestringa.obj
 0004:00001cb0       $pdata$_clearfp            000000014003ccb0     libucrt:ieee.obj
 0004:00001cbc       $pdata$_log10_special      000000014003ccbc     libucrt:log_special.obj
 0004:00001cc8       $pdata$_log_special_common 000000014003ccc8     libucrt:log_special.obj
 0004:00001cd4       $pdata$?__c32rtomb_utf8@__crt_mbstring@@YA_KPEAD_UPEAU_Mbstatet@@@Z 000000014003ccd4     libucrt:c32rtomb.obj
 0004:00001ce0       $pdata$_IsNonwritableInCurrentImage 000000014003cce0     LIBCMT:pesect.obj
 0004:00001cec       $pdata$strrchr             000000014003ccec     libvcruntime:strrchr.obj
 0004:00001cf8       $pdata$strchr              000000014003ccf8     libvcruntime:strchr.obj
 0004:00001d04       $pdata$wcschr              000000014003cd04     libvcruntime:wcschr.obj
 0004:00001d1c       $pdata$?dtor$0@?0???0?$basic_ostream@DU?$char_traits@D@std@@@std@@QEAA@PEAV?$basic_streambuf@DU?$char_traits@D@std@@@1@_N@Z@4HA 000000014003cd1c     libcpmt:cout.obj
 0004:00001d28       $pdata$?dtor$0@?0??_Getcat@?$codecvt@DDU_Mbstatet@@@std@@SA_KPEAPEBVfacet@locale@2@PEBV42@@Z@4HA 000000014003cd28     libcpmt:cout.obj
 0004:00001d34       $pdata$?dtor$0@?0???0?$basic_istream@DU?$char_traits@D@std@@@std@@QEAA@PEAV?$basic_streambuf@DU?$char_traits@D@std@@@1@_N@Z@4HA 000000014003cd34     libcpmt:cin.obj
 0004:00001d40       $pdata$?filt$0@?0??__scrt_common_main_seh@@YAHXZ@4HA 000000014003cd40     LIBCMT:exe_main.obj
 0004:00001d4c       $pdata$__scrt_is_nonwritable_in_current_image$filt$0 000000014003cd4c     LIBCMT:utility.obj
 0004:00001d58       $pdata$_CallSETranslator$filt$0 000000014003cd58     libvcruntime:risctrnsctrl.obj
 0004:00001d64       $pdata$__DestructExceptionObject$filt$0 000000014003cd64     libvcruntime:ehhelpers.obj
 0004:00001d70       $pdata$__CxxCallCatchBlock$filt$0 000000014003cd70     libvcruntime:frame.obj
 0004:00001d7c       $pdata$__CxxCallCatchBlock$fin$1 000000014003cd7c     libvcruntime:frame.obj
 0004:00001d88       $pdata$__FrameUnwindToState$filt$0 000000014003cd88     libvcruntime:frame.obj
 0004:00001d94       $pdata$__FrameUnwindToState$fin$1 000000014003cd94     libvcruntime:frame.obj
 0004:00001da0       $pdata$?fin$0@?0???$?RV<lambda_a62c933ada0517137acf5807a1eeac1f>@@AEAV<lambda_a31071773b9a94e445cbd5d04ef99106>@@V<lambda_56065050dbf3ada7e59a83db45153de3>@@@?$__crt_seh_guarded_call@H@@QEAAH$$QEAV<lambda_a62c933ada0517137acf5807a1eeac1f>@@AEAV<lambda_a31071773b9a94e445cbd5d04ef99106>@@$$QEAV<lambda_56065050dbf3ada7e59a83db45153de3>@@@Z@4HA 000000014003cda0     libucrt:output.obj
 0004:00001da0       $pdata$?fin$0@?0???$?RV<lambda_842d9ff0dc9ef11c61343bbaebe7f885>@@AEAV<lambda_c5860995281e5c4ce005b3de8f5874ee>@@V<lambda_d90129c13df834fdcbf8d2b88dafcf2d>@@@?$__crt_seh_guarded_call@X@@QEAAX$$QEAV<lambda_842d9ff0dc9ef11c61343bbaebe7f885>@@AEAV<lambda_c5860995281e5c4ce005b3de8f5874ee>@@$$QEAV<lambda_d90129c13df834fdcbf8d2b88dafcf2d>@@@Z@4HA 000000014003cda0     libucrt:fflush.obj
 0004:00001da0       $pdata$?fin$0@?0???$?RV<lambda_84ec643ea9557e2f7dc01bb0e9624395>@@AEAV<lambda_ca71763b3c0644891230e4f79ea54fa6>@@V<lambda_439a761618c59b0600e24586724d733b>@@@?$__crt_seh_guarded_call@H@@QEAAH$$QEAV<lambda_84ec643ea9557e2f7dc01bb0e9624395>@@AEAV<lambda_ca71763b3c0644891230e4f79ea54fa6>@@$$QEAV<lambda_439a761618c59b0600e24586724d733b>@@@Z@4HA 000000014003cda0     libucrt:setvbuf.obj
 0004:00001da0       $pdata$?fin$0@?0???$?RV<lambda_c376a267cfb53b6959b3b692ec76b120>@@AEAV<lambda_9a32fed5bf61b6b509b2d3f6003082a1>@@V<lambda_572fbb9fa0ab338edf41edfd4b5fcc8d>@@@?$__crt_seh_guarded_call@H@@QEAAH$$QEAV<lambda_c376a267cfb53b6959b3b692ec76b120>@@AEAV<lambda_9a32fed5bf61b6b509b2d3f6003082a1>@@$$QEAV<lambda_572fbb9fa0ab338edf41edfd4b5fcc8d>@@@Z@4HA 000000014003cda0     libucrt:fflush.obj
 0004:00001da0       $pdata$?fin$0@?0???$?RV<lambda_bdbcead8b570fa3d5ec6d9679862a6e5>@@AEAV<lambda_96f4279ff90247a4c5c5d9824f56f8c1>@@V<lambda_4606be27f17b5e5579e09050fab91818>@@@?$__crt_seh_guarded_call@_K@@QEAA_K$$QEAV<lambda_bdbcead8b570fa3d5ec6d9679862a6e5>@@AEAV<lambda_96f4279ff90247a4c5c5d9824f56f8c1>@@$$QEAV<lambda_4606be27f17b5e5579e09050fab91818>@@@Z@4HA 000000014003cda0     libucrt:fwrite.obj
 0004:00001dac       $pdata$?fin$0@?0???$common_ftell@_J@@YA_JV__crt_stdio_stream@@@Z@4HA 000000014003cdac     libucrt:ftell.obj
 0004:00001dac       $pdata$?fin$0@?0??common_fseek@@YAHV__crt_stdio_stream@@_JH@Z@4HA 000000014003cdac     libucrt:fseek.obj
 0004:00001dac       $pdata$fclose$fin$0        000000014003cdac     libucrt:fclose.obj
 0004:00001db8       $pdata$?fin$0@?0???$?RV<lambda_886d6c58226a84441f68b9f2b8217b83>@@AEAV<lambda_ab61a845afdef5b7c387490eaf3616ee>@@V<lambda_f7f22ab5edc0698d5f6905b0d3f44752>@@@?$__crt_seh_guarded_call@X@@QEAAX$$QEAV<lambda_886d6c58226a84441f68b9f2b8217b83>@@AEAV<lambda_ab61a845afdef5b7c387490eaf3616ee>@@$$QEAV<lambda_f7f22ab5edc0698d5f6905b0d3f44752>@@@Z@4HA 000000014003cdb8     libucrt:fflush.obj
 0004:00001dc4       $pdata$fgetc$fin$0         000000014003cdc4     libucrt:fgetc.obj
 0004:00001dd0       $pdata$fputc$fin$0         000000014003cdd0     libucrt:fputc.obj
 0004:00001ddc       $pdata$ungetc$fin$0        000000014003cddc     libucrt:ungetc.obj
 0004:00001de8       $pdata$?fin$0@?0???$?RV<lambda_9bd929c17696992ce54f1d748594fc62>@@AEAV<lambda_082c17da81b0962e08c0587ee0fac50c>@@V<lambda_9c08ac857f4975304d44e9f601d9b878>@@@?$__crt_seh_guarded_call@PEAD@@QEAAPEAD$$QEAV<lambda_9bd929c17696992ce54f1d748594fc62>@@AEAV<lambda_082c17da81b0962e08c0587ee0fac50c>@@$$QEAV<lambda_9c08ac857f4975304d44e9f601d9b878>@@@Z@4HA 000000014003cde8     libucrt:setlocale.obj
 0004:00001de8       $pdata$?fin$0@?0???$?RV<lambda_0ae27a3a962d80f24befdcbee591983d>@@AEAV<lambda_8d0ee55de4b1038c4002e0adecdf1839>@@V<lambda_dc504788e8f1664fe9b84e20bfb512f2>@@@?$__crt_seh_guarded_call@X@@QEAAX$$QEAV<lambda_0ae27a3a962d80f24befdcbee591983d>@@AEAV<lambda_8d0ee55de4b1038c4002e0adecdf1839>@@$$QEAV<lambda_dc504788e8f1664fe9b84e20bfb512f2>@@@Z@4HA 000000014003cde8     libucrt:per_thread_data.obj
 0004:00001de8       $pdata$?fin$0@?0???$?RV<lambda_7777bce6b2f8c936911f934f8298dc43>@@AEAV<lambda_f03950bc5685219e0bcd2087efbe011e>@@V<lambda_3883c3dff614d5e0c5f61bb1ac94921c>@@@?$__crt_seh_guarded_call@H@@QEAAH$$QEAV<lambda_7777bce6b2f8c936911f934f8298dc43>@@AEAV<lambda_f03950bc5685219e0bcd2087efbe011e>@@$$QEAV<lambda_3883c3dff614d5e0c5f61bb1ac94921c>@@@Z@4HA 000000014003cde8     libucrt:onexit.obj
 0004:00001de8       $pdata$?fin$0@?0???$?RV<lambda_450d765d439847d4c735a33c368b5fc0>@@AEAV<lambda_44731a7d0e6d81c3e6aa82d741081786>@@V<lambda_601a2a7da3b7a96e9554ac7215c4b07c>@@@?$__crt_seh_guarded_call@P6AXH@Z@@QEAAP6AXH@Z$$QEAV<lambda_450d765d439847d4c735a33c368b5fc0>@@AEAV<lambda_44731a7d0e6d81c3e6aa82d741081786>@@$$QEAV<lambda_601a2a7da3b7a96e9554ac7215c4b07c>@@@Z@4HA 000000014003cde8     libucrt:signal.obj
 0004:00001de8       $pdata$?fin$0@?0???$?RV<lambda_8369fcb7c4df1e85de37618bd2b85f07>@@AEAV<lambda_a10e4b102d4a2c3aac6f4f48bbdf488f>@@V<lambda_5b7707bd6d7a0c4713179f36c7fd995d>@@@?$__crt_seh_guarded_call@H@@QEAAH$$QEAV<lambda_8369fcb7c4df1e85de37618bd2b85f07>@@AEAV<lambda_a10e4b102d4a2c3aac6f4f48bbdf488f>@@$$QEAV<lambda_5b7707bd6d7a0c4713179f36c7fd995d>@@@Z@4HA 000000014003cde8     libucrt:onexit.obj
 0004:00001de8       $pdata$?fin$0@?0???$?RV<lambda_d80eeec6fff315bfe5c115232f3240e3>@@AEAV<lambda_6e4b09c48022b2350581041d5f6b0c4c>@@V<lambda_2358e3775559c9db80273638284d5e45>@@@?$__crt_seh_guarded_call@X@@QEAAX$$QEAV<lambda_d80eeec6fff315bfe5c115232f3240e3>@@AEAV<lambda_6e4b09c48022b2350581041d5f6b0c4c>@@$$QEAV<lambda_2358e3775559c9db80273638284d5e45>@@@Z@4HA 000000014003cde8     libucrt:exit.obj
 0004:00001de8       $pdata$?fin$0@?0???$?RV<lambda_2d41944a1d46af3157314b8a01080d33>@@AEAV<lambda_8f455de75cd7d7f24b4096f044d8b9e6>@@V<lambda_aa500f224e6afead328df44964fe2772>@@@?$__crt_seh_guarded_call@X@@QEAAX$$QEAV<lambda_2d41944a1d46af3157314b8a01080d33>@@AEAV<lambda_8f455de75cd7d7f24b4096f044d8b9e6>@@$$QEAV<lambda_aa500f224e6afead328df44964fe2772>@@@Z@4HA 000000014003cde8     libucrt:per_thread_data.obj
 0004:00001de8       $pdata$?fin$0@?0???$?RV<lambda_bd00b5aa228bd7e7e5b2b5db5fd2933b>@@AEAV<lambda_777d11615145f89ee95b9466d285deeb>@@V<lambda_6e5e48fbd24f9f8f81b203eb3d877683>@@@?$__crt_seh_guarded_call@H@@QEAAH$$QEAV<lambda_bd00b5aa228bd7e7e5b2b5db5fd2933b>@@AEAV<lambda_777d11615145f89ee95b9466d285deeb>@@$$QEAV<lambda_6e5e48fbd24f9f8f81b203eb3d877683>@@@Z@4HA 000000014003cde8     libucrt:winapi_thunks.obj
 0004:00001de8       $pdata$?fin$0@?0???$?RV<lambda_f2e299630e499de9f9a165e60fcd3db5>@@AEAV<lambda_2ae9d31cdba2644fcbeaf08da7c24588>@@V<lambda_40d01ff24d0e7b3814fdbdcee8eab3c7>@@@?$__crt_seh_guarded_call@X@@QEAAX$$QEAV<lambda_f2e299630e499de9f9a165e60fcd3db5>@@AEAV<lambda_2ae9d31cdba2644fcbeaf08da7c24588>@@$$QEAV<lambda_40d01ff24d0e7b3814fdbdcee8eab3c7>@@@Z@4HA 000000014003cde8     libucrt:per_thread_data.obj
 0004:00001de8       $pdata$?fin$0@?0???$?RV<lambda_1d892b297fdedeee07ed8124eeb2f2fa>@@AEAV<lambda_ffc046909424fd52df0ac47e64813305>@@V<lambda_01a7098693036236037e7cdb9bca3d73>@@@?$__crt_seh_guarded_call@X@@QEAAX$$QEAV<lambda_1d892b297fdedeee07ed8124eeb2f2fa>@@AEAV<lambda_ffc046909424fd52df0ac47e64813305>@@$$QEAV<lambda_01a7098693036236037e7cdb9bca3d73>@@@Z@4HA 000000014003cde8     libucrt:wsetlocale.obj
 0004:00001de8       $pdata$?fin$0@?0???$?RV<lambda_efdfa57d1f175319df784efa44bb7b81>@@AEAV<lambda_5f0a4c1567f8adc6734073e5d1e1b35c>@@V<lambda_2e8a7d3640ea6ccb4c2413664c2db6fd>@@@?$__crt_seh_guarded_call@X@@QEAAX$$QEAV<lambda_efdfa57d1f175319df784efa44bb7b81>@@AEAV<lambda_5f0a4c1567f8adc6734073e5d1e1b35c>@@$$QEAV<lambda_2e8a7d3640ea6ccb4c2413664c2db6fd>@@@Z@4HA 000000014003cde8     libucrt:mbctype.obj
 0004:00001de8       $pdata$?fin$0@?0???$?RV<lambda_aa87e3671a710a21b5dc78c0bdf72e11>@@AEAV<lambda_92619d2358a28f41a33ba319515a20b9>@@V<lambda_6992ecaafeb10aed2b74cb1fae11a551>@@@?$__crt_seh_guarded_call@X@@QEAAX$$QEAV<lambda_aa87e3671a710a21b5dc78c0bdf72e11>@@AEAV<lambda_92619d2358a28f41a33ba319515a20b9>@@$$QEAV<lambda_6992ecaafeb10aed2b74cb1fae11a551>@@@Z@4HA 000000014003cde8     libucrt:per_thread_data.obj
 0004:00001df4       $pdata$_query_new_handler$fin$0 000000014003cdf4     libucrt:new_handler.obj
 0004:00001e00       $pdata$?filt$0@?0???R<lambda_6e4b09c48022b2350581041d5f6b0c4c>@@QEBA@XZ@4HA 000000014003ce00     libucrt:exit.obj
 0004:00001e0c       $pdata$?fin$0@?0???$?RV<lambda_410d79af7f07d98d83a3f525b3859a53>@@AEAV<lambda_3e16ef9562a7dcce91392c22ab16ea36>@@V<lambda_38119f0e861e05405d8a144b9b982f0a>@@@?$__crt_seh_guarded_call@X@@QEAAX$$QEAV<lambda_410d79af7f07d98d83a3f525b3859a53>@@AEAV<lambda_3e16ef9562a7dcce91392c22ab16ea36>@@$$QEAV<lambda_38119f0e861e05405d8a144b9b982f0a>@@@Z@4HA 000000014003ce0c     libucrt:wsetlocale.obj
 0004:00001e18       $pdata$?fin$0@?0???$?RV<lambda_7f2adfce497ff2baa965cd4f576ecfd1>@@AEAV<lambda_2a444430fde8c29194d880d93eed5e8f>@@AEAV<lambda_8dff2cf36a5417162780cd64fa2883ef>@@@?$__crt_seh_guarded_call@X@@QEAAX$$QEAV<lambda_7f2adfce497ff2baa965cd4f576ecfd1>@@AEAV<lambda_2a444430fde8c29194d880d93eed5e8f>@@AEAV<lambda_8dff2cf36a5417162780cd64fa2883ef>@@@Z@4HA 000000014003ce18     libucrt:wsetlocale.obj
 0004:00001e24       $pdata$raise$fin$0         000000014003ce24     libucrt:signal.obj
 0004:00001e30       $pdata$_fcloseall$fin$0    000000014003ce30     libucrt:closeall.obj
 0004:00001e3c       $pdata$__acrt_initialize_lowio$fin$0 000000014003ce3c     libucrt:ioinit.obj
 0004:00001e3c       $pdata$__acrt_lowio_ensure_fh_exists$fin$0 000000014003ce3c     libucrt:osfinfo.obj
 0004:00001e48       $pdata$?fin$0@?0???$?RV<lambda_a37b2b86f63e897a80ea819b0eb08c01>@@AEAV<lambda_38ce7e780aa69e748d6df282ebc68efe>@@V<lambda_99fb1378e971ab6e7edea83e3a7a83a2>@@@?$__crt_seh_guarded_call@H@@QEAAH$$QEAV<lambda_a37b2b86f63e897a80ea819b0eb08c01>@@AEAV<lambda_38ce7e780aa69e748d6df282ebc68efe>@@$$QEAV<lambda_99fb1378e971ab6e7edea83e3a7a83a2>@@@Z@4HA 000000014003ce48     libucrt:commit.obj
 0004:00001e48       $pdata$?fin$0@?0???$?RV<lambda_751a882b2c74d4b022dec766aa51a29a>@@AEAV<lambda_628dfdc04ba53c8bfc02c9951375f3f5>@@V<lambda_f6c7be5f7998530c34de24c7437d6b54>@@@?$__crt_seh_guarded_call@H@@QEAAH$$QEAV<lambda_751a882b2c74d4b022dec766aa51a29a>@@AEAV<lambda_628dfdc04ba53c8bfc02c9951375f3f5>@@$$QEAV<lambda_f6c7be5f7998530c34de24c7437d6b54>@@@Z@4HA 000000014003ce48     libucrt:close.obj
 0004:00001e54       $pdata$?fin$0@?0???$common_lseek@_J@@YA_JH_JH@Z@4HA 000000014003ce54     libucrt:lseek.obj
 0004:00001e54       $pdata$_write$fin$0        000000014003ce54     libucrt:write.obj
 0004:00001e60       $pdata$_ctrlfp$filt$0      000000014003ce60     libucrt:fpctrl.obj
 0004:00001e6c       $pdata$?fin$0@?0??update_thread_multibyte_data_internal@@YAPEAU__crt_multibyte_data@@QEAU__acrt_ptd@@QEAPEAU1@@Z@4HA 000000014003ce6c     libucrt:mbctype.obj
 0004:00001e78       $pdata$__acrt_update_thread_locale_data$fin$0 000000014003ce78     libucrt:locale_refcounting.obj
 0004:00001e84       $pdata$_read$fin$0         000000014003ce84     libucrt:read.obj
 0004:00001e90       $pdata$_IsNonwritableInCurrentImage$filt$0 000000014003ce90     LIBCMT:pesect.obj
 0004:00001e9c       $pdata$??__Fcout@std@@YAXXZ 000000014003ce9c     libcpmt:cout.obj
 0004:00001ea8       $pdata$??__Fclassic_locale@std@@YAXXZ 000000014003cea8     libcpmt:locale0.obj
 0004:00001eb4       $pdata$??__Fcin@std@@YAXXZ 000000014003ceb4     libcpmt:cin.obj
 0004:00001ec0       $pdata$??__Finit_atexit@@YAXXZ 000000014003cec0     libcpmt:iosptrs.obj
 0005:00000060       $R000000                   000000014003d060     * linker generated manifest res *

 Exports

  ordinal    name

